 WizardGame

 Timestamp is 5f264f6f (Sat Aug  1 22:30:23 2020)

 Preferred load address is 0000000140000000

 Start         Length     Name                   Class
 0001:00000000 00000450H .text$di                CODE
 0001:00000450 0010a660H .text$mn                CODE
 0001:0010aab0 000001d0H .text$mn$00             CODE
 0001:0010ac80 00005450H .text$x                 CODE
 0001:001100d0 000015c0H .text$yd                CODE
 0002:00000000 000009f0H .idata$5                DATA
 0002:000009f0 00000028H .00cfg                  DATA
 0002:00000a18 00000008H .CRT$XCA                DATA
 0002:00000a20 00000008H .CRT$XCAA               DATA
 0002:00000a28 00000088H .CRT$XCC                DATA
 0002:00000ab0 00000010H .CRT$XCL                DATA
 0002:00000ac0 00000078H .CRT$XCU                DATA
 0002:00000b38 00000008H .CRT$XCZ                DATA
 0002:00000b40 00000008H .CRT$XIA                DATA
 0002:00000b48 00000008H .CRT$XIAA               DATA
 0002:00000b50 00000008H .CRT$XIAC               DATA
 0002:00000b58 00000038H .CRT$XIC                DATA
 0002:00000b90 00000008H .CRT$XIZ                DATA
 0002:00000b98 00000008H .CRT$XLA                DATA
 0002:00000ba0 00000008H .CRT$XLZ                DATA
 0002:00000ba8 00000008H .CRT$XPA                DATA
 0002:00000bb0 00000008H .CRT$XPB                DATA
 0002:00000bb8 00000018H .CRT$XPX                DATA
 0002:00000bd0 00000008H .CRT$XPXA               DATA
 0002:00000bd8 00000008H .CRT$XPZ                DATA
 0002:00000be0 00000008H .CRT$XTA                DATA
 0002:00000be8 00000008H .CRT$XTZ                DATA
 0002:00000bf0 00000000H .gfids$y                DATA
 0002:00000bf0 00041910H .rdata                  DATA
 0002:00042500 00000030H .rdata$T                DATA
 0002:00042530 000054d4H .rdata$r                DATA
 0002:00047a04 0000045cH .rdata$zzzdbg           DATA
 0002:00047e60 00000008H .rtc$IAA                DATA
 0002:00047e68 00000008H .rtc$IZZ                DATA
 0002:00047e70 00000008H .rtc$TAA                DATA
 0002:00047e78 00000008H .rtc$TZZ                DATA
 0002:00047e80 00000004H .tls                    DATA
 0002:00047e84 00000004H .tls$                   DATA
 0002:00047e88 00000008H .tls$ZZZ                DATA
 0002:00047e90 00011d50H .xdata                  DATA
 0002:00059be0 00000cecH .xdata$x                DATA
 0002:0005a8cc 00000000H .edata                  DATA
 0002:0005a8cc 000000b4H .idata$2                DATA
 0002:0005a980 00000018H .idata$3                DATA
 0002:0005a998 000009f0H .idata$4                DATA
 0002:0005b388 00001818H .idata$6                DATA
 0003:00000000 00001b10H .data                   DATA
 0003:00001b10 00002e80H .data$r                 DATA
 0003:00004990 00002b00H .bss                    DATA
 0004:00000000 0000da10H .pdata                  DATA
 0005:00000000 00013308H _RDATA                  DATA
 0006:00000000 00000060H .rsrc$01                DATA
 0006:00000060 00000180H .rsrc$02                DATA

  Address         Publics by Value              Rva+Base               Lib:Object

 0000:00000000       __volatile_metadata        0000000000000000     <absolute>
 0000:00000000       __guard_iat_count          0000000000000000     <absolute>
 0000:00000000       __hybrid_code_map          0000000000000000     <absolute>
 0000:00000000       ___safe_se_handler_count   0000000000000000     <absolute>
 0000:00000000       __hybrid_code_map_count    0000000000000000     <absolute>
 0000:00000000       __guard_fids_count         0000000000000000     <absolute>
 0000:00000000       ___safe_se_handler_table   0000000000000000     <absolute>
 0000:00000000       __guard_eh_cont_count      0000000000000000     <absolute>
 0000:00000000       __enclave_config           0000000000000000     <absolute>
 0000:00000000       __guard_longjmp_table      0000000000000000     <absolute>
 0000:00000000       __guard_eh_cont_table      0000000000000000     <absolute>
 0000:00000000       __guard_iat_table          0000000000000000     <absolute>
 0000:00000000       __AbsoluteZero             0000000000000000     <absolute>
 0000:00000000       __guard_longjmp_count      0000000000000000     <absolute>
 0000:00000000       __guard_fids_table         0000000000000000     <absolute>
 0000:00000000       __hybrid_auxiliary_iat     0000000000000000     <absolute>
 0000:00000000       __dynamic_value_reloc_table 0000000000000000     <absolute>
 0000:00000100       __guard_flags              0000000000000100     <absolute>
 0000:00000000       __ImageBase                0000000140000000     <linker-defined>
 0001:00000450       ?ToInternalContext@VirtualProcessor@details@Concurrency@@MEAAPEAVInternalContextBase@23@PEAUIExecutionContext@3@@Z 0000000140001450 f i libconcrt:VirtualProcessor.obj
 0001:00000450       ??2@YAPEAX_KPEAX@Z         0000000140001450 f i animatedMesh.obj
 0001:00000460       __local_stdio_printf_options 0000000140001460 f i animatedMesh.obj
 0001:00000470       sprintf_s                  0000000140001470 f i animatedMesh.obj
 0001:000004d0       ??0exception@std@@QEAA@AEBV01@@Z 00000001400014d0 f i animatedMesh.obj
 0001:00000510       ??1context_unblock_unbalanced@Concurrency@@UEAA@XZ 0000000140001510 f i libconcrt:Exceptions.obj
 0001:00000510       ??1system_error@std@@UEAA@XZ 0000000140001510 f i animatedMesh.obj
 0001:00000510       ??1missing_wait@Concurrency@@UEAA@XZ 0000000140001510 f i libconcrt:Exceptions.obj
 0001:00000510       ??1scheduler_resource_allocation_error@Concurrency@@UEAA@XZ 0000000140001510 f i libconcrt:Platform.obj
 0001:00000510       ??1out_of_range@std@@UEAA@XZ 0000000140001510 f i libcpmt:xthrow.obj
 0001:00000510       ??1improper_lock@Concurrency@@UEAA@XZ 0000000140001510 f i libconcrt:rtlocks.obj
 0001:00000510       ??1runtime_error@std@@UEAA@XZ 0000000140001510 f i animatedMesh.obj
 0001:00000510       ??1failure@ios_base@std@@UEAA@XZ 0000000140001510 f i animatedMesh.obj
 0001:00000510       ??1logic_error@std@@UEAA@XZ 0000000140001510 f i EntityAPI.obj
 0001:00000510       ??1bad_function_call@std@@UEAA@XZ 0000000140001510 f i libcpmt:xthrow.obj
 0001:00000510       ??1unsupported_os@Concurrency@@UEAA@XZ 0000000140001510 f i libconcrt:ResourceManager.obj
 0001:00000510       ??1length_error@std@@UEAA@XZ 0000000140001510 f i libcpmt:xthrow.obj
 0001:00000510       ??1bad_array_new_length@std@@UEAA@XZ 0000000140001510 f i animatedMesh.obj
 0001:00000510       ??1exception@std@@UEAA@XZ  0000000140001510 f i animatedMesh.obj
 0001:00000510       ??1context_self_unblock@Concurrency@@UEAA@XZ 0000000140001510 f i libconcrt:Exceptions.obj
 0001:00000510       ??1_Interruption_exception@details@Concurrency@@UEAA@XZ 0000000140001510 f i libconcrt:TaskCollection.obj
 0001:00000510       ??1invalid_argument@std@@UEAA@XZ 0000000140001510 f i libcpmt:xthrow.obj
 0001:00000510       ??1scheduler_worker_creation_error@Concurrency@@UEAA@XZ 0000000140001510 f i libconcrt:Exceptions.obj
 0001:00000510       ??1bad_alloc@std@@UEAA@XZ  0000000140001510 f i animatedMesh.obj
 0001:00000510       ??1future_error@std@@UEAA@XZ 0000000140001510 f i libcpmt:future.obj
 0001:00000510       ??1invalid_scheduler_policy_value@Concurrency@@UEAA@XZ 0000000140001510 f i libconcrt:Exceptions.obj
 0001:00000510       ??1invalid_oversubscribe_operation@Concurrency@@UEAA@XZ 0000000140001510 f i libconcrt:Exceptions.obj
 0001:00000510       ??1bad_cast@std@@UEAA@XZ   0000000140001510 f i animatedMesh.obj
 0001:00000510       ??1__non_rtti_object@std@@UEAA@XZ 0000000140001510 f i libvcruntime:rtti.obj
 0001:00000510       ??1invalid_operation@Concurrency@@UEAA@XZ 0000000140001510 f i world.obj
 0001:00000510       ??1improper_scheduler_attach@Concurrency@@UEAA@XZ 0000000140001510 f i libconcrt:SchedulerBase.obj
 0001:00000510       ??1nested_scheduler_missing_detach@Concurrency@@UEAA@XZ 0000000140001510 f i libconcrt:Exceptions.obj
 0001:00000510       ??1invalid_scheduler_policy_key@Concurrency@@UEAA@XZ 0000000140001510 f i libconcrt:Exceptions.obj
 0001:00000510       ??1invalid_scheduler_policy_thread_specification@Concurrency@@UEAA@XZ 0000000140001510 f i libconcrt:Exceptions.obj
 0001:00000510       ??1improper_scheduler_reference@Concurrency@@UEAA@XZ 0000000140001510 f i libconcrt:SchedulerBase.obj
 0001:00000530       ?what@exception@std@@UEBAPEBDXZ 0000000140001530 f i animatedMesh.obj
 0001:00000550       ??_Ginvalid_oversubscribe_operation@Concurrency@@UEAAPEAXI@Z 0000000140001550 f i libconcrt:Exceptions.obj
 0001:00000550       ??_Ginvalid_scheduler_policy_thread_specification@Concurrency@@UEAAPEAXI@Z 0000000140001550 f i libconcrt:Exceptions.obj
 0001:00000550       ??_Gimproper_scheduler_reference@Concurrency@@UEAAPEAXI@Z 0000000140001550 f i libconcrt:SchedulerBase.obj
 0001:00000550       ??_Ginvalid_scheduler_policy_value@Concurrency@@UEAAPEAXI@Z 0000000140001550 f i libconcrt:Exceptions.obj
 0001:00000550       ??_Eimproper_scheduler_reference@Concurrency@@UEAAPEAXI@Z 0000000140001550 f i libconcrt:SchedulerBase.obj
 0001:00000550       ??_Ebad_alloc@std@@UEAAPEAXI@Z 0000000140001550 f i * CIL library *:* CIL module *
 0001:00000550       ??_Emissing_wait@Concurrency@@UEAAPEAXI@Z 0000000140001550 f i libconcrt:Exceptions.obj
 0001:00000550       ??_E_Interruption_exception@details@Concurrency@@UEAAPEAXI@Z 0000000140001550 f i libconcrt:TaskCollection.obj
 0001:00000550       ??_Einvalid_scheduler_policy_key@Concurrency@@UEAAPEAXI@Z 0000000140001550 f i libconcrt:Exceptions.obj
 0001:00000550       ??_Ebad_array_new_length@std@@UEAAPEAXI@Z 0000000140001550 f i * CIL library *:* CIL module *
 0001:00000550       ??_Ginvalid_scheduler_policy_key@Concurrency@@UEAAPEAXI@Z 0000000140001550 f i libconcrt:Exceptions.obj
 0001:00000550       ??_Gcontext_unblock_unbalanced@Concurrency@@UEAAPEAXI@Z 0000000140001550 f i libconcrt:Exceptions.obj
 0001:00000550       ??_Gnested_scheduler_missing_detach@Concurrency@@UEAAPEAXI@Z 0000000140001550 f i libconcrt:Exceptions.obj
 0001:00000550       ??_Ebad_cast@std@@UEAAPEAXI@Z 0000000140001550 f i * CIL library *:* CIL module *
 0001:00000550       ??_Eruntime_error@std@@UEAAPEAXI@Z 0000000140001550 f i * CIL library *:* CIL module *
 0001:00000550       ??_Einvalid_oversubscribe_operation@Concurrency@@UEAAPEAXI@Z 0000000140001550 f i libconcrt:Exceptions.obj
 0001:00000550       ??_Enested_scheduler_missing_detach@Concurrency@@UEAAPEAXI@Z 0000000140001550 f i libconcrt:Exceptions.obj
 0001:00000550       ??_Einvalid_argument@std@@UEAAPEAXI@Z 0000000140001550 f i libcpmt:xthrow.obj
 0001:00000550       ??_Gbad_cast@std@@UEAAPEAXI@Z 0000000140001550 f i animatedMesh.obj
 0001:00000550       ??_Einvalid_scheduler_policy_value@Concurrency@@UEAAPEAXI@Z 0000000140001550 f i libconcrt:Exceptions.obj
 0001:00000550       ??_Eexception@std@@UEAAPEAXI@Z 0000000140001550 f i * CIL library *:* CIL module *
 0001:00000550       ??_Gbad_array_new_length@std@@UEAAPEAXI@Z 0000000140001550 f i animatedMesh.obj
 0001:00000550       ??_Econtext_self_unblock@Concurrency@@UEAAPEAXI@Z 0000000140001550 f i libconcrt:Exceptions.obj
 0001:00000550       ??_Gimproper_lock@Concurrency@@UEAAPEAXI@Z 0000000140001550 f i libconcrt:rtlocks.obj
 0001:00000550       ??_Einvalid_scheduler_policy_thread_specification@Concurrency@@UEAAPEAXI@Z 0000000140001550 f i libconcrt:Exceptions.obj
 0001:00000550       ??_Eunsupported_os@Concurrency@@UEAAPEAXI@Z 0000000140001550 f i libconcrt:ResourceManager.obj
 0001:00000550       ??_Ebad_function_call@std@@UEAAPEAXI@Z 0000000140001550 f i libcpmt:xthrow.obj
 0001:00000550       ??_Gruntime_error@std@@UEAAPEAXI@Z 0000000140001550 f i animatedMesh.obj
 0001:00000550       ??_Gbad_function_call@std@@UEAAPEAXI@Z 0000000140001550 f i libcpmt:xthrow.obj
 0001:00000550       ??_Gout_of_range@std@@UEAAPEAXI@Z 0000000140001550 f i libcpmt:xthrow.obj
 0001:00000550       ??_Gimproper_scheduler_attach@Concurrency@@UEAAPEAXI@Z 0000000140001550 f i libconcrt:SchedulerBase.obj
 0001:00000550       ??_Gunsupported_os@Concurrency@@UEAAPEAXI@Z 0000000140001550 f i libconcrt:ResourceManager.obj
 0001:00000550       ??_Ebad_typeid@std@@UEAAPEAXI@Z 0000000140001550 f i libvcruntime:rtti.obj
 0001:00000550       ??_Glength_error@std@@UEAAPEAXI@Z 0000000140001550 f i libcpmt:xthrow.obj
 0001:00000550       ??_Einvalid_operation@Concurrency@@UEAAPEAXI@Z 0000000140001550 f i * CIL library *:* CIL module *
 0001:00000550       ??_Eimproper_scheduler_attach@Concurrency@@UEAAPEAXI@Z 0000000140001550 f i libconcrt:SchedulerBase.obj
 0001:00000550       ??_Eout_of_range@std@@UEAAPEAXI@Z 0000000140001550 f i libcpmt:xthrow.obj
 0001:00000550       ??_Eimproper_lock@Concurrency@@UEAAPEAXI@Z 0000000140001550 f i libconcrt:rtlocks.obj
 0001:00000550       ??_Elogic_error@std@@UEAAPEAXI@Z 0000000140001550 f i * CIL library *:* CIL module *
 0001:00000550       ??_G_Interruption_exception@details@Concurrency@@UEAAPEAXI@Z 0000000140001550 f i libconcrt:TaskCollection.obj
 0001:00000550       ??_Ginvalid_argument@std@@UEAAPEAXI@Z 0000000140001550 f i libcpmt:xthrow.obj
 0001:00000550       ??_E__non_rtti_object@std@@UEAAPEAXI@Z 0000000140001550 f i libvcruntime:rtti.obj
 0001:00000550       ??_Gcontext_self_unblock@Concurrency@@UEAAPEAXI@Z 0000000140001550 f i libconcrt:Exceptions.obj
 0001:00000550       ??_Gmissing_wait@Concurrency@@UEAAPEAXI@Z 0000000140001550 f i libconcrt:Exceptions.obj
 0001:00000550       ??_Gbad_typeid@std@@UEAAPEAXI@Z 0000000140001550 f i libvcruntime:rtti.obj
 0001:00000550       ??_Ginvalid_operation@Concurrency@@UEAAPEAXI@Z 0000000140001550 f i world.obj
 0001:00000550       ??_Glogic_error@std@@UEAAPEAXI@Z 0000000140001550 f i EntityAPI.obj
 0001:00000550       ??_Elength_error@std@@UEAAPEAXI@Z 0000000140001550 f i libcpmt:xthrow.obj
 0001:00000550       ??_G__non_rtti_object@std@@UEAAPEAXI@Z 0000000140001550 f i libvcruntime:rtti.obj
 0001:00000550       ??_Gexception@std@@UEAAPEAXI@Z 0000000140001550 f i animatedMesh.obj
 0001:00000550       ??_Econtext_unblock_unbalanced@Concurrency@@UEAAPEAXI@Z 0000000140001550 f i libconcrt:Exceptions.obj
 0001:00000550       ??_Gbad_alloc@std@@UEAAPEAXI@Z 0000000140001550 f i animatedMesh.obj
 0001:000005a0       ??0bad_array_new_length@std@@QEAA@XZ 00000001400015a0 f i animatedMesh.obj
 0001:000005d0       ?__scrt_throw_std_bad_array_new_length@@YAXXZ 00000001400015d0 f i LIBCMT:throw_bad_alloc.obj
 0001:000005d0       ?_Throw_bad_array_new_length@std@@YAXXZ 00000001400015d0 f i animatedMesh.obj
 0001:000005f0       ??0bad_array_new_length@std@@QEAA@AEBV01@@Z 00000001400015f0 f i animatedMesh.obj
 0001:00000630       ??0bad_alloc@std@@QEAA@AEBV01@@Z 0000000140001630 f i animatedMesh.obj
 0001:00000670       ??0runtime_error@std@@QEAA@AEBV01@@Z 0000000140001670 f i animatedMesh.obj
 0001:000006b0       ??0error_code@std@@QEAA@HAEBVerror_category@1@@Z 00000001400016b0 f i animatedMesh.obj
 0001:000006c0       ?default_error_condition@error_category@std@@UEBA?AVerror_condition@2@H@Z 00000001400016c0 f i animatedMesh.obj
 0001:000006d0       ?equivalent@error_category@std@@UEBA_NHAEBVerror_condition@2@@Z 00000001400016d0 f i animatedMesh.obj
 0001:00000710       ?equivalent@error_category@std@@UEBA_NAEBVerror_code@2@H@Z 0000000140001710 f i animatedMesh.obj
 0001:00000730       ?make_error_code@std@@YA?AVerror_code@1@W4io_errc@1@@Z 0000000140001730 f i animatedMesh.obj
 0001:00000790       ??0_System_error@std@@IEAA@Verror_code@1@AEBV?$basic_string@DU?$char_traits@D@std@@V?$allocator@D@2@@1@@Z 0000000140001790 f i animatedMesh.obj
 0001:00000930       ??_Gfailure@ios_base@std@@UEAAPEAXI@Z 0000000140001930 f i animatedMesh.obj
 0001:00000930       ??_Esystem_error@std@@UEAAPEAXI@Z 0000000140001930 f i * CIL library *:* CIL module *
 0001:00000930       ??_Efuture_error@std@@UEAAPEAXI@Z 0000000140001930 f i libcpmt:future.obj
 0001:00000930       ??_E_System_error@std@@UEAAPEAXI@Z 0000000140001930 f i * CIL library *:* CIL module *
 0001:00000930       ??_Gsystem_error@std@@UEAAPEAXI@Z 0000000140001930 f i animatedMesh.obj
 0001:00000930       ??_Gfuture_error@std@@UEAAPEAXI@Z 0000000140001930 f i libcpmt:future.obj
 0001:00000930       ??_Efailure@ios_base@std@@UEAAPEAXI@Z 0000000140001930 f i * CIL library *:* CIL module *
 0001:00000930       ??_G_System_error@std@@UEAAPEAXI@Z 0000000140001930 f i animatedMesh.obj
 0001:00000980       ??0system_error@std@@QEAA@AEBV01@@Z 0000000140001980 f i animatedMesh.obj
 0001:000009e0       ??0_System_error@std@@QEAA@AEBV01@@Z 00000001400019e0 f i animatedMesh.obj
 0001:00000a30       ?name@_Generic_error_category@std@@UEBAPEBDXZ 0000000140001a30 f i animatedMesh.obj
 0001:00000a40       ?message@_Generic_error_category@std@@UEBA?AV?$basic_string@DU?$char_traits@D@std@@V?$allocator@D@2@@2@H@Z 0000000140001a40 f i animatedMesh.obj
 0001:00000a90       ??_G_Future_error_category@std@@UEAAPEAXI@Z 0000000140001a90 f i world.obj
 0001:00000a90       ??_E_System_error_category@std@@UEAAPEAXI@Z 0000000140001a90 f i * CIL library *:* CIL module *
 0001:00000a90       ??_E_Future_error_category@std@@UEAAPEAXI@Z 0000000140001a90 f i * CIL library *:* CIL module *
 0001:00000a90       ??_G_Generic_error_category@std@@UEAAPEAXI@Z 0000000140001a90 f i animatedMesh.obj
 0001:00000a90       ??_G_System_error_category@std@@UEAAPEAXI@Z 0000000140001a90 f i main.obj
 0001:00000a90       ??_E_Generic_error_category@std@@UEAAPEAXI@Z 0000000140001a90 f i * CIL library *:* CIL module *
 0001:00000a90       ??_G_Iostream_error_category@std@@UEAAPEAXI@Z 0000000140001a90 f i animatedMesh.obj
 0001:00000a90       ??_E_Iostream_error_category@std@@UEAAPEAXI@Z 0000000140001a90 f i * CIL library *:* CIL module *
 0001:00000ac0       ?name@_Iostream_error_category@std@@UEBAPEBDXZ 0000000140001ac0 f i animatedMesh.obj
 0001:00000ad0       ?message@_Iostream_error_category@std@@UEBA?AV?$basic_string@DU?$char_traits@D@std@@V?$allocator@D@2@@2@H@Z 0000000140001ad0 f i animatedMesh.obj
 0001:00000b60       ??0bad_cast@std@@QEAA@XZ   0000000140001b60 f i animatedMesh.obj
 0001:00000b90       ?_Throw_bad_cast@std@@YAXXZ 0000000140001b90 f i animatedMesh.obj
 0001:00000bb0       ??0bad_cast@std@@QEAA@AEBV01@@Z 0000000140001bb0 f i animatedMesh.obj
 0001:00000bf0       ??_G_Facet_base@std@@UEAAPEAXI@Z 0000000140001bf0 f i animatedMesh.obj
 0001:00000bf0       ??_E_Facet_base@std@@UEAAPEAXI@Z 0000000140001bf0 f i * CIL library *:* CIL module *
 0001:00000c20       ??1_Locinfo@std@@QEAA@XZ   0000000140001c20 f i animatedMesh.obj
 0001:00000cc0       ?_Incref@facet@locale@std@@UEAAXXZ 0000000140001cc0 f i animatedMesh.obj
 0001:00000cd0       ?_Decref@facet@locale@std@@UEAAPEAV_Facet_base@3@XZ 0000000140001cd0 f i animatedMesh.obj
 0001:00000ce0       ??1facet@locale@std@@MEAA@XZ 0000000140001ce0 f i animatedMesh.obj
 0001:00000cf0       ??1locale@std@@QEAA@XZ     0000000140001cf0 f i animatedMesh.obj
 0001:00000d20       ?_Getcat@?$ctype@D@std@@SA_KPEAPEBVfacet@locale@2@PEBV42@@Z 0000000140001d20 f i animatedMesh.obj
 0001:00000eb0       ?do_tolower@?$ctype@D@std@@MEBADD@Z 0000000140001eb0 f i animatedMesh.obj
 0001:00000ec0       ?do_tolower@?$ctype@D@std@@MEBAPEBDPEADPEBD@Z 0000000140001ec0 f i animatedMesh.obj
 0001:00000f10       ?do_toupper@?$ctype@D@std@@MEBADD@Z 0000000140001f10 f i animatedMesh.obj
 0001:00000f20       ?do_toupper@?$ctype@D@std@@MEBAPEBDPEADPEBD@Z 0000000140001f20 f i animatedMesh.obj
 0001:00000f70       ?do_narrow@?$ctype@D@std@@MEBADDD@Z 0000000140001f70 f i animatedMesh.obj
 0001:00000f70       ?do_widen@?$ctype@D@std@@MEBADD@Z 0000000140001f70 f i animatedMesh.obj
 0001:00000f80       ?do_widen@?$ctype@D@std@@MEBAPEBDPEBD0PEAD@Z 0000000140001f80 f i animatedMesh.obj
 0001:00000fa0       ?do_narrow@?$ctype@D@std@@MEBAPEBDPEBD0DPEAD@Z 0000000140001fa0 f i animatedMesh.obj
 0001:00000fc0       ??_E?$ctype@D@std@@MEAAPEAXI@Z 0000000140001fc0 f i * CIL library *:* CIL module *
 0001:00000fc0       ??_G?$ctype@D@std@@MEAAPEAXI@Z 0000000140001fc0 f i animatedMesh.obj
 0001:00001030       ??0failure@ios_base@std@@QEAA@PEBDAEBVerror_code@2@@Z 0000000140002030 f i animatedMesh.obj
 0001:000010f0       ?clear@ios_base@std@@QEAAXH_N@Z 00000001400020f0 f i animatedMesh.obj
 0001:00001180       ??0failure@ios_base@std@@QEAA@AEBV012@@Z 0000000140002180 f i animatedMesh.obj
 0001:000011e0       ??1IndexedModel@@QEAA@XZ   00000001400021e0 f i animatedMesh.obj
 0001:000012a0       ??0animatedMesh@@QEAA@V?$basic_string@DU?$char_traits@D@std@@V?$allocator@D@2@@std@@@Z 00000001400022a0 f   animatedMesh.obj
 0001:00001820       ??_GanimatedMesh@@UEAAPEAXI@Z 0000000140002820 f i animatedMesh.obj
 0001:00001820       ??_EanimatedMesh@@UEAAPEAXI@Z 0000000140002820 f i * CIL library *:* CIL module *
 0001:00001860       ??1sAnimatedMesh@SA@@QEAA@XZ 0000000140002860 f i animatedMesh.obj
 0001:00001870       ??1animatedMesh@@UEAA@XZ   0000000140002870 f   animatedMesh.obj
 0001:00001a20       ?UpdateMesh@animatedMesh@@QEAAXAEBVIndexedModel@@@Z 0000000140002a20 f   animatedMesh.obj
 0001:00001b30       ?Update@animatedMesh@@QEAA_NH@Z 0000000140002b30 f   animatedMesh.obj
 0001:000021b0       ??4IndexedModel@@QEAAAEAV0@AEBV0@@Z 00000001400031b0 f i animatedMesh.obj
 0001:00002310       ?InitMesh@animatedMesh@@QEAAXXZ 0000000140003310 f   animatedMesh.obj
 0001:00002810       ??1?$vector@VVertex@@V?$allocator@VVertex@@@std@@@std@@QEAA@XZ 0000000140003810 f i animatedMesh.obj
 0001:00002870       ??1?$vector@VIndexedModel@@V?$allocator@VIndexedModel@@@std@@@std@@QEAA@XZ 0000000140003870 f i animatedMesh.obj
 0001:00002920       ??4?$vector@IV?$allocator@I@std@@@std@@QEAAAEAV01@AEBV01@@Z 0000000140003920 f i animatedMesh.obj
 0001:00002a30       ??1?$vector@HV?$allocator@H@std@@@std@@QEAA@XZ 0000000140003a30 f i main.obj
 0001:00002a30       ??1?$vector@IV?$allocator@I@std@@@std@@QEAA@XZ 0000000140003a30 f i animatedMesh.obj
 0001:00002a90       ??1?$vector@PEAVBox@@V?$allocator@PEAVBox@@@std@@@std@@QEAA@XZ 0000000140003a90 f i main.obj
 0001:00002a90       ??1?$vector@NV?$allocator@N@std@@@std@@QEAA@XZ 0000000140003a90 f i main.obj
 0001:00002a90       ??1?$vector@PEAVObject@@V?$allocator@PEAVObject@@@std@@@std@@QEAA@XZ 0000000140003a90 f i main.obj
 0001:00002a90       ??1?$vector@PEAUOBJIndex@@V?$allocator@PEAUOBJIndex@@@std@@@std@@QEAA@XZ 0000000140003a90 f i obj_loader.obj
 0001:00002a90       ??1?$vector@U?$vec@$01M$0A@@glm@@V?$allocator@U?$vec@$01M$0A@@glm@@@std@@@std@@QEAA@XZ 0000000140003a90 f i animatedMesh.obj
 0001:00002a90       ??1?$vector@PEAVEntity@@V?$allocator@PEAVEntity@@@std@@@std@@QEAA@XZ 0000000140003a90 f i main.obj
 0001:00002a90       ??1?$vector@PEAVProjectile@@V?$allocator@PEAVProjectile@@@std@@@std@@QEAA@XZ 0000000140003a90 f i main.obj
 0001:00002a90       ??1?$vector@PEAVProp@@V?$allocator@PEAVProp@@@std@@@std@@QEAA@XZ 0000000140003a90 f i main.obj
 0001:00002af0       ??4?$vector@U?$vec@$02M$0A@@glm@@V?$allocator@U?$vec@$02M$0A@@glm@@@std@@@std@@QEAAAEAV01@AEBV01@@Z 0000000140003af0 f i animatedMesh.obj
 0001:00002c30       ??1?$vector@U?$vec@$02M$0A@@glm@@V?$allocator@U?$vec@$02M$0A@@glm@@@std@@@std@@QEAA@XZ 0000000140003c30 f i animatedMesh.obj
 0001:00002c40       ??1?$_Yarn@D@std@@QEAA@XZ  0000000140003c40 f i animatedMesh.obj
 0001:00002c40       ??1?$_Yarn@_W@std@@QEAA@XZ 0000000140003c40 f i animatedMesh.obj
 0001:00002c70       ?resize@?$basic_string@DU?$char_traits@D@std@@V?$allocator@D@2@@std@@QEAAX_KD@Z 0000000140003c70 f i animatedMesh.obj
 0001:00002d00       ??1?$TypeListValues@U?$TypeList@AEBV?$basic_string@DU?$char_traits@D@std@@V?$allocator@D@2@@std@@X@luabridge@@@luabridge@@QEAA@XZ 0000000140003d00 f i main.obj
 0001:00002d00       ??1?$ArgList@U?$TypeList@V?$basic_string@DU?$char_traits@D@std@@V?$allocator@D@2@@std@@U?$TypeList@MU?$TypeList@MX@luabridge@@@luabridge@@@luabridge@@$01@luabridge@@QEAA@XZ 0000000140003d00 f i main.obj
 0001:00002d00       ??1?$ArgList@U?$TypeList@V?$basic_string@DU?$char_traits@D@std@@V?$allocator@D@2@@std@@U?$TypeList@HX@luabridge@@@luabridge@@$01@luabridge@@QEAA@XZ 0000000140003d00 f i main.obj
 0001:00002d00       ??1?$ArgList@U?$TypeList@V?$basic_string@DU?$char_traits@D@std@@V?$allocator@D@2@@std@@U?$TypeList@MX@luabridge@@@luabridge@@$01@luabridge@@QEAA@XZ 0000000140003d00 f i main.obj
 0001:00002d00       ??1?$ArgList@U?$TypeList@V?$basic_string@DU?$char_traits@D@std@@V?$allocator@D@2@@std@@U?$TypeList@MU?$TypeList@MX@luabridge@@@luabridge@@@luabridge@@$02@luabridge@@QEAA@XZ 0000000140003d00 f i main.obj
 0001:00002d00       ??1?$TypeListValues@U?$TypeList@V?$basic_string@DU?$char_traits@D@std@@V?$allocator@D@2@@std@@U?$TypeList@MX@luabridge@@@luabridge@@@luabridge@@QEAA@XZ 0000000140003d00 f i main.obj
 0001:00002d00       ??1?$ArgList@U?$TypeList@V?$basic_string@DU?$char_traits@D@std@@V?$allocator@D@2@@std@@U?$TypeList@_NX@luabridge@@@luabridge@@$01@luabridge@@QEAA@XZ 0000000140003d00 f i main.obj
 0001:00002d00       ??1?$ArgList@U?$TypeList@AEBV?$basic_string@DU?$char_traits@D@std@@V?$allocator@D@2@@std@@X@luabridge@@$01@luabridge@@QEAA@XZ 0000000140003d00 f i main.obj
 0001:00002d00       ??1?$TypeListValues@U?$TypeList@V?$basic_string@DU?$char_traits@D@std@@V?$allocator@D@2@@std@@U?$TypeList@MU?$TypeList@MX@luabridge@@@luabridge@@@luabridge@@@luabridge@@QEAA@XZ 0000000140003d00 f i main.obj
 0001:00002d00       ??1sBone@SA@@QEAA@XZ       0000000140003d00 f i AssimpConverter.obj
 0001:00002d00       ??1Box@@QEAA@XZ            0000000140003d00 f i EntityAPI.obj
 0001:00002d00       ??1?$ArgList@U?$TypeList@V?$basic_string@DU?$char_traits@D@std@@V?$allocator@D@2@@std@@X@luabridge@@$01@luabridge@@QEAA@XZ 0000000140003d00 f i main.obj
 0001:00002d00       ??1?$TypeListValues@U?$TypeList@V?$basic_string@DU?$char_traits@D@std@@V?$allocator@D@2@@std@@U?$TypeList@HX@luabridge@@@luabridge@@@luabridge@@QEAA@XZ 0000000140003d00 f i main.obj
 0001:00002d00       ??1?$ArgList@U?$TypeList@V?$basic_string@DU?$char_traits@D@std@@V?$allocator@D@2@@std@@X@luabridge@@$02@luabridge@@QEAA@XZ 0000000140003d00 f i main.obj
 0001:00002d00       ??1?$TypeListValues@U?$TypeList@V?$basic_string@DU?$char_traits@D@std@@V?$allocator@D@2@@std@@X@luabridge@@@luabridge@@QEAA@XZ 0000000140003d00 f i main.obj
 0001:00002d00       ??1?$basic_string@DU?$char_traits@D@std@@V?$allocator@D@2@@std@@QEAA@XZ 0000000140003d00 f i animatedMesh.obj
 0001:00002d00       ??1?$TypeListValues@U?$TypeList@V?$basic_string@DU?$char_traits@D@std@@V?$allocator@D@2@@std@@U?$TypeList@_NX@luabridge@@@luabridge@@@luabridge@@QEAA@XZ 0000000140003d00 f i main.obj
 0001:00002d60       ??0?$basic_string@DU?$char_traits@D@std@@V?$allocator@D@2@@std@@QEAA@QEBD@Z 0000000140003d60 f i animatedMesh.obj
 0001:00002da0       ??0?$basic_string@DU?$char_traits@D@std@@V?$allocator@D@2@@std@@QEAA@AEBV01@@Z 0000000140003da0 f i animatedMesh.obj
 0001:00002e70       ?do_put@?$num_put@DV?$ostreambuf_iterator@DU?$char_traits@D@std@@@std@@@std@@MEBA?AV?$ostreambuf_iterator@DU?$char_traits@D@std@@@2@V32@AEAVios_base@2@DPEBX@Z 0000000140003e70 f i animatedMesh.obj
 0001:00002f10       ?do_put@?$num_put@DV?$ostreambuf_iterator@DU?$char_traits@D@std@@@std@@@std@@MEBA?AV?$ostreambuf_iterator@DU?$char_traits@D@std@@@2@V32@AEAVios_base@2@DO@Z 0000000140003f10 f i animatedMesh.obj
 0001:000031e0       ?do_put@?$num_put@DV?$ostreambuf_iterator@DU?$char_traits@D@std@@@std@@@std@@MEBA?AV?$ostreambuf_iterator@DU?$char_traits@D@std@@@2@V32@AEAVios_base@2@DN@Z 00000001400041e0 f i animatedMesh.obj
 0001:000034a0       ?do_put@?$num_put@DV?$ostreambuf_iterator@DU?$char_traits@D@std@@@std@@@std@@MEBA?AV?$ostreambuf_iterator@DU?$char_traits@D@std@@@2@V32@AEAVios_base@2@D_K@Z 00000001400044a0 f i animatedMesh.obj
 0001:000035c0       ?do_put@?$num_put@DV?$ostreambuf_iterator@DU?$char_traits@D@std@@@std@@@std@@MEBA?AV?$ostreambuf_iterator@DU?$char_traits@D@std@@@2@V32@AEAVios_base@2@D_J@Z 00000001400045c0 f i animatedMesh.obj
 0001:000036e0       ?do_put@?$num_put@DV?$ostreambuf_iterator@DU?$char_traits@D@std@@@std@@@std@@MEBA?AV?$ostreambuf_iterator@DU?$char_traits@D@std@@@2@V32@AEAVios_base@2@DK@Z 00000001400046e0 f i animatedMesh.obj
 0001:00003800       ?do_put@?$num_put@DV?$ostreambuf_iterator@DU?$char_traits@D@std@@@std@@@std@@MEBA?AV?$ostreambuf_iterator@DU?$char_traits@D@std@@@2@V32@AEAVios_base@2@DJ@Z 0000000140004800 f i animatedMesh.obj
 0001:00003920       ?do_put@?$num_put@DV?$ostreambuf_iterator@DU?$char_traits@D@std@@@std@@@std@@MEBA?AV?$ostreambuf_iterator@DU?$char_traits@D@std@@@2@V32@AEAVios_base@2@D_N@Z 0000000140004920 f i animatedMesh.obj
 0001:00003c80       ??1sentry@?$basic_ostream@DU?$char_traits@D@std@@@std@@QEAA@XZ 0000000140004c80 f i animatedMesh.obj
 0001:00003cc0       ??0sentry@?$basic_ostream@DU?$char_traits@D@std@@@std@@QEAA@AEAV12@@Z 0000000140004cc0 f i animatedMesh.obj
 0001:00003d40       ?_Xlength@?$vector@PEAUOBJIndex@@V?$allocator@PEAUOBJIndex@@@std@@@std@@CAXXZ 0000000140004d40 f i obj_loader.obj
 0001:00003d40       ?_Xlength@?$vector@HV?$allocator@H@std@@@std@@CAXXZ 0000000140004d40 f i EntityAPI.obj
 0001:00003d40       ?_Xlength@?$vector@PEAVObject@@V?$allocator@PEAVObject@@@std@@@std@@CAXXZ 0000000140004d40 f i EntityAPI.obj
 0001:00003d40       ?_Xlength@?$vector@U?$vec@$01M$0A@@glm@@V?$allocator@U?$vec@$01M$0A@@glm@@@std@@@std@@CAXXZ 0000000140004d40 f i animatedMesh.obj
 0001:00003d40       ?_Xlength@?$vector@U?$sNodeAnimationKey@U?$qua@M$0A@@glm@@@SA@@V?$allocator@U?$sNodeAnimationKey@U?$qua@M$0A@@glm@@@SA@@@std@@@std@@CAXXZ 0000000140004d40 f i AssimpConverter.obj
 0001:00003d40       ?_Xlength@?$vector@U?$sNodeAnimationKey@U?$vec@$02M$0A@@glm@@@SA@@V?$allocator@U?$sNodeAnimationKey@U?$vec@$02M$0A@@glm@@@SA@@@std@@@std@@CAXXZ 0000000140004d40 f i AssimpConverter.obj
 0001:00003d40       ?_Xlength@?$vector@UsAnimatedMesh@SA@@V?$allocator@UsAnimatedMesh@SA@@@std@@@std@@CAXXZ 0000000140004d40 f i AssimpConverter.obj
 0001:00003d40       ?_Xlength@?$vector@U?$vec@$02M$0A@@glm@@V?$allocator@U?$vec@$02M$0A@@glm@@@std@@@std@@CAXXZ 0000000140004d40 f i animatedMesh.obj
 0001:00003d40       ?_Xlength@?$vector@UOBJIndex@@V?$allocator@UOBJIndex@@@std@@@std@@CAXXZ 0000000140004d40 f i obj_loader.obj
 0001:00003d40       ?_Xlength@?$vector@VSpawnData@@V?$allocator@VSpawnData@@@std@@@std@@CAXXZ 0000000140004d40 f i EntityAPI.obj
 0001:00003d40       ?_Xlength@?$vector@V?$basic_string@DU?$char_traits@D@std@@V?$allocator@D@2@@std@@V?$allocator@V?$basic_string@DU?$char_traits@D@std@@V?$allocator@D@2@@std@@@2@@std@@CAXXZ 0000000140004d40 f i EntityAPI.obj
 0001:00003d40       ?_Xlength@?$vector@UsBone@SA@@V?$allocator@UsBone@SA@@@std@@@std@@CAXXZ 0000000140004d40 f i AssimpConverter.obj
 0001:00003d40       ?_Xlength@?$vector@EV?$allocator@E@std@@@std@@CAXXZ 0000000140004d40 f i TextRenderer.obj
 0001:00003d40       ?_Xlength@?$vector@VIndexedModel@@V?$allocator@VIndexedModel@@@std@@@std@@CAXXZ 0000000140004d40 f i animatedMesh.obj
 0001:00003d40       ?_Xlength@?$vector@PEAVEntity@@V?$allocator@PEAVEntity@@@std@@@std@@CAXXZ 0000000140004d40 f i main.obj
 0001:00003d40       ?_Xlength@?$vector@IV?$allocator@I@std@@@std@@CAXXZ 0000000140004d40 f i animatedMesh.obj
 0001:00003d40       ?_Xlength@?$vector@VVertex@@V?$allocator@VVertex@@@std@@@std@@CAXXZ 0000000140004d40 f i animatedMesh.obj
 0001:00003d40       ?_Xlength@?$vector@PEAXV?$allocator@PEAX@std@@@std@@CAXXZ 0000000140004d40 f i world.obj
 0001:00003d40       ?_Xlength@?$vector@PEAVanimatedMesh@@V?$allocator@PEAVanimatedMesh@@@std@@@std@@CAXXZ 0000000140004d40 f i world.obj
 0001:00003d40       ?_Xlength@?$vector@UsNodeAnimation@SA@@V?$allocator@UsNodeAnimation@SA@@@std@@@std@@CAXXZ 0000000140004d40 f i AssimpConverter.obj
 0001:00003d40       ?_Xlength@?$vector@PEAVProp@@V?$allocator@PEAVProp@@@std@@@std@@CAXXZ 0000000140004d40 f i main.obj
 0001:00003d60       ?_Reallocate_exactly@?$vector@VVertex@@V?$allocator@VVertex@@@std@@@std@@AEAAX_K@Z 0000000140004d60 f i animatedMesh.obj
 0001:00003e80       ?_Reallocate_exactly@?$vector@VIndexedModel@@V?$allocator@VIndexedModel@@@std@@@std@@AEAAX_K@Z 0000000140004e80 f i animatedMesh.obj
 0001:00003f60       ?_Reallocate_exactly@?$vector@IV?$allocator@I@std@@@std@@AEAAX_K@Z 0000000140004f60 f i animatedMesh.obj
 0001:00003fc0       ?_Reallocate_exactly@?$vector@U?$vec@$01M$0A@@glm@@V?$allocator@U?$vec@$01M$0A@@glm@@@std@@@std@@AEAAX_K@Z 0000000140004fc0 f i animatedMesh.obj
 0001:00004020       ?_Tidy@?$vector@U?$vec@$02M$0A@@glm@@V?$allocator@U?$vec@$02M$0A@@glm@@@std@@@std@@AEAAXXZ 0000000140005020 f i animatedMesh.obj
 0001:00004020       ??1?$vector@UOBJIndex@@V?$allocator@UOBJIndex@@@std@@@std@@QEAA@XZ 0000000140005020 f i mesh.obj
 0001:000040a0       ?_Reallocate_exactly@?$vector@U?$vec@$02M$0A@@glm@@V?$allocator@U?$vec@$02M$0A@@glm@@@std@@@std@@AEAAX_K@Z 00000001400050a0 f i animatedMesh.obj
 0001:00004110       ?assign@?$basic_string@DU?$char_traits@D@std@@V?$allocator@D@2@@std@@QEAAAEAV12@_KD@Z 0000000140005110 f i animatedMesh.obj
 0001:00004280       ?assign@?$basic_string@DU?$char_traits@D@std@@V?$allocator@D@2@@std@@QEAAAEAV12@QEBD@Z 0000000140005280 f i animatedMesh.obj
 0001:000042a0       ?assign@?$basic_string@DU?$char_traits@D@std@@V?$allocator@D@2@@std@@QEAAAEAV12@QEBD_K@Z 00000001400052a0 f i animatedMesh.obj
 0001:00004400       ?append@?$basic_string@DU?$char_traits@D@std@@V?$allocator@D@2@@std@@QEAAAEAV12@QEBD_K@Z 0000000140005400 f i animatedMesh.obj
 0001:00004480       ??_G?$codecvt@DDU_Mbstatet@@@std@@MEAAPEAXI@Z 0000000140005480 f i obj_loader.obj
 0001:00004480       ??_E?$num_put@DV?$ostreambuf_iterator@DU?$char_traits@D@std@@@std@@@std@@MEAAPEAXI@Z 0000000140005480 f i * CIL library *:* CIL module *
 0001:00004480       ??_E?$codecvt@DDU_Mbstatet@@@std@@MEAAPEAXI@Z 0000000140005480 f i * CIL library *:* CIL module *
 0001:00004480       ??_G?$num_put@DV?$ostreambuf_iterator@DU?$char_traits@D@std@@@std@@@std@@MEAAPEAXI@Z 0000000140005480 f i animatedMesh.obj
 0001:000044b0       ?do_truename@?$numpunct@D@std@@MEBA?AV?$basic_string@DU?$char_traits@D@std@@V?$allocator@D@2@@2@XZ 00000001400054b0 f i animatedMesh.obj
 0001:00004500       ?do_falsename@?$numpunct@D@std@@MEBA?AV?$basic_string@DU?$char_traits@D@std@@V?$allocator@D@2@@2@XZ 0000000140005500 f i animatedMesh.obj
 0001:00004550       ?do_grouping@?$numpunct@D@std@@MEBA?AV?$basic_string@DU?$char_traits@D@std@@V?$allocator@D@2@@2@XZ 0000000140005550 f i animatedMesh.obj
 0001:000045a0       ?do_thousands_sep@?$numpunct@D@std@@MEBADXZ 00000001400055a0 f i animatedMesh.obj
 0001:000045b0       ?do_decimal_point@?$numpunct@D@std@@MEBADXZ 00000001400055b0 f i animatedMesh.obj
 0001:000045c0       ?_Iput@?$num_put@DV?$ostreambuf_iterator@DU?$char_traits@D@std@@@std@@@std@@AEBA?AV?$ostreambuf_iterator@DU?$char_traits@D@std@@@2@V32@AEAVios_base@2@DPEAD_K@Z 00000001400055c0 f i animatedMesh.obj
 0001:00004c20       ?_Fput@?$num_put@DV?$ostreambuf_iterator@DU?$char_traits@D@std@@@std@@@std@@AEBA?AV?$ostreambuf_iterator@DU?$char_traits@D@std@@@2@V32@AEAVios_base@2@DPEBD_K@Z 0000000140005c20 f i animatedMesh.obj
 0001:000052f0       ??1_Sentry_base@?$basic_istream@DU?$char_traits@D@std@@@std@@QEAA@XZ 00000001400062f0 f i obj_loader.obj
 0001:000052f0       ??1_Sentry_base@?$basic_ostream@DU?$char_traits@D@std@@@std@@QEAA@XZ 00000001400062f0 f i animatedMesh.obj
 0001:00005320       ?flush@?$basic_ostream@DU?$char_traits@D@std@@@std@@QEAAAEAV12@XZ 0000000140006320 f i animatedMesh.obj
 0001:000053e0       ?_Osfx@?$basic_ostream@DU?$char_traits@D@std@@@std@@QEAAXXZ 00000001400063e0 f i animatedMesh.obj
 0001:00005430       ?_Change_array@?$vector@VIndexedModel@@V?$allocator@VIndexedModel@@@std@@@std@@AEAAXQEAVIndexedModel@@_K1@Z 0000000140006430 f i animatedMesh.obj
 0001:00005510       ?_Destroy@?$vector@VIndexedModel@@V?$allocator@VIndexedModel@@@std@@@std@@AEAAXPEAVIndexedModel@@0@Z 0000000140006510 f i animatedMesh.obj
 0001:00005550       ?deallocate@?$allocator@VIndexedModel@@@std@@QEAAXQEAVIndexedModel@@_K@Z 0000000140006550 f i animatedMesh.obj
 0001:00005590       ?_Change_array@?$vector@IV?$allocator@I@std@@@std@@AEAAXQEAI_K1@Z 0000000140006590 f i animatedMesh.obj
 0001:00005620       ?allocate@?$allocator@I@std@@QEAAPEAI_K@Z 0000000140006620 f i animatedMesh.obj
 0001:00005690       ?_Change_array@?$vector@U?$vec@$01M$0A@@glm@@V?$allocator@U?$vec@$01M$0A@@glm@@@std@@@std@@AEAAXQEAU?$vec@$01M$0A@@glm@@_K1@Z 0000000140006690 f i animatedMesh.obj
 0001:00005720       ?allocate@?$allocator@U?$vec@$01M$0A@@glm@@@std@@QEAAPEAU?$vec@$01M$0A@@glm@@_K@Z 0000000140006720 f i animatedMesh.obj
 0001:00005790       ?_Change_array@?$vector@U?$vec@$02M$0A@@glm@@V?$allocator@U?$vec@$02M$0A@@glm@@@std@@@std@@AEAAXQEAU?$vec@$02M$0A@@glm@@_K1@Z 0000000140006790 f i animatedMesh.obj
 0001:00005840       ?allocate@?$allocator@U?$vec@$02M$0A@@glm@@@std@@QEAAPEAU?$vec@$02M$0A@@glm@@_K@Z 0000000140006840 f i animatedMesh.obj
 0001:000058c0       ??_E?$numpunct@D@std@@MEAAPEAXI@Z 00000001400068c0 f i * CIL library *:* CIL module *
 0001:000058c0       ??_G?$numpunct@D@std@@MEAAPEAXI@Z 00000001400068c0 f i animatedMesh.obj
 0001:00005920       ??4?$basic_string@DU?$char_traits@D@std@@V?$allocator@D@2@@std@@QEAAAEAV01@$$QEAV01@@Z 0000000140006920 f i animatedMesh.obj
 0001:000059b0       ?_Pnavail@?$basic_streambuf@DU?$char_traits@D@std@@@std@@IEBA_JXZ 00000001400069b0 f i animatedMesh.obj
 0001:000059d0       ?_Xran@?$_String_val@U?$_Simple_types@_W@std@@@std@@SAXXZ 00000001400069d0 f i world.obj
 0001:000059d0       ?_Xran@?$_String_val@U?$_Simple_types@D@std@@@std@@SAXXZ 00000001400069d0 f i animatedMesh.obj
 0001:000059f0       ??$use_facet@V?$ctype@D@std@@@std@@YAAEBV?$ctype@D@0@AEBVlocale@0@@Z 00000001400069f0 f i animatedMesh.obj
 0001:00005b30       ??$?6U?$char_traits@D@std@@@std@@YAAEAV?$basic_ostream@DU?$char_traits@D@std@@@0@AEAV10@PEBD@Z 0000000140006b30 f i animatedMesh.obj
 0001:00005da0       ??$endl@DU?$char_traits@D@std@@@std@@YAAEAV?$basic_ostream@DU?$char_traits@D@std@@@0@AEAV10@@Z 0000000140006da0 f i animatedMesh.obj
 0001:00005e30       ??$use_facet@V?$num_put@DV?$ostreambuf_iterator@DU?$char_traits@D@std@@@std@@@std@@@std@@YAAEBV?$num_put@DV?$ostreambuf_iterator@DU?$char_traits@D@std@@@std@@@0@AEBVlocale@0@@Z 0000000140006e30 f i animatedMesh.obj
 0001:00005f70       ??$_Emplace_reallocate@VVertex@@@?$vector@VVertex@@V?$allocator@VVertex@@@std@@@std@@QEAAPEAVVertex@@QEAV2@$$QEAV2@@Z 0000000140006f70 f i animatedMesh.obj
 0001:00006170       ??$_Emplace_reallocate@AEBVIndexedModel@@@?$vector@VIndexedModel@@V?$allocator@VIndexedModel@@@std@@@std@@QEAAPEAVIndexedModel@@QEAV2@AEBV2@@Z 0000000140007170 f i animatedMesh.obj
 0001:00006370       ??$_Emplace_reallocate@AEBI@?$vector@IV?$allocator@I@std@@@std@@QEAAPEAIQEAIAEBI@Z 0000000140007370 f i animatedMesh.obj
 0001:00006460       ??$_Emplace_reallocate@U?$vec@$01M$0A@@glm@@@?$vector@U?$vec@$01M$0A@@glm@@V?$allocator@U?$vec@$01M$0A@@glm@@@std@@@std@@QEAAPEAU?$vec@$01M$0A@@glm@@QEAU23@$$QEAU23@@Z 0000000140007460 f i animatedMesh.obj
 0001:00006460       ??$_Emplace_reallocate@AEBU?$vec@$01M$0A@@glm@@@?$vector@U?$vec@$01M$0A@@glm@@V?$allocator@U?$vec@$01M$0A@@glm@@@std@@@std@@QEAAPEAU?$vec@$01M$0A@@glm@@QEAU23@AEBU23@@Z 0000000140007460 f i animatedMesh.obj
 0001:00006550       ??$_Emplace_reallocate@AEBU?$vec@$02M$0A@@glm@@@?$vector@U?$vec@$02M$0A@@glm@@V?$allocator@U?$vec@$02M$0A@@glm@@@std@@@std@@QEAAPEAU?$vec@$02M$0A@@glm@@QEAU23@AEBU23@@Z 0000000140007550 f i animatedMesh.obj
 0001:00006550       ??$_Emplace_reallocate@U?$vec@$02M$0A@@glm@@@?$vector@U?$vec@$02M$0A@@glm@@V?$allocator@U?$vec@$02M$0A@@glm@@@std@@@std@@QEAAPEAU?$vec@$02M$0A@@glm@@QEAU23@$$QEAU23@@Z 0000000140007550 f i AssimpConverter.obj
 0001:000066a0       ??$use_facet@V?$numpunct@D@std@@@std@@YAAEBV?$numpunct@D@0@AEBVlocale@0@@Z 00000001400076a0 f i animatedMesh.obj
 0001:000067e0       ??$_Reallocate_grow_by@V<lambda_e1befb086ad3257e3f042a63030725f7>@@_KD@?$basic_string@DU?$char_traits@D@std@@V?$allocator@D@2@@std@@AEAAAEAV01@_KV<lambda_e1befb086ad3257e3f042a63030725f7>@@_KD@Z 00000001400077e0 f i animatedMesh.obj
 0001:00006980       ??$_Reallocate_grow_by@V<lambda_65e615be2a453ca0576c979606f46740>@@PEBD_K@?$basic_string@DU?$char_traits@D@std@@V?$allocator@D@2@@std@@AEAAAEAV01@_KV<lambda_65e615be2a453ca0576c979606f46740>@@PEBD_K@Z 0000000140007980 f i animatedMesh.obj
 0001:00006b10       ??$_Deallocate@$0BA@$0A@@std@@YAXPEAX_K@Z 0000000140007b10 f i animatedMesh.obj
 0001:00006b50       ??$_Reallocate_grow_by@V<lambda_b986da8d428e4af07c64af60eec09b61>@@_K_KD@?$basic_string@DU?$char_traits@D@std@@V?$allocator@D@2@@std@@AEAAAEAV01@_KV<lambda_b986da8d428e4af07c64af60eec09b61>@@_K2D@Z 0000000140007b50 f i animatedMesh.obj
 0001:00006d10       ??0IndexedModel@@QEAA@AEBV0@@Z 0000000140007d10 f i animatedMesh.obj
 0001:00006ea0       ??1?$unique_ptr@V_Facet_base@std@@U?$default_delete@V_Facet_base@std@@@2@@std@@QEAA@XZ 0000000140007ea0 f i animatedMesh.obj
 0001:00006ea0       ??1?$unique_ptr@U_TaskProcHandle@details@Concurrency@@U?$default_delete@U_TaskProcHandle@details@Concurrency@@@std@@@std@@QEAA@XZ 0000000140007ea0 f i world.obj
 0001:00006ec0       ?_Getcat@?$numpunct@D@std@@SA_KPEAPEBVfacet@locale@2@PEBV42@@Z 0000000140007ec0 f i animatedMesh.obj
 0001:000070d0       ?_Getcat@?$num_put@DV?$ostreambuf_iterator@DU?$char_traits@D@std@@@std@@@std@@SA_KPEAPEBVfacet@locale@2@PEBV42@@Z 00000001400080d0 f i animatedMesh.obj
 0001:00007250       ?put@?$basic_ostream@DU?$char_traits@D@std@@@std@@QEAAAEAV12@D@Z 0000000140008250 f i animatedMesh.obj
 0001:000073a0       ??0?$vector@U?$vec@$02M$0A@@glm@@V?$allocator@U?$vec@$02M$0A@@glm@@@std@@@std@@QEAA@AEBV01@@Z 00000001400083a0 f i animatedMesh.obj
 0001:00007450       ?_Xlen@?$basic_string@_WU?$char_traits@_W@std@@V?$allocator@_W@2@@std@@CAXXZ 0000000140008450 f i main.obj
 0001:00007450       ?_Xlen@?$basic_string@DU?$char_traits@D@std@@V?$allocator@D@2@@std@@CAXXZ 0000000140008450 f i animatedMesh.obj
 0001:00007470       ??1?$_Tidy_guard@V?$numpunct@D@std@@@std@@QEAA@XZ 0000000140008470 f i animatedMesh.obj
 0001:000074b0       ??$_Maklocstr@D@std@@YAPEADPEBDPEADAEBU_Cvtvec@@@Z 00000001400084b0 f i animatedMesh.obj
 0001:00007520       ??$_Immortalize_impl@V_Iostream_error_category@std@@@std@@YAHPEAX0PEAPEAX@Z 0000000140008520 f i animatedMesh.obj
 0001:00007540       ??$_Insert_string@DU?$char_traits@D@std@@_K@std@@YAAEAV?$basic_ostream@DU?$char_traits@D@std@@@0@AEAV10@QEBD_K@Z 0000000140008540 f i animatedMesh.obj
 0001:000077a0       ??$_Allocate_manually_vector_aligned@U_Default_allocate_traits@std@@@std@@YAPEAX_K@Z 00000001400087a0 f i animatedMesh.obj
 0001:000077e0       ??0IndexedModel@@QEAA@$$QEAV0@@Z 00000001400087e0 f i animatedMesh.obj
 0001:000078d0       ?HasTextureCoords@aiMesh@@QEBA_NI@Z 00000001400088d0 f i AssimpConverter.obj
 0001:000081d0       ?AddAnimations@AssimpConverter@@YAXPEBUaiScene@@AEAVSkeletalModel@SA@@@Z 00000001400091d0 f   AssimpConverter.obj
 0001:000084d0       ??1sNodeAnimation@SA@@QEAA@XZ 00000001400094d0 f i AssimpConverter.obj
 0001:00008590       ??0?$vector@U?$sNodeAnimationKey@U?$qua@M$0A@@glm@@@SA@@V?$allocator@U?$sNodeAnimationKey@U?$qua@M$0A@@glm@@@SA@@@std@@@std@@QEAA@AEBV01@@Z 0000000140009590 f i AssimpConverter.obj
 0001:00008640       ??1?$vector@U?$sNodeAnimationKey@U?$vec@$02M$0A@@glm@@@SA@@V?$allocator@U?$sNodeAnimationKey@U?$vec@$02M$0A@@glm@@@SA@@@std@@@std@@QEAA@XZ 0000000140009640 f i AssimpConverter.obj
 0001:000086a0       ??0?$vector@U?$sNodeAnimationKey@U?$vec@$02M$0A@@glm@@@SA@@V?$allocator@U?$sNodeAnimationKey@U?$vec@$02M$0A@@glm@@@SA@@@std@@@std@@QEAA@AEBV01@@Z 00000001400096a0 f i AssimpConverter.obj
 0001:00008770       ?_Tidy@?$vector@U?$sNodeAnimationKey@U?$qua@M$0A@@glm@@@SA@@V?$allocator@U?$sNodeAnimationKey@U?$qua@M$0A@@glm@@@SA@@@std@@@std@@AEAAXXZ 0000000140009770 f i AssimpConverter.obj
 0001:000087f0       ?allocate@?$allocator@U?$sNodeAnimationKey@U?$qua@M$0A@@glm@@@SA@@@std@@QEAAPEAU?$sNodeAnimationKey@U?$qua@M$0A@@glm@@@SA@@_K@Z 00000001400097f0 f i AssimpConverter.obj
 0001:00008870       ??$_Emplace_reallocate@AEBUsAnimatedMesh@SA@@@?$vector@UsAnimatedMesh@SA@@V?$allocator@UsAnimatedMesh@SA@@@std@@@std@@QEAAPEAUsAnimatedMesh@SA@@QEAU23@AEBU23@@Z 0000000140009870 f i AssimpConverter.obj
 0001:00008ad0       ??$_Emplace_reallocate@AEBUsNodeAnimation@SA@@@?$vector@UsNodeAnimation@SA@@V?$allocator@UsNodeAnimation@SA@@@std@@@std@@QEAAPEAUsNodeAnimation@SA@@QEAU23@AEBU23@@Z 0000000140009ad0 f i AssimpConverter.obj
 0001:00008d20       ??$_Emplace_reallocate@AEBU?$sNodeAnimationKey@U?$qua@M$0A@@glm@@@SA@@@?$vector@U?$sNodeAnimationKey@U?$qua@M$0A@@glm@@@SA@@V?$allocator@U?$sNodeAnimationKey@U?$qua@M$0A@@glm@@@SA@@@std@@@std@@QEAAPEAU?$sNodeAnimationKey@U?$qua@M$0A@@glm@@@SA@@QEAU23@AEBU23@@Z 0000000140009d20 f i AssimpConverter.obj
 0001:00008ee0       ??$_Emplace_reallocate@AEBU?$sNodeAnimationKey@U?$vec@$02M$0A@@glm@@@SA@@@?$vector@U?$sNodeAnimationKey@U?$vec@$02M$0A@@glm@@@SA@@V?$allocator@U?$sNodeAnimationKey@U?$vec@$02M$0A@@glm@@@SA@@@std@@@std@@QEAAPEAU?$sNodeAnimationKey@U?$vec@$02M$0A@@glm@@@SA@@QEAU23@AEBU23@@Z 0000000140009ee0 f i AssimpConverter.obj
 0001:00009080       ??$construct@UsBone@SA@@AEBU12@@?$_Default_allocator_traits@V?$allocator@UsBone@SA@@@std@@@std@@SAXAEAV?$allocator@UsBone@SA@@@1@QEAUsBone@SA@@AEBU34@@Z 000000014000a080 f i AssimpConverter.obj
 0001:00009160       ??$_Emplace_reallocate@AEBUsBone@SA@@@?$vector@UsBone@SA@@V?$allocator@UsBone@SA@@@std@@@std@@QEAAPEAUsBone@SA@@QEAU23@AEBU23@@Z 000000014000a160 f i AssimpConverter.obj
 0001:00009310       ?call@?$compute_inverse@$03$03M$0A@$0A@@detail@glm@@SA?AU?$mat@$03$03M$0A@@3@AEBU43@@Z 000000014000a310 f i AssimpConverter.obj
 0001:00009a00       ?_Destroy@?$vector@UsAnimatedMesh@SA@@V?$allocator@UsAnimatedMesh@SA@@@std@@@std@@AEAAXPEAUsAnimatedMesh@SA@@0@Z 000000014000aa00 f i AssimpConverter.obj
 0001:00009a40       ?deallocate@?$allocator@UsAnimatedMesh@SA@@@std@@QEAAXQEAUsAnimatedMesh@SA@@_K@Z 000000014000aa40 f i AssimpConverter.obj
 0001:00009a40       ?deallocate@?$allocator@UsNodeAnimation@SA@@@std@@QEAAXQEAUsNodeAnimation@SA@@_K@Z 000000014000aa40 f i AssimpConverter.obj
 0001:00009a90       ?_Destroy@?$vector@UsNodeAnimation@SA@@V?$allocator@UsNodeAnimation@SA@@@std@@@std@@AEAAXPEAUsNodeAnimation@SA@@0@Z 000000014000aa90 f i AssimpConverter.obj
 0001:00009ad0       ?_Destroy@?$vector@UsBone@SA@@V?$allocator@UsBone@SA@@@std@@@std@@AEAAXPEAUsBone@SA@@0@Z 000000014000aad0 f i AssimpConverter.obj
 0001:00009ae0       ?deallocate@?$allocator@UsBone@SA@@@std@@QEAAXQEAUsBone@SA@@_K@Z 000000014000aae0 f i AssimpConverter.obj
 0001:00009b30       ??$_Uninitialized_move@PEAUsAnimatedMesh@SA@@V?$allocator@UsAnimatedMesh@SA@@@std@@@std@@YAPEAUsAnimatedMesh@SA@@QEAU12@0PEAU12@AEAV?$allocator@UsAnimatedMesh@SA@@@0@@Z 000000014000ab30 f i AssimpConverter.obj
 0001:00009be0       ??$_Uninitialized_move@PEAUsNodeAnimation@SA@@V?$allocator@UsNodeAnimation@SA@@@std@@@std@@YAPEAUsNodeAnimation@SA@@QEAU12@0PEAU12@AEAV?$allocator@UsNodeAnimation@SA@@@0@@Z 000000014000abe0 f i AssimpConverter.obj
 0001:00009cc0       ??$_Destroy_range@V?$allocator@UsBone@SA@@@std@@@std@@YAXPEAUsBone@SA@@QEAU12@AEAV?$allocator@UsBone@SA@@@0@@Z 000000014000acc0 f i AssimpConverter.obj
 0001:00009d50       ??$_Uninitialized_move@PEAUsBone@SA@@V?$allocator@UsBone@SA@@@std@@@std@@YAPEAUsBone@SA@@QEAU12@0PEAU12@AEAV?$allocator@UsBone@SA@@@0@@Z 000000014000ad50 f i AssimpConverter.obj
 0001:00009eb0       fprintf                    000000014000aeb0 f i audio.obj
 0001:0000a040       ??_EDisplay@@UEAAPEAXI@Z   000000014000b040 f i * CIL library *:* CIL module *
 0001:0000a040       ??_GDisplay@@UEAAPEAXI@Z   000000014000b040 f i display.obj
 0001:0000a0a0       ??1Display@@UEAA@XZ        000000014000b0a0 f   display.obj
 0001:0000a0e0       ??0logic_error@std@@QEAA@PEBD@Z 000000014000b0e0 f i EntityAPI.obj
 0001:0000a150       ?_Throw_tree_length_error@std@@YAXXZ 000000014000b150 f i EntityAPI.obj
 0001:0000a170       ??_GMesh@@UEAAPEAXI@Z      000000014000b170 f i EntityAPI.obj
 0001:0000a170       ??_EMesh@@UEAAPEAXI@Z      000000014000b170 f i * CIL library *:* CIL module *
 0001:0000a1c0       ?Pitch@Camera@@QEAAXM@Z    000000014000b1c0 f i EntityAPI.obj
 0001:0000a4a0       ??0Object@@QEAA@XZ         000000014000b4a0 f i EntityAPI.obj
 0001:0000a6e0       ??1?$TypeListValues@U?$TypeList@V?$basic_string@DU?$char_traits@D@std@@V?$allocator@D@2@@std@@U?$TypeList@V?$basic_string@DU?$char_traits@D@std@@V?$allocator@D@2@@std@@U?$TypeList@MU?$TypeList@MX@luabridge@@@luabridge@@@luabridge@@@luabridge@@@luabridge@@QEAA@XZ 000000014000b6e0 f i main.obj
 0001:0000a6e0       ??1?$pair@$$CBV?$basic_string@DU?$char_traits@D@std@@V?$allocator@D@2@@std@@V12@@std@@QEAA@XZ 000000014000b6e0 f i main.obj
 0001:0000a6e0       ??1Data@@QEAA@XZ           000000014000b6e0 f i EntityAPI.obj
 0001:0000a6e0       ??1?$TypeListValues@U?$TypeList@V?$basic_string@DU?$char_traits@D@std@@V?$allocator@D@2@@std@@U?$TypeList@V?$basic_string@DU?$char_traits@D@std@@V?$allocator@D@2@@std@@X@luabridge@@@luabridge@@@luabridge@@QEAA@XZ 000000014000b6e0 f i main.obj
 0001:0000a6e0       ??1entitySpawnData@@QEAA@XZ 000000014000b6e0 f i main.obj
 0001:0000a790       ??1font_data@glfreetype@@QEAA@XZ 000000014000b790 f i EntityAPI.obj
 0001:0000a7f0       ??0logic_error@std@@QEAA@AEBV01@@Z 000000014000b7f0 f i EntityAPI.obj
 0001:0000a830       ??_EUserdata@luabridge@@UEAAPEAXI@Z 000000014000b830 f i * CIL library *:* CIL module *
 0001:0000a830       ??_EUserdataPtr@luabridge@@UEAAPEAXI@Z 000000014000b830 f i * CIL library *:* CIL module *
 0001:0000a830       ??_GUserdata@luabridge@@UEAAPEAXI@Z 000000014000b830 f i EntityAPI.obj
 0001:0000a830       ??_GUserdataPtr@luabridge@@UEAAPEAXI@Z 000000014000b830 f i EntityAPI.obj
 0001:0000a860       ??0LuaException@luabridge@@QEAA@PEAUlua_State@@H@Z 000000014000b860 f i EntityAPI.obj
 0001:0000a910       ??1LuaException@luabridge@@UEAA@XZ 000000014000b910 f i EntityAPI.obj
 0001:0000a990       ?what@LuaException@luabridge@@UEBAPEBDXZ 000000014000b990 f i EntityAPI.obj
 0001:0000a9a0       ??_ELuaException@luabridge@@UEAAPEAXI@Z 000000014000b9a0 f i * CIL library *:* CIL module *
 0001:0000a9a0       ??_GLuaException@luabridge@@UEAAPEAXI@Z 000000014000b9a0 f i EntityAPI.obj
 0001:0000a9e0       ??0LuaException@luabridge@@QEAA@AEBV01@@Z 000000014000b9e0 f i EntityAPI.obj
 0001:0000aa50       ??1LuaRef@luabridge@@QEAA@XZ 000000014000ba50 f i EntityAPI.obj
 0001:0000aa70       ??1Object@@QEAA@XZ         000000014000ba70 f i EntityAPI.obj
 0001:0000ab40       ?setText@GUIComponent@@QEAAXV?$basic_string@DU?$char_traits@D@std@@V?$allocator@D@2@@std@@0U?$vec@$01M$0A@@glm@@U?$vec@$03M$0A@@5@@Z 000000014000bb40 f i EntityAPI.obj
 0001:0000ada0       ??1TextData@@QEAA@XZ       000000014000bda0 f i EntityAPI.obj
 0001:0000ae50       ?Fire@ProjectileComponent@@QEAA_NU?$vec@$01M$0A@@glm@@U?$vec@$02M$0A@@3@@Z 000000014000be50 f i EntityAPI.obj
 0001:0000b080       ?FireMultiple@ProjectileComponent@@QEAA_NU?$vec@$01M$0A@@glm@@U?$vec@$02M$0A@@3@H@Z 000000014000c080 f i EntityAPI.obj
 0001:0000b3d0       ?Hit@Entity@@QEAAXHPEAV1@@Z 000000014000c3d0 f i EntityAPI.obj
 0001:0000b5b0       ?getForward@Entity@@QEAA?AU?$vec@$02M$0A@@glm@@XZ 000000014000c5b0 f i EntityAPI.obj
 0001:0000b720       ?lookAtNearest@Entity@@QEAAMV?$basic_string@DU?$char_traits@D@std@@V?$allocator@D@2@@std@@@Z 000000014000c720 f   EntityAPI.obj
 0001:0000b920       ?doesEntityExist@Entity@@QEAA_NV?$basic_string@DU?$char_traits@D@std@@V?$allocator@D@2@@std@@@Z 000000014000c920 f   EntityAPI.obj
 0001:0000ba90       ?setInverted@Entity@@QEAAXH@Z 000000014000ca90 f   EntityAPI.obj
 0001:0000baa0       ?getDistanceFromNearest@Entity@@QEAAMV?$basic_string@DU?$char_traits@D@std@@V?$allocator@D@2@@std@@@Z 000000014000caa0 f   EntityAPI.obj
 0001:0000bc00       ?getTypeLua@Entity@@QEAA?AV?$basic_string@DU?$char_traits@D@std@@V?$allocator@D@2@@std@@XZ 000000014000cc00 f   EntityAPI.obj
 0001:0000bc30       ?getDistanceFromNearestNot@Entity@@QEAAMV?$basic_string@DU?$char_traits@D@std@@V?$allocator@D@2@@std@@@Z 000000014000cc30 f   EntityAPI.obj
 0001:0000bd90       ?getDistanceFromNearestEnt@Entity@@QEAAMXZ 000000014000cd90 f   EntityAPI.obj
 0001:0000bed0       ?setDamageAnimation@Entity@@QEAAXH@Z 000000014000ced0 f   EntityAPI.obj
 0001:0000bee0       ?restartCollisionBox@Entity@@QEAAXXZ 000000014000cee0 f   EntityAPI.obj
 0001:0000c110       ?pushInsideLevel@Entity@@QEAAXXZ 000000014000d110 f   EntityAPI.obj
 0001:0000c180       ?getPositionFromNearestX@Entity@@QEAAMV?$basic_string@DU?$char_traits@D@std@@V?$allocator@D@2@@std@@@Z 000000014000d180 f   EntityAPI.obj
 0001:0000c300       ?getPositionFromNearestY@Entity@@QEAAMV?$basic_string@DU?$char_traits@D@std@@V?$allocator@D@2@@std@@@Z 000000014000d300 f   EntityAPI.obj
 0001:0000c480       ?Shake@Entity@@QEAAXM@Z    000000014000d480 f   EntityAPI.obj
 0001:0000c4b0       ?isFirstPerson@Entity@@QEAAX_N@Z 000000014000d4b0 f   EntityAPI.obj
 0001:0000c4d0       ?setFOV@Entity@@QEAAXM@Z   000000014000d4d0 f   EntityAPI.obj
 0001:0000c5d0       ?getAnimFrame@Entity@@QEAAHXZ 000000014000d5d0 f   EntityAPI.obj
 0001:0000c5f0       ?playDamageAnimation@Entity@@QEAAXXZ 000000014000d5f0 f   EntityAPI.obj
 0001:0000c630       ?playAnimation@Entity@@QEAAXH@Z 000000014000d630 f   EntityAPI.obj
 0001:0000c670       ?spawnEntity@Entity@@QEAAXV?$basic_string@DU?$char_traits@D@std@@V?$allocator@D@2@@std@@MM@Z 000000014000d670 f   EntityAPI.obj
 0001:0000c860       ??1SpawnData@@QEAA@XZ      000000014000d860 f i EntityAPI.obj
 0001:0000c8c0       ?killProgram@Entity@@QEAAXXZ 000000014000d8c0 f   EntityAPI.obj
 0001:0000c8c0       ?stopProgram@Entity@@QEAAXXZ 000000014000d8c0 f   EntityAPI.obj
 0001:0000c8d0       ?kill@Entity@@QEAAXXZ      000000014000d8d0 f   EntityAPI.obj
 0001:0000c970       ?getPlayerDistance@Entity@@QEAAMXZ 000000014000d970 f   EntityAPI.obj
 0001:0000c9b0       ?write@Entity@@QEAAXAEBV?$basic_string@DU?$char_traits@D@std@@V?$allocator@D@2@@std@@@Z 000000014000d9b0 f   EntityAPI.obj
 0001:0000c9e0       ?setScale@Entity@@QEAAXM@Z 000000014000d9e0 f   EntityAPI.obj
 0001:0000c9f0       ?random@Entity@@QEAAMMM@Z  000000014000d9f0 f   EntityAPI.obj
 0001:0000ca40       ?randomInt@Entity@@QEAAHHH@Z 000000014000da40 f   EntityAPI.obj
 0001:0000ca90       ?lookAtPlayer@Entity@@QEAAXXZ 000000014000da90 f   EntityAPI.obj
 0001:0000cb20       ?copyPlayerRot@Entity@@QEAAXXZ 000000014000db20 f   EntityAPI.obj
 0001:0000cc10       ?lookAt@Entity@@QEAAXMM@Z  000000014000dc10 f   EntityAPI.obj
 0001:0000ccb0       ?Strafe@Entity@@QEAAXM@Z   000000014000dcb0 f   EntityAPI.obj
 0001:0000cd20       ?moveForward@Entity@@QEAAXM@Z 000000014000dd20 f   EntityAPI.obj
 0001:0000cdc0       ?moveBackward@Entity@@QEAAXM@Z 000000014000ddc0 f   EntityAPI.obj
 0001:0000ce70       ?setAnimation@Entity@@QEAAXH@Z 000000014000de70 f   EntityAPI.obj
 0001:0000ce90       ?getAnimation@Entity@@QEAAHXZ 000000014000de90 f   EntityAPI.obj
 0001:0000ceb0       ?setPos@Entity@@QEAAXMMM@Z 000000014000deb0 f   EntityAPI.obj
 0001:0000cf50       ?getX@Entity@@QEAAMXZ      000000014000df50 f   EntityAPI.obj
 0001:0000cf60       ?getY@Entity@@QEAAMXZ      000000014000df60 f   EntityAPI.obj
 0001:0000cf70       ?getZ@Entity@@QEAAMXZ      000000014000df70 f   EntityAPI.obj
 0001:0000cf80       ?setColorFlash@Entity@@QEAAXMMMM@Z 000000014000df80 f   EntityAPI.obj
 0001:0000d090       ?setColor@Entity@@QEAAXMMMM@Z 000000014000e090 f   EntityAPI.obj
 0001:0000d1a0       ?isPlayer@Entity@@QEAA_NXZ 000000014000e1a0 f   EntityAPI.obj
 0001:0000d1e0       ?getKeyDirectionX@Entity@@QEAAMXZ 000000014000e1e0 f   EntityAPI.obj
 0001:0000d230       ?getKeyDirectionY@Entity@@QEAAMXZ 000000014000e230 f   EntityAPI.obj
 0001:0000d280       ?getKeyPressed@Entity@@QEAA?AV?$basic_string@DU?$char_traits@D@std@@V?$allocator@D@2@@std@@XZ 000000014000e280 f   EntityAPI.obj
 0001:0000d2a0       ?TopDownUpdate@Entity@@QEAAXXZ 000000014000e2a0 f   EntityAPI.obj
 0001:0000d3a0       ?FPSControllerUpdate@Entity@@QEAAXM@Z 000000014000e3a0 f   EntityAPI.obj
 0001:0000da40       ?UpdateKeyPresses@Entity@@QEAAXXZ 000000014000ea40 f   EntityAPI.obj
 0001:0000dcc0       ?getHP@Entity@@QEAAMXZ     000000014000ecc0 f   EntityAPI.obj
 0001:0000dcd0       ?setHP@Entity@@QEAAXM@Z    000000014000ecd0 f   EntityAPI.obj
 0001:0000dd10       ?addCounter@Entity@@QEAAXH@Z 000000014000ed10 f   EntityAPI.obj
 0001:0000dd50       ?updateCounter@Entity@@QEAA_NHH@Z 000000014000ed50 f   EntityAPI.obj
 0001:0000dd80       ?getCount@Entity@@QEAAHXZ  000000014000ed80 f   EntityAPI.obj
 0001:0000dd90       ?setCount@Entity@@QEAAXH@Z 000000014000ed90 f   EntityAPI.obj
 0001:0000dda0       ?FireInstant@Entity@@QEAAXXZ 000000014000eda0 f   EntityAPI.obj
 0001:0000de20       ?FireMultiple@Entity@@QEAAXH@Z 000000014000ee20 f   EntityAPI.obj
 0001:0000dea0       ?Fire@Entity@@QEAA_NXZ     000000014000eea0 f   EntityAPI.obj
 0001:0000df80       ?setGlobalFrozen@Entity@@QEAAX_N@Z 000000014000ef80 f   EntityAPI.obj
 0001:0000df90       ?getNearestEntWithName@Entity@@QEAAPEAV1@V?$basic_string@DU?$char_traits@D@std@@V?$allocator@D@2@@std@@@Z 000000014000ef90 f   EntityAPI.obj
 0001:0000e190       ?getGlobalFrozen@Entity@@QEAA_NXZ 000000014000f190 f   EntityAPI.obj
 0001:0000e1a0       ?setFrozen@Entity@@QEAAX_N@Z 000000014000f1a0 f   EntityAPI.obj
 0001:0000e1b0       ?getFrozen@Entity@@QEAA_NXZ 000000014000f1b0 f   EntityAPI.obj
 0001:0000e1c0       ?setAnimationTag@Entity@@QEAAXV?$basic_string@DU?$char_traits@D@std@@V?$allocator@D@2@@std@@H@Z 000000014000f1c0 f   EntityAPI.obj
 0001:0000e2f0       ?playAnimationTag@Entity@@QEAAXV?$basic_string@DU?$char_traits@D@std@@V?$allocator@D@2@@std@@@Z 000000014000f2f0 f   EntityAPI.obj
 0001:0000e430       ?resetFrame@Entity@@QEAAXXZ 000000014000f430 f   EntityAPI.obj
 0001:0000e450       ?isAnimationPlaying@Entity@@QEAA_NV?$basic_string@DU?$char_traits@D@std@@V?$allocator@D@2@@std@@@Z 000000014000f450 f   EntityAPI.obj
 0001:0000e5d0       ?getLastX@Entity@@QEAAMXZ  000000014000f5d0 f   EntityAPI.obj
 0001:0000e5e0       ?getLastY@Entity@@QEAAMXZ  000000014000f5e0 f   EntityAPI.obj
 0001:0000e5f0       ?getLastZ@Entity@@QEAAMXZ  000000014000f5f0 f   EntityAPI.obj
 0001:0000e600       ?getDistanceBetweenTwoPointsAPI@Entity@@QEAAMMMMM@Z 000000014000f600 f   EntityAPI.obj
 0001:0000e620       ?setCollisionBox@Entity@@QEAAXMMM@Z 000000014000f620 f   EntityAPI.obj
 0001:0000e6a0       ?Delay@Entity@@QEAAXH@Z    000000014000f6a0 f   EntityAPI.obj
 0001:0000e6b0       ?setUIText@Entity@@QEAAXV?$basic_string@DU?$char_traits@D@std@@V?$allocator@D@2@@std@@@Z 000000014000f6b0 f   EntityAPI.obj
 0001:0000e770       ?getNearestEntity@Entity@@QEAAPEAV1@XZ 000000014000f770 f   EntityAPI.obj
 0001:0000e8a0       ?damageNearest@Entity@@QEAAXH@Z 000000014000f8a0 f   EntityAPI.obj
 0001:0000e9c0       ?damageNearestEnt@Entity@@QEAAXV?$basic_string@DU?$char_traits@D@std@@V?$allocator@D@2@@std@@H@Z 000000014000f9c0 f   EntityAPI.obj
 0001:0000eb40       ?playSound@Entity@@QEAAXV?$basic_string@DU?$char_traits@D@std@@V?$allocator@D@2@@std@@@Z 000000014000fb40 f   EntityAPI.obj
 0001:0000ec90       ?setBrightness@Entity@@QEAAXM@Z 000000014000fc90 f   EntityAPI.obj
 0001:0000eca0       ?getProjCount@Entity@@QEAAMXZ 000000014000fca0 f   EntityAPI.obj
 0001:0000ecc0       ?setProjCount@Entity@@QEAAXM@Z 000000014000fcc0 f   EntityAPI.obj
 0001:0000ece0       ?Emit@Entity@@QEAAXHMMMM@Z 000000014000fce0 f   EntityAPI.obj
 0001:0000ef40       ?setRot@Entity@@QEAAXMMM@Z 000000014000ff40 f   EntityAPI.obj
 0001:0000ef70       ?setPlayerTag@Entity@@QEAAXV?$basic_string@DU?$char_traits@D@std@@V?$allocator@D@2@@std@@@Z 000000014000ff70 f   EntityAPI.obj
 0001:0000f010       ?getPlayerTag@Entity@@QEAA?AV?$basic_string@DU?$char_traits@D@std@@V?$allocator@D@2@@std@@XZ 0000000140010010 f   EntityAPI.obj
 0001:0000f040       ?setHue@Entity@@QEAAXM@Z   0000000140010040 f   EntityAPI.obj
 0001:0000f050       ?setSaturation@Entity@@QEAAXM@Z 0000000140010050 f   EntityAPI.obj
 0001:0000f060       ?setValue@Entity@@QEAAXM@Z 0000000140010060 f   EntityAPI.obj
 0001:0000f070       ?setParticleSpread@Entity@@QEAAXM@Z 0000000140010070 f   EntityAPI.obj
 0001:0000f080       ?setParticleModel@Entity@@QEAAXV?$basic_string@DU?$char_traits@D@std@@V?$allocator@D@2@@std@@@Z 0000000140010080 f   EntityAPI.obj
 0001:0000f170       ?setCollide@Entity@@QEAAX_N@Z 0000000140010170 f   EntityAPI.obj
 0001:0000f190       ?getDefaultAnim@Entity@@QEAA?AV?$basic_string@DU?$char_traits@D@std@@V?$allocator@D@2@@std@@XZ 0000000140010190 f   EntityAPI.obj
 0001:0000f1c0       ?getAnimationID@Entity@@QEAAHV?$basic_string@DU?$char_traits@D@std@@V?$allocator@D@2@@std@@@Z 00000001400101c0 f   EntityAPI.obj
 0001:0000f2b0       ?hasAnimation@Entity@@QEAA_NV?$basic_string@DU?$char_traits@D@std@@V?$allocator@D@2@@std@@@Z 00000001400102b0 f   EntityAPI.obj
 0001:0000f430       ?showHealth@Entity@@QEAAX_N@Z 0000000140010430 f   EntityAPI.obj
 0001:0000f440       ?setHPColor@Entity@@QEAAXMMM@Z 0000000140010440 f   EntityAPI.obj
 0001:0000f480       ?setText@Entity@@QEAAXV?$basic_string@DU?$char_traits@D@std@@V?$allocator@D@2@@std@@0MM@Z 0000000140010480 f   EntityAPI.obj
 0001:0000f610       ?getEntityCount@Entity@@QEAAHXZ 0000000140010610 f   EntityAPI.obj
 0001:0000f620       ?setTextColor@Entity@@QEAAXMMMM@Z 0000000140010620 f   EntityAPI.obj
 0001:0000f660       ?addAbility@Entity@@QEAAXV?$basic_string@DU?$char_traits@D@std@@V?$allocator@D@2@@std@@0@Z 0000000140010660 f   EntityAPI.obj
 0001:0000f7b0       ?getAbility@Entity@@QEAA?AV?$basic_string@DU?$char_traits@D@std@@V?$allocator@D@2@@std@@H@Z 00000001400107b0 f   EntityAPI.obj
 0001:0000f7e0       ?getAbilityDescription@Entity@@QEAA?AV?$basic_string@DU?$char_traits@D@std@@V?$allocator@D@2@@std@@H@Z 00000001400107e0 f   EntityAPI.obj
 0001:0000f810       ?setScreenColor@Entity@@QEAAXU?$vec@$03M$0A@@glm@@@Z 0000000140010810 f   EntityAPI.obj
 0001:0000f820       ?setDrawScene@Entity@@QEAAX_N@Z 0000000140010820 f   EntityAPI.obj
 0001:0000f830       ?setSpread@Entity@@QEAAXM@Z 0000000140010830 f   EntityAPI.obj
 0001:0000f860       ?setProjColor@Entity@@QEAAXMMMM@Z 0000000140010860 f   EntityAPI.obj
 0001:0000f8d0       ?setProjDelay@Entity@@QEAAXH@Z 00000001400108d0 f   EntityAPI.obj
 0001:0000f8f0       ?setObjectPos@Entity@@QEAAXMMM@Z 00000001400108f0 f   EntityAPI.obj
 0001:0000f950       ?setObjectScale@Entity@@QEAAXM@Z 0000000140010950 f   EntityAPI.obj
 0001:0000f990       ?setObjectColor@Entity@@QEAAXMMMM@Z 0000000140010990 f   EntityAPI.obj
 0001:0000fa00       ?setEnemyTarget@Entity@@QEAAXMM@Z 0000000140010a00 f   EntityAPI.obj
 0001:0000fa20       ?getObjectX@Entity@@QEAAMXZ 0000000140010a20 f   EntityAPI.obj
 0001:0000fa40       ?getObjectY@Entity@@QEAAMXZ 0000000140010a40 f   EntityAPI.obj
 0001:0000fa60       ?getObjectZ@Entity@@QEAAMXZ 0000000140010a60 f   EntityAPI.obj
 0001:0000fa80       ?setUICam@Entity@@QEAAX_N@Z 0000000140010a80 f   EntityAPI.obj
 0001:0000faa0       ?setDrawUI@Entity@@QEAAX_N@Z 0000000140010aa0 f   EntityAPI.obj
 0001:0000fab0       ?setProjRange@Entity@@QEAAXH@Z 0000000140010ab0 f   EntityAPI.obj
 0001:0000fae0       ??6?$basic_ostream@DU?$char_traits@D@std@@@std@@QEAAAEAV01@M@Z 0000000140010ae0 f i EntityAPI.obj
 0001:0000fca0       ??6?$basic_ostream@DU?$char_traits@D@std@@@std@@QEAAAEAV01@H@Z 0000000140010ca0 f i EntityAPI.obj
 0001:0000fe50       ?_Destroy@?$vector@V?$basic_string@DU?$char_traits@D@std@@V?$allocator@D@2@@std@@V?$allocator@V?$basic_string@DU?$char_traits@D@std@@V?$allocator@D@2@@std@@@2@@std@@AEAAXPEAV?$basic_string@DU?$char_traits@D@std@@V?$allocator@D@2@@2@0@Z 0000000140010e50 f i EntityAPI.obj
 0001:0000fe60       ?_Become_small@?$basic_string@DU?$char_traits@D@std@@V?$allocator@D@2@@std@@AEAAXXZ 0000000140010e60 f i EntityAPI.obj
 0001:0000fed0       ?deallocate@?$allocator@V?$basic_string@DU?$char_traits@D@std@@V?$allocator@D@2@@std@@@std@@QEAAXQEAV?$basic_string@DU?$char_traits@D@std@@V?$allocator@D@2@@2@_K@Z 0000000140010ed0 f i EntityAPI.obj
 0001:0000ff20       ??$?DM$0A@@glm@@YA?AU?$vec@$03M$0A@@0@AEBU?$mat@$03$03M$0A@@0@AEBU10@@Z 0000000140010f20 f i EntityAPI.obj
 0001:000100a0       ??$?6U?$char_traits@D@std@@@std@@YAAEAV?$basic_ostream@DU?$char_traits@D@std@@@0@AEAV10@D@Z 00000001400110a0 f i EntityAPI.obj
 0001:00010320       ??$Throw@VLuaException@luabridge@@@LuaException@luabridge@@SAXV01@@Z 0000000140011320 f i EntityAPI.obj
 0001:00010360       ??$?HDU?$char_traits@D@std@@V?$allocator@D@1@@std@@YA?AV?$basic_string@DU?$char_traits@D@std@@V?$allocator@D@2@@0@AEBV10@QEBD@Z 0000000140011360 f i EntityAPI.obj
 0001:00010420       ??$get@VGUIComponent@@@Entity@@QEAAPEAVGUIComponent@@XZ 0000000140011420 f i EntityAPI.obj
 0001:000104f0       ??$get@VGraphicsComponent@@@Entity@@QEAAPEAVGraphicsComponent@@XZ 00000001400114f0 f i EntityAPI.obj
 0001:000105c0       ??$get@VObjectComponent@@@Entity@@QEAAPEAVObjectComponent@@XZ 00000001400115c0 f i EntityAPI.obj
 0001:00010690       ??$get@VStaticGraphicsComponent@@@Entity@@QEAAPEAVStaticGraphicsComponent@@XZ 0000000140011690 f i EntityAPI.obj
 0001:00010760       ??$get@VCameraComponent@@@Entity@@QEAAPEAVCameraComponent@@XZ 0000000140011760 f i EntityAPI.obj
 0001:00010830       ??$get@VProjectileComponent@@@Entity@@QEAAPEAVProjectileComponent@@XZ 0000000140011830 f i EntityAPI.obj
 0001:00010900       ??$_Emplace_reallocate@VSpawnData@@@?$vector@VSpawnData@@V?$allocator@VSpawnData@@@std@@@std@@QEAAPEAVSpawnData@@QEAV2@$$QEAV2@@Z 0000000140011900 f i EntityAPI.obj
 0001:00010cb0       ??$_Emplace_reallocate@AEBH@?$vector@HV?$allocator@H@std@@@std@@QEAAPEAHQEAHAEBH@Z 0000000140011cb0 f i EntityAPI.obj
 0001:00010e40       ??$_Emplace_reallocate@PEAUOBJIndex@@@?$vector@PEAUOBJIndex@@V?$allocator@PEAUOBJIndex@@@std@@@std@@QEAAPEAPEAUOBJIndex@@QEAPEAU2@$$QEAPEAU2@@Z 0000000140011e40 f i obj_loader.obj
 0001:00010e40       ??$_Emplace_reallocate@AEBQEAVObject@@@?$vector@PEAVObject@@V?$allocator@PEAVObject@@@std@@@std@@QEAAPEAPEAVObject@@QEAPEAV2@AEBQEAV2@@Z 0000000140011e40 f i EntityAPI.obj
 0001:00010e40       ??$_Emplace_reallocate@AEBQEAVProp@@@?$vector@PEAVProp@@V?$allocator@PEAVProp@@@std@@@std@@QEAAPEAPEAVProp@@QEAPEAV2@AEBQEAV2@@Z 0000000140011e40 f i main.obj
 0001:00010e40       ??$_Emplace_reallocate@AEBQEAVEntity@@@?$vector@PEAVEntity@@V?$allocator@PEAVEntity@@@std@@@std@@QEAAPEAPEAVEntity@@QEAPEAV2@AEBQEAV2@@Z 0000000140011e40 f i main.obj
 0001:00010e40       ??$_Emplace_reallocate@PEAVanimatedMesh@@@?$vector@PEAVanimatedMesh@@V?$allocator@PEAVanimatedMesh@@@std@@@std@@QEAAPEAPEAVanimatedMesh@@QEAPEAV2@$$QEAPEAV2@@Z 0000000140011e40 f i world.obj
 0001:00010fd0       ??$_Try_emplace@AEBV?$basic_string@DU?$char_traits@D@std@@V?$allocator@D@2@@std@@$$V@?$map@V?$basic_string@DU?$char_traits@D@std@@V?$allocator@D@2@@std@@UTextData@@U?$less@V?$basic_string@DU?$char_traits@D@std@@V?$allocator@D@2@@std@@@2@V?$allocator@U?$pair@$$CBV?$basic_string@DU?$char_traits@D@std@@V?$allocator@D@2@@std@@UTextData@@@std@@@2@@std@@AEAA?AU?$pair@PEAU?$_Tree_node@U?$pair@$$CBV?$basic_string@DU?$char_traits@D@std@@V?$allocator@D@2@@std@@UTextData@@@std@@PEAX@std@@_N@1@AEBV?$basic_string@DU?$char_traits@D@std@@V?$allocator@D@2@@1@@Z 0000000140011fd0 f i EntityAPI.obj
 0001:000111a0       ??$_Try_emplace@AEBV?$basic_string@DU?$char_traits@D@std@@V?$allocator@D@2@@std@@$$V@?$map@V?$basic_string@DU?$char_traits@D@std@@V?$allocator@D@2@@std@@MU?$less@V?$basic_string@DU?$char_traits@D@std@@V?$allocator@D@2@@std@@@2@V?$allocator@U?$pair@$$CBV?$basic_string@DU?$char_traits@D@std@@V?$allocator@D@2@@std@@M@std@@@2@@std@@AEAA?AU?$pair@PEAU?$_Tree_node@U?$pair@$$CBV?$basic_string@DU?$char_traits@D@std@@V?$allocator@D@2@@std@@M@std@@PEAX@std@@_N@1@AEBV?$basic_string@DU?$char_traits@D@std@@V?$allocator@D@2@@1@@Z 00000001400121a0 f i main.obj
 0001:000111a0       ??$_Try_emplace@AEBV?$basic_string@DU?$char_traits@D@std@@V?$allocator@D@2@@std@@$$V@?$map@V?$basic_string@DU?$char_traits@D@std@@V?$allocator@D@2@@std@@HU?$less@V?$basic_string@DU?$char_traits@D@std@@V?$allocator@D@2@@std@@@2@V?$allocator@U?$pair@$$CBV?$basic_string@DU?$char_traits@D@std@@V?$allocator@D@2@@std@@H@std@@@2@@std@@AEAA?AU?$pair@PEAU?$_Tree_node@U?$pair@$$CBV?$basic_string@DU?$char_traits@D@std@@V?$allocator@D@2@@std@@H@std@@PEAX@std@@_N@1@AEBV?$basic_string@DU?$char_traits@D@std@@V?$allocator@D@2@@1@@Z 00000001400121a0 f i EntityAPI.obj
 0001:00011320       ??$_Emplace_reallocate@AEBV?$basic_string@DU?$char_traits@D@std@@V?$allocator@D@2@@std@@@?$vector@V?$basic_string@DU?$char_traits@D@std@@V?$allocator@D@2@@std@@V?$allocator@V?$basic_string@DU?$char_traits@D@std@@V?$allocator@D@2@@std@@@2@@std@@QEAAPEAV?$basic_string@DU?$char_traits@D@std@@V?$allocator@D@2@@1@QEAV21@AEBV21@@Z 0000000140012320 f i EntityAPI.obj
 0001:000115b0       ??$_Destroy_range@V?$allocator@V?$basic_string@DU?$char_traits@D@std@@V?$allocator@D@2@@std@@@std@@@std@@YAXPEAV?$basic_string@DU?$char_traits@D@std@@V?$allocator@D@2@@0@QEAV10@AEAV?$allocator@V?$basic_string@DU?$char_traits@D@std@@V?$allocator@D@2@@std@@@0@@Z 00000001400125b0 f i EntityAPI.obj
 0001:00011640       ?push@?$Stack@PEAVEntity@@@luabridge@@SAXPEAUlua_State@@PEAVEntity@@@Z 0000000140012640 f i EntityAPI.obj
 0001:000116e0       ?_Insert_node@?$_Tree_val@U?$_Tree_simple_types@U?$pair@$$CBV?$basic_string@DU?$char_traits@D@std@@V?$allocator@D@2@@std@@_N@std@@@std@@@std@@QEAAPEAU?$_Tree_node@U?$pair@$$CBV?$basic_string@DU?$char_traits@D@std@@V?$allocator@D@2@@std@@_N@std@@PEAX@2@U?$_Tree_id@PEAU?$_Tree_node@U?$pair@$$CBV?$basic_string@DU?$char_traits@D@std@@V?$allocator@D@2@@std@@_N@std@@PEAX@std@@@2@QEAU32@@Z 00000001400126e0 f i main.obj
 0001:000116e0       ?_Insert_node@?$_Tree_val@U?$_Tree_simple_types@U?$pair@$$CBV?$basic_string@DU?$char_traits@D@std@@V?$allocator@D@2@@std@@V12@@std@@@std@@@std@@QEAAPEAU?$_Tree_node@U?$pair@$$CBV?$basic_string@DU?$char_traits@D@std@@V?$allocator@D@2@@std@@V12@@std@@PEAX@2@U?$_Tree_id@PEAU?$_Tree_node@U?$pair@$$CBV?$basic_string@DU?$char_traits@D@std@@V?$allocator@D@2@@std@@V12@@std@@PEAX@std@@@2@QEAU32@@Z 00000001400126e0 f i main.obj
 0001:000116e0       ?_Insert_node@?$_Tree_val@U?$_Tree_simple_types@U?$pair@$$CBV?$basic_string@DU?$char_traits@D@std@@V?$allocator@D@2@@std@@UTextData@@@std@@@std@@@std@@QEAAPEAU?$_Tree_node@U?$pair@$$CBV?$basic_string@DU?$char_traits@D@std@@V?$allocator@D@2@@std@@UTextData@@@std@@PEAX@2@U?$_Tree_id@PEAU?$_Tree_node@U?$pair@$$CBV?$basic_string@DU?$char_traits@D@std@@V?$allocator@D@2@@std@@UTextData@@@std@@PEAX@std@@@2@QEAU32@@Z 00000001400126e0 f i EntityAPI.obj
 0001:000116e0       ?_Insert_node@?$_Tree_val@U?$_Tree_simple_types@U?$pair@$$CBV?$basic_string@DU?$char_traits@D@std@@V?$allocator@D@2@@std@@M@std@@@std@@@std@@QEAAPEAU?$_Tree_node@U?$pair@$$CBV?$basic_string@DU?$char_traits@D@std@@V?$allocator@D@2@@std@@M@std@@PEAX@2@U?$_Tree_id@PEAU?$_Tree_node@U?$pair@$$CBV?$basic_string@DU?$char_traits@D@std@@V?$allocator@D@2@@std@@M@std@@PEAX@std@@@2@QEAU32@@Z 00000001400126e0 f i main.obj
 0001:000116e0       ?_Insert_node@?$_Tree_val@U?$_Tree_simple_types@U?$pair@$$CBUOBJIndex@@I@std@@@std@@@std@@QEAAPEAU?$_Tree_node@U?$pair@$$CBUOBJIndex@@I@std@@PEAX@2@U?$_Tree_id@PEAU?$_Tree_node@U?$pair@$$CBUOBJIndex@@I@std@@PEAX@std@@@2@QEAU32@@Z 00000001400126e0 f i obj_loader.obj
 0001:000116e0       ?_Insert_node@?$_Tree_val@U?$_Tree_simple_types@U?$pair@$$CBVtype_index@std@@PEAVComponent@@@std@@@std@@@std@@QEAAPEAU?$_Tree_node@U?$pair@$$CBVtype_index@std@@PEAVComponent@@@std@@PEAX@2@U?$_Tree_id@PEAU?$_Tree_node@U?$pair@$$CBVtype_index@std@@PEAVComponent@@@std@@PEAX@std@@@2@QEAU32@@Z 00000001400126e0 f i main.obj
 0001:000116e0       ?_Insert_node@?$_Tree_val@U?$_Tree_simple_types@U?$pair@$$CBV?$basic_string@DU?$char_traits@D@std@@V?$allocator@D@2@@std@@H@std@@@std@@@std@@QEAAPEAU?$_Tree_node@U?$pair@$$CBV?$basic_string@DU?$char_traits@D@std@@V?$allocator@D@2@@std@@H@std@@PEAX@2@U?$_Tree_id@PEAU?$_Tree_node@U?$pair@$$CBV?$basic_string@DU?$char_traits@D@std@@V?$allocator@D@2@@std@@H@std@@PEAX@std@@@2@QEAU32@@Z 00000001400126e0 f i EntityAPI.obj
 0001:000116e0       ?_Insert_node@?$_Tree_val@U?$_Tree_simple_types@U?$pair@$$CBII@std@@@std@@@std@@QEAAPEAU?$_Tree_node@U?$pair@$$CBII@std@@PEAX@2@U?$_Tree_id@PEAU?$_Tree_node@U?$pair@$$CBII@std@@PEAX@std@@@2@QEAU32@@Z 00000001400126e0 f i obj_loader.obj
 0001:000116e0       ?_Insert_node@?$_Tree_val@U?$_Tree_simple_types@U?$pair@$$CBV?$basic_string@DU?$char_traits@D@std@@V?$allocator@D@2@@std@@V?$vector@PEAVanimatedMesh@@V?$allocator@PEAVanimatedMesh@@@std@@@2@@std@@@std@@@std@@QEAAPEAU?$_Tree_node@U?$pair@$$CBV?$basic_string@DU?$char_traits@D@std@@V?$allocator@D@2@@std@@V?$vector@PEAVanimatedMesh@@V?$allocator@PEAVanimatedMesh@@@std@@@2@@std@@PEAX@2@U?$_Tree_id@PEAU?$_Tree_node@U?$pair@$$CBV?$basic_string@DU?$char_traits@D@std@@V?$allocator@D@2@@std@@V?$vector@PEAVanimatedMesh@@V?$allocator@PEAVanimatedMesh@@@std@@@2@@std@@PEAX@std@@@2@QEAU32@@Z 00000001400126e0 f i world.obj
 0001:00011960       ??R?$less@V?$basic_string@DU?$char_traits@D@std@@V?$allocator@D@2@@std@@@std@@QEBA_NAEBV?$basic_string@DU?$char_traits@D@std@@V?$allocator@D@2@@1@0@Z 0000000140012960 f i EntityAPI.obj
 0001:000119d0       ??1?$_Alloc_construct_ptr@V?$allocator@U?$_Tree_node@U?$pair@$$CBV?$basic_string@DU?$char_traits@D@std@@V?$allocator@D@2@@std@@_N@std@@PEAX@std@@@std@@@std@@QEAA@XZ 00000001400129d0 f i main.obj
 0001:000119d0       ??1?$_Tree_temp_node_alloc@V?$allocator@U?$_Tree_node@U?$pair@$$CBV?$basic_string@DU?$char_traits@D@std@@V?$allocator@D@2@@std@@M@std@@PEAX@std@@@std@@@std@@QEAA@XZ 00000001400129d0 f i main.obj
 0001:000119d0       ??1?$_Tree_temp_node_alloc@V?$allocator@U?$_Tree_node@U?$pair@$$CBV?$basic_string@DU?$char_traits@D@std@@V?$allocator@D@2@@std@@H@std@@PEAX@std@@@std@@@std@@QEAA@XZ 00000001400129d0 f i EntityAPI.obj
 0001:000119d0       ??1?$_Alloc_construct_ptr@V?$allocator@U?$_Tree_node@U?$pair@$$CBV?$basic_string@DU?$char_traits@D@std@@V?$allocator@D@2@@std@@M@std@@PEAX@std@@@std@@@std@@QEAA@XZ 00000001400129d0 f i main.obj
 0001:000119d0       ??1?$_Alloc_construct_ptr@V?$allocator@U?$_Tree_node@U?$pair@$$CBV?$basic_string@DU?$char_traits@D@std@@V?$allocator@D@2@@std@@H@std@@PEAX@std@@@std@@@std@@QEAA@XZ 00000001400129d0 f i EntityAPI.obj
 0001:000119d0       ??1?$_Tree_temp_node_alloc@V?$allocator@U?$_Tree_node@U?$pair@$$CBV?$basic_string@DU?$char_traits@D@std@@V?$allocator@D@2@@std@@_N@std@@PEAX@std@@@std@@@std@@QEAA@XZ 00000001400129d0 f i main.obj
 0001:000119f0       ??1?$_Tree_temp_node_alloc@V?$allocator@U?$_Tree_node@U?$pair@$$CBV?$basic_string@DU?$char_traits@D@std@@V?$allocator@D@2@@std@@UTextData@@@std@@PEAX@std@@@std@@@std@@QEAA@XZ 00000001400129f0 f i EntityAPI.obj
 0001:000119f0       ??1?$_Alloc_construct_ptr@V?$allocator@U?$_Tree_node@U?$pair@$$CBV?$basic_string@DU?$char_traits@D@std@@V?$allocator@D@2@@std@@UTextData@@@std@@PEAX@std@@@std@@@std@@QEAA@XZ 00000001400129f0 f i EntityAPI.obj
 0001:00011a10       ??$rotate@M$0A@@glm@@YA?AU?$mat@$03$03M$0A@@0@AEBU10@MAEBU?$vec@$02M$0A@@0@@Z 0000000140012a10 f i EntityAPI.obj
 0001:00011e60       ??$_Reallocate_grow_by@V<lambda_9013ee9e23efe4882b67eff5b0ecf103>@@$$V@?$basic_string@DU?$char_traits@D@std@@V?$allocator@D@2@@std@@AEAAAEAV01@_KV<lambda_9013ee9e23efe4882b67eff5b0ecf103>@@@Z 0000000140012e60 f i EntityAPI.obj
 0001:00011fb0       ??1?$_Uninitialized_backout_al@V?$allocator@V?$basic_string@DU?$char_traits@D@std@@V?$allocator@D@2@@std@@@std@@@std@@QEAA@XZ 0000000140012fb0 f i EntityAPI.obj
 0001:00011fc0       ??_GFrameBuffer@@UEAAPEAXI@Z 0000000140012fc0 f i FrameBuffer.obj
 0001:00011fc0       ??_EFrameBuffer@@UEAAPEAXI@Z 0000000140012fc0 f i * CIL library *:* CIL module *
 0001:00012020       ??1FrameBuffer@@UEAA@XZ    0000000140013020 f   FrameBuffer.obj
 0001:00012060       ??1?$map@V?$basic_string@DU?$char_traits@D@std@@V?$allocator@D@2@@std@@UTextData@@U?$less@V?$basic_string@DU?$char_traits@D@std@@V?$allocator@D@2@@std@@@2@V?$allocator@U?$pair@$$CBV?$basic_string@DU?$char_traits@D@std@@V?$allocator@D@2@@std@@UTextData@@@std@@@2@@std@@QEAA@XZ 0000000140013060 f i Globals.obj
 0001:00012090       ??1?$map@V?$basic_string@DU?$char_traits@D@std@@V?$allocator@D@2@@std@@MU?$less@V?$basic_string@DU?$char_traits@D@std@@V?$allocator@D@2@@std@@@2@V?$allocator@U?$pair@$$CBV?$basic_string@DU?$char_traits@D@std@@V?$allocator@D@2@@std@@M@std@@@2@@std@@QEAA@XZ 0000000140013090 f i Globals.obj
 0001:000120d0       ??1?$map@V?$basic_string@DU?$char_traits@D@std@@V?$allocator@D@2@@std@@_NU?$less@V?$basic_string@DU?$char_traits@D@std@@V?$allocator@D@2@@std@@@2@V?$allocator@U?$pair@$$CBV?$basic_string@DU?$char_traits@D@std@@V?$allocator@D@2@@std@@_N@std@@@2@@std@@QEAA@XZ 00000001400130d0 f i Globals.obj
 0001:00012110       ??1?$_Tree@V?$_Tmap_traits@V?$basic_string@DU?$char_traits@D@std@@V?$allocator@D@2@@std@@V?$vector@PEAVanimatedMesh@@V?$allocator@PEAVanimatedMesh@@@std@@@2@U?$less@V?$basic_string@DU?$char_traits@D@std@@V?$allocator@D@2@@std@@@2@V?$allocator@U?$pair@$$CBV?$basic_string@DU?$char_traits@D@std@@V?$allocator@D@2@@std@@V?$vector@PEAVanimatedMesh@@V?$allocator@PEAVanimatedMesh@@@std@@@2@@std@@@2@$0A@@std@@@std@@QEAA@XZ 0000000140013110 f i Globals.obj
 0001:00012190       ??1?$vector@V?$basic_string@DU?$char_traits@D@std@@V?$allocator@D@2@@std@@V?$allocator@V?$basic_string@DU?$char_traits@D@std@@V?$allocator@D@2@@std@@@2@@std@@QEAA@XZ 0000000140013190 f i Globals.obj
 0001:00012200       ??$_Erase_tree@V?$allocator@U?$_Tree_node@U?$pair@$$CBV?$basic_string@DU?$char_traits@D@std@@V?$allocator@D@2@@std@@H@std@@PEAX@std@@@std@@@?$_Tree_val@U?$_Tree_simple_types@U?$pair@$$CBV?$basic_string@DU?$char_traits@D@std@@V?$allocator@D@2@@std@@H@std@@@std@@@std@@QEAAXAEAV?$allocator@U?$_Tree_node@U?$pair@$$CBV?$basic_string@DU?$char_traits@D@std@@V?$allocator@D@2@@std@@H@std@@PEAX@std@@@1@PEAU?$_Tree_node@U?$pair@$$CBV?$basic_string@DU?$char_traits@D@std@@V?$allocator@D@2@@std@@H@std@@PEAX@1@@Z 0000000140013200 f i main.obj
 0001:00012200       ??$_Erase_tree@V?$allocator@U?$_Tree_node@U?$pair@$$CBV?$basic_string@DU?$char_traits@D@std@@V?$allocator@D@2@@std@@M@std@@PEAX@std@@@std@@@?$_Tree_val@U?$_Tree_simple_types@U?$pair@$$CBV?$basic_string@DU?$char_traits@D@std@@V?$allocator@D@2@@std@@M@std@@@std@@@std@@QEAAXAEAV?$allocator@U?$_Tree_node@U?$pair@$$CBV?$basic_string@DU?$char_traits@D@std@@V?$allocator@D@2@@std@@M@std@@PEAX@std@@@1@PEAU?$_Tree_node@U?$pair@$$CBV?$basic_string@DU?$char_traits@D@std@@V?$allocator@D@2@@std@@M@std@@PEAX@1@@Z 0000000140013200 f i Globals.obj
 0001:00012200       ??$_Erase_tree@V?$allocator@U?$_Tree_node@U?$pair@$$CBV?$basic_string@DU?$char_traits@D@std@@V?$allocator@D@2@@std@@_N@std@@PEAX@std@@@std@@@?$_Tree_val@U?$_Tree_simple_types@U?$pair@$$CBV?$basic_string@DU?$char_traits@D@std@@V?$allocator@D@2@@std@@_N@std@@@std@@@std@@QEAAXAEAV?$allocator@U?$_Tree_node@U?$pair@$$CBV?$basic_string@DU?$char_traits@D@std@@V?$allocator@D@2@@std@@_N@std@@PEAX@std@@@1@PEAU?$_Tree_node@U?$pair@$$CBV?$basic_string@DU?$char_traits@D@std@@V?$allocator@D@2@@std@@_N@std@@PEAX@1@@Z 0000000140013200 f i Globals.obj
 0001:000122c0       ??$_Erase_tree@V?$allocator@U?$_Tree_node@U?$pair@$$CBV?$basic_string@DU?$char_traits@D@std@@V?$allocator@D@2@@std@@UTextData@@@std@@PEAX@std@@@std@@@?$_Tree_val@U?$_Tree_simple_types@U?$pair@$$CBV?$basic_string@DU?$char_traits@D@std@@V?$allocator@D@2@@std@@UTextData@@@std@@@std@@@std@@QEAAXAEAV?$allocator@U?$_Tree_node@U?$pair@$$CBV?$basic_string@DU?$char_traits@D@std@@V?$allocator@D@2@@std@@UTextData@@@std@@PEAX@std@@@1@PEAU?$_Tree_node@U?$pair@$$CBV?$basic_string@DU?$char_traits@D@std@@V?$allocator@D@2@@std@@UTextData@@@std@@PEAX@1@@Z 00000001400132c0 f i Globals.obj
 0001:00012380       ??$_Erase_tree@V?$allocator@U?$_Tree_node@U?$pair@$$CBV?$basic_string@DU?$char_traits@D@std@@V?$allocator@D@2@@std@@V?$vector@PEAVanimatedMesh@@V?$allocator@PEAVanimatedMesh@@@std@@@2@@std@@PEAX@std@@@std@@@?$_Tree_val@U?$_Tree_simple_types@U?$pair@$$CBV?$basic_string@DU?$char_traits@D@std@@V?$allocator@D@2@@std@@V?$vector@PEAVanimatedMesh@@V?$allocator@PEAVanimatedMesh@@@std@@@2@@std@@@std@@@std@@QEAAXAEAV?$allocator@U?$_Tree_node@U?$pair@$$CBV?$basic_string@DU?$char_traits@D@std@@V?$allocator@D@2@@std@@V?$vector@PEAVanimatedMesh@@V?$allocator@PEAVanimatedMesh@@@std@@@2@@std@@PEAX@std@@@1@PEAU?$_Tree_node@U?$pair@$$CBV?$basic_string@DU?$char_traits@D@std@@V?$allocator@D@2@@std@@V?$vector@PEAVanimatedMesh@@V?$allocator@PEAVanimatedMesh@@@std@@@2@@std@@PEAX@1@@Z 0000000140013380 f i Globals.obj
 0001:000123e0       ??1?$pair@$$CBV?$basic_string@DU?$char_traits@D@std@@V?$allocator@D@2@@std@@V?$vector@PEAVanimatedMesh@@V?$allocator@PEAVanimatedMesh@@@std@@@2@@std@@QEAA@XZ 00000001400133e0 f i Globals.obj
 0001:00012490       ?NotifyAffinitizedWork@FairScheduleGroupSegment@details@Concurrency@@UEAAXXZ 0000000140013490 f i libconcrt:SchedulerBase.obj
 0001:00012490       ?NotifyResourcesExternallyIdle@ThreadScheduler@details@Concurrency@@UEAAXPEAPEAUIVirtualProcessorRoot@3@I@Z 0000000140013490 f i libconcrt:ThreadScheduler.obj
 0001:00012490       ?NotifyResourcesExternallyBusy@ThreadScheduler@details@Concurrency@@UEAAXPEAPEAUIVirtualProcessorRoot@3@I@Z 0000000140013490 f i libconcrt:ThreadScheduler.obj
 0001:00012490       ??3@YAXPEAXUImNewDummy@@0@Z 0000000140013490 f i imgui.obj
 0001:00012490       ?destroy@stl_critical_section_win7@details@Concurrency@@UEAAXXZ 0000000140013490 f i libcpmt:mutex.obj
 0001:00012490       ?ReportUnhandledError@_ExceptionHolder@details@Concurrency@@AEAAXXZ 0000000140013490 f i libcpmt:pplerror.obj
 0001:00012490       ?_LogWorkItemCompleted@_TaskEventLogger@details@Concurrency@@QEAAXXZ 0000000140013490 f i libcpmt:ppltasks.obj
 0001:00012490       ?RMAwaken@InternalContextBase@details@Concurrency@@EEAAXXZ 0000000140013490 f i libconcrt:InternalContextBase.obj
 0001:00012490       ?destroy@stl_condition_variable_win7@details@Concurrency@@UEAAXXZ 0000000140013490 f i libcpmt:cond.obj
 0001:00012490       ?_LogCancelTask@_TaskEventLogger@details@Concurrency@@QEAAXXZ 0000000140013490 f i libcpmt:ppltasks.obj
 0001:00012490       ?_LogScheduleTask@_TaskEventLogger@details@Concurrency@@QEAAX_N@Z 0000000140013490 f i libcpmt:ppltasks.obj
 0001:00012490       ??1critical_section@Concurrency@@QEAA@XZ 0000000140013490 f i libconcrt:rtlocks.obj
 0001:00012490       ?_LogTaskExecutionCompleted@_TaskEventLogger@details@Concurrency@@QEAAXXZ 0000000140013490 f i libcpmt:ppltasks.obj
 0001:00012490       ?CreateNodeTopology@ResourceManager@details@Concurrency@@UEAAXIPEAIPEAPEAI0@Z 0000000140013490 f i libconcrt:ResourceManager.obj
 0001:00012490       ?_Lock@?$basic_streambuf@DU?$char_traits@D@std@@@std@@UEAAXXZ 0000000140013490 f i obj_loader.obj
 0001:00012490       ?Destroy@WaitAnyBlock@details@Concurrency@@UEAAXXZ 0000000140013490 f i libconcrt:event.obj
 0001:00012490       ?destroy@stl_condition_variable_vista@details@Concurrency@@UEAAXXZ 0000000140013490 f i libcpmt:cond.obj
 0001:00012490       _initialize_denormal_control 0000000140013490 f i LIBCMT:denormal_control.obj
 0001:00012490       ?_LogWorkItemStarted@_TaskEventLogger@details@Concurrency@@QEAAXXZ 0000000140013490 f i libcpmt:ppltasks.obj
 0001:00012490       _initialize_invalid_parameter_handler 0000000140013490 f i LIBCMT:invalid_parameter_handler.obj
 0001:00012490       ?_Unlock@?$basic_streambuf@DU?$char_traits@D@std@@@std@@UEAAXXZ 0000000140013490 f i obj_loader.obj
 0001:00012490       ?imbue@?$basic_streambuf@DU?$char_traits@D@std@@@std@@MEAAXAEBVlocale@2@@Z 0000000140013490 f i obj_loader.obj
 0001:00012490       ?_Reset@_ContextCallback@details@Concurrency@@AEAAXXZ 0000000140013490 f i libcpmt:ppltasks.obj
 0001:00012490       ?VirtualProcessorActiveNotification@SchedulerBase@details@Concurrency@@MEAAX_NJ@Z 0000000140013490 f i libconcrt:SchedulerBase.obj
 0001:00012490       _guard_check_icall_nop     0000000140013490 f i LIBCMT:guard_support.obj
 0001:00012490       ?_LogTaskCompleted@_TaskEventLogger@details@Concurrency@@QEAAXXZ 0000000140013490 f i libcpmt:ppltasks.obj
 0001:00012490       ?_Run_deferred_function@?$_Associated_state@H@std@@EEAAXAEAV?$unique_lock@Vmutex@std@@@2@@Z 0000000140013490 f i world.obj
 0001:00012490       ?_Capture@_ContextCallback@details@Concurrency@@AEAAXXZ 0000000140013490 f i libcpmt:ppltasks.obj
 0001:000124a0       ??1ImDrawListSplitter@@QEAA@XZ 00000001400134a0 f i imgui.obj
 0001:000124e0       ??0ImDrawList@@QEAA@PEBUImDrawListSharedData@@@Z 00000001400134e0 f i imgui.obj
 0001:00012560       ??1ImDrawList@@QEAA@XZ     0000000140013560 f i imgui.obj
 0001:00012670       ??1ImDrawData@@QEAA@XZ     0000000140013670 f i imgui.obj
 0001:00012690       __local_stdio_scanf_options 0000000140013690 f i imgui.obj
 0001:000126a0       sscanf                     00000001400136a0 f i imgui.obj
 0001:00012700       ?ClipWithFull@ImRect@@QEAAXAEBU1@@Z 0000000140013700 f i imgui.obj
 0001:00012780       ??0ImGuiContext@@QEAA@PEAUImFontAtlas@@@Z 0000000140013780 f i imgui.obj
 0001:00013060       ??1ImGuiIO@@QEAA@XZ        0000000140014060 f i imgui.obj
 0001:00013090       ??1?$ImVector@E@@QEAA@XZ   0000000140014090 f i imgui.obj
 0001:00013090       ??1?$ImVector@UImGuiColumns@@@@QEAA@XZ 0000000140014090 f i imgui.obj
 0001:00013090       ??1ImGuiStorage@@QEAA@XZ   0000000140014090 f i imgui.obj
 0001:00013090       ??1?$ImVector@Ustbtt_packedchar@@@@QEAA@XZ 0000000140014090 f i imgui_draw.obj
 0001:00013090       ??1?$ImVector@PEAUImGuiWindow@@@@QEAA@XZ 0000000140014090 f i imgui.obj
 0001:00013090       ??1?$ImVector@UImFontBuildDstData@@@@QEAA@XZ 0000000140014090 f i imgui_draw.obj
 0001:00013090       ??1?$ImVector@UImGuiShrinkWidthItem@@@@QEAA@XZ 0000000140014090 f i imgui.obj
 0001:00013090       ??1?$ImVector@UImVec2@@@@QEAA@XZ 0000000140014090 f i imgui.obj
 0001:00013090       ??1?$ImVector@PEAUImDrawList@@@@QEAA@XZ 0000000140014090 f i imgui.obj
 0001:00013090       ??1?$ImVector@Ustbrp_rect@@@@QEAA@XZ 0000000140014090 f i imgui_draw.obj
 0001:00013090       ??1?$ImVector@UImDrawCmd@@@@QEAA@XZ 0000000140014090 f i imgui.obj
 0001:00013090       ??1?$ImVector@UImDrawVert@@@@QEAA@XZ 0000000140014090 f i imgui.obj
 0001:00013090       ??1?$ImChunkStream@UImGuiWindowSettings@@@@QEAA@XZ 0000000140014090 f i imgui.obj
 0001:00013090       ??1?$ImVector@G@@QEAA@XZ   0000000140014090 f i imgui.obj
 0001:00013090       ??1ImGuiTextBuffer@@QEAA@XZ 0000000140014090 f i imgui.obj
 0001:00013090       ??1?$ImVector@UImGuiColorMod@@@@QEAA@XZ 0000000140014090 f i imgui.obj
 0001:00013090       ??1?$ImVector@D@@QEAA@XZ   0000000140014090 f i imgui.obj
 0001:00013090       ??1?$ImVector@UImFontBuildSrcData@@@@QEAA@XZ 0000000140014090 f i imgui_draw.obj
 0001:00013090       ??1?$ImVector@UImGuiSettingsHandler@@@@QEAA@XZ 0000000140014090 f i imgui.obj
 0001:00013090       ??1?$ImVector@PEAUImFont@@@@QEAA@XZ 0000000140014090 f i imgui.obj
 0001:00013090       ??1?$ImVector@PEAX@@QEAA@XZ 0000000140014090 f i imgui.obj
 0001:00013090       ??1?$ImVector@UImGuiPtrOrIndex@@@@QEAA@XZ 0000000140014090 f i imgui.obj
 0001:00013090       ??1?$ImVector@UImGuiPopupData@@@@QEAA@XZ 0000000140014090 f i imgui.obj
 0001:00013090       ??1?$ImVector@UImGuiStyleMod@@@@QEAA@XZ 0000000140014090 f i imgui.obj
 0001:00013090       ??1?$ImVector@I@@QEAA@XZ   0000000140014090 f i imgui.obj
 0001:00013090       ??1?$ImVector@UImVec4@@@@QEAA@XZ 0000000140014090 f i imgui.obj
 0001:000130c0       ??1ImDrawDataBuilder@@QEAA@XZ 00000001400140c0 f i imgui.obj
 0001:000130e0       ??1ImGuiInputTextState@@QEAA@XZ 00000001400140e0 f i imgui.obj
 0001:00013160       ??0ImGuiWindowTempData@@QEAA@XZ 0000000140014160 f i imgui.obj
 0001:00013280       ?MenuBarRect@ImGuiWindow@@QEBA?AUImRect@@XZ 0000000140014280 f i imgui.obj
 0001:00013360       ??3@YAXPEAX@Z              0000000140014360 f   LIBCMT:delete_scalar.obj
 0001:00013370       ??0ImGuiStyle@@QEAA@XZ     0000000140014370 f   imgui.obj
 0001:00013750       ??0ImGuiIO@@QEAA@XZ        0000000140014750 f   imgui.obj
 0001:00013b90       ?ImFormatString@@YAHPEAD_KPEBDZZ 0000000140014b90 f   imgui.obj
 0001:00013c10       ?ImFormatStringV@@YAHPEAD_KPEBD0@Z 0000000140014c10 f   imgui.obj
 0001:00013ca0       ?ImHashStr@@YAIPEBD_KI@Z   0000000140014ca0 f   imgui.obj
 0001:00013d50       ?ImFileOpen@@YAPEAU_iobuf@@PEBD0@Z 0000000140014d50 f   imgui.obj
 0001:00013ee0       ?ImFileLoadToMemory@@YAPEAXPEBD0PEA_KH@Z 0000000140014ee0 f   imgui.obj
 0001:00014030       ?ImTextCharFromUtf8@@YAHPEAIPEBD1@Z 0000000140015030 f   imgui.obj
 0001:00014220       ?ImTextStrToUtf8@@YAHPEADHPEBG1@Z 0000000140015220 f   imgui.obj
 0001:000142f0       ?append@ImGuiTextBuffer@@QEAAXPEBD0@Z 00000001400152f0 f   imgui.obj
 0001:000143c0       ?appendf@ImGuiTextBuffer@@QEAAXPEBDZZ 00000001400153c0 f   imgui.obj
 0001:000143f0       ?appendfv@ImGuiTextBuffer@@QEAAXPEBDPEAD@Z 00000001400153f0 f   imgui.obj
 0001:000144f0       ?GetColorU32@ImGui@@YAIHM@Z 00000001400154f0 f   imgui.obj
 0001:000145d0       ?PopStyleColor@ImGui@@YAXH@Z 00000001400155d0 f   imgui.obj
 0001:00014670       ?PushStyleVar@ImGui@@YAXHM@Z 0000000140015670 f   imgui.obj
 0001:00014740       ?PopStyleVar@ImGui@@YAXH@Z 0000000140015740 f   imgui.obj
 0001:00014870       ?RenderText@ImGui@@YAXUImVec2@@PEBD1_N@Z 0000000140015870 f   imgui.obj
 0001:00014960       ?RenderTextClippedEx@ImGui@@YAXPEAUImDrawList@@AEBUImVec2@@1PEBD2PEBU3@1PEBUImRect@@@Z 0000000140015960 f   imgui.obj
 0001:00014bc0       ?RenderFrame@ImGui@@YAXUImVec2@@0I_NM@Z 0000000140015bc0 f   imgui.obj
 0001:00014e10       ?RenderNavHighlight@ImGui@@YAXAEBUImRect@@IH@Z 0000000140015e10 f   imgui.obj
 0001:000151e0       ??0ImGuiWindow@@QEAA@PEAUImGuiContext@@PEBD@Z 00000001400161e0 f   imgui.obj
 0001:000155e0       ??1ImGuiWindowTempData@@QEAA@XZ 00000001400165e0 f i imgui.obj
 0001:000156b0       ??1ImGuiWindow@@QEAA@XZ    00000001400166b0 f   imgui.obj
 0001:00015860       ?GetID@ImGuiWindow@@QEAAIPEBD0@Z 0000000140016860 f   imgui.obj
 0001:000158f0       ?GetID@ImGuiWindow@@QEAAIH@Z 00000001400168f0 f   imgui.obj
 0001:000159d0       ?GcCompactTransientWindowBuffers@ImGui@@YAXPEAUImGuiWindow@@@Z 00000001400169d0 f   imgui.obj
 0001:00015b40       ?SetActiveID@ImGui@@YAXIPEAUImGuiWindow@@@Z 0000000140016b40 f   imgui.obj
 0001:00015c10       ?IsItemHovered@ImGui@@YA_NH@Z 0000000140016c10 f   imgui.obj
 0001:00015cb0       ?ItemHoverable@ImGui@@YA_NAEBUImRect@@I@Z 0000000140016cb0 f   imgui.obj
 0001:00015e10       ?FocusableItemRegister@ImGui@@YA_NPEAUImGuiWindow@@I@Z 0000000140016e10 f   imgui.obj
 0001:00015f20       ?StartMouseMovingWindow@ImGui@@YAXPEAUImGuiWindow@@@Z 0000000140016f20 f   imgui.obj
 0001:00015fb0       ?UpdateMouseMovingWindowNewFrame@ImGui@@YAXXZ 0000000140016fb0 f   imgui.obj
 0001:000161d0       ?UpdateMouseMovingWindowEndFrame@ImGui@@YAXXZ 00000001400171d0 f   imgui.obj
 0001:00016d60       ?UpdateHoveredWindowAndCaptureFlags@ImGui@@YAXXZ 0000000140017d60 f   imgui.obj
 0001:00017260       ?NewFrame@ImGui@@YAXXZ     0000000140018260 f   imgui.obj
 0001:00017f80       ?Initialize@ImGui@@YAXPEAUImGuiContext@@@Z 0000000140018f80 f   imgui.obj
 0001:00018150       ?Shutdown@ImGui@@YAXPEAUImGuiContext@@@Z 0000000140019150 f   imgui.obj
 0001:00018b00       ?PushClipRect@ImGui@@YAXAEBUImVec2@@0_N@Z 0000000140019b00 f   imgui.obj
 0001:00018bb0       ?PopClipRect@ImGui@@YAXXZ  0000000140019bb0 f   imgui.obj
 0001:00018ca0       ?EndFrame@ImGui@@YAXXZ     0000000140019ca0 f   imgui.obj
 0001:00019060       ?Render@ImGui@@YAXXZ       000000014001a060 f   imgui.obj
 0001:000193e0       ?IsMouseHoveringRect@ImGui@@YA_NAEBUImVec2@@0_N@Z 000000014001a3e0 f   imgui.obj
 0001:000194c0       ?IsKeyPressed@ImGui@@YA_NH_N@Z 000000014001a4c0 f   imgui.obj
 0001:00019630       ?IsMouseClicked@ImGui@@YA_NH_N@Z 000000014001a630 f   imgui.obj
 0001:00019710       ?IsMousePosValid@ImGui@@YA_NPEBUImVec2@@@Z 000000014001a710 f   imgui.obj
 0001:00019780       ?BeginChildEx@ImGui@@YA_NPEBDIAEBUImVec2@@_NH@Z 000000014001a780 f   imgui.obj
 0001:00019980       ?EndChild@ImGui@@YAXXZ     000000014001a980 f   imgui.obj
 0001:00019c50       ?FindWindowByName@ImGui@@YAPEAUImGuiWindow@@PEBD@Z 000000014001ac50 f   imgui.obj
 0001:0001c140       ?Begin@ImGui@@YA_NPEBDPEA_NH@Z 000000014001d140 f   imgui.obj
 0001:0001e580       ?End@ImGui@@YAXXZ          000000014001f580 f   imgui.obj
 0001:0001e760       ?FocusWindow@ImGui@@YAXPEAUImGuiWindow@@@Z 000000014001f760 f   imgui.obj
 0001:0001eb60       ?FocusTopMostWindowUnderOne@ImGui@@YAXPEAUImGuiWindow@@0@Z 000000014001fb60 f   imgui.obj
 0001:0001ec80       ?SetCurrentFont@ImGui@@YAXPEAUImFont@@@Z 000000014001fc80 f   imgui.obj
 0001:0001ed80       ?PushFont@ImGui@@YAXPEAUImFont@@@Z 000000014001fd80 f   imgui.obj
 0001:0001ee40       ?PopFont@ImGui@@YAXXZ      000000014001fe40 f   imgui.obj
 0001:0001ef80       ?SetWindowPos@ImGui@@YAXPEAUImGuiWindow@@AEBUImVec2@@H@Z 000000014001ff80 f   imgui.obj
 0001:0001f090       ?SetWindowSize@ImGui@@YAXPEAUImGuiWindow@@AEBUImVec2@@H@Z 0000000140020090 f   imgui.obj
 0001:0001f150       ?PushID@ImGui@@YAXPEBD@Z   0000000140020150 f   imgui.obj
 0001:0001f650       ?ItemSize@ImGui@@YAXAEBUImVec2@@M@Z 0000000140020650 f   imgui.obj
 0001:0001f770       ?ItemAdd@ImGui@@YA_NAEBUImRect@@IPEBU2@@Z 0000000140020770 f   imgui.obj
 0001:0001f8b0       ?SameLine@ImGui@@YAXMM@Z   00000001400208b0 f   imgui.obj
 0001:0001f930       ?PushItemWidth@ImGui@@YAXM@Z 0000000140020930 f   imgui.obj
 0001:0001f9c0       ?PopItemWidth@ImGui@@YAXXZ 00000001400209c0 f   imgui.obj
 0001:0001fa70       ?CalcItemWidth@ImGui@@YAMXZ 0000000140020a70 f   imgui.obj
 0001:0001fae0       ?CalcItemSize@ImGui@@YA?AUImVec2@@U2@MM@Z 0000000140020ae0 f   imgui.obj
 0001:0001fbc0       ?BeginGroup@ImGui@@YAXXZ   0000000140020bc0 f   imgui.obj
 0001:0001fd00       ?EndGroup@ImGui@@YAXXZ     0000000140020d00 f   imgui.obj
 0001:00020290       ?ScrollToBringRectIntoView@ImGui@@YA?AUImVec2@@PEAUImGuiWindow@@AEBUImRect@@@Z 0000000140021290 f   imgui.obj
 0001:00020460       ?SetScrollFromPosY@ImGui@@YAXPEAUImGuiWindow@@MM@Z 0000000140021460 f   imgui.obj
 0001:00020520       ?BeginTooltipEx@ImGui@@YAXHH@Z 0000000140021520 f   imgui.obj
 0001:00020680       ?SetTooltip@ImGui@@YAXPEBDZZ 0000000140021680 f   imgui.obj
 0001:00020770       ?ClosePopupsOverWindow@ImGui@@YAXPEAUImGuiWindow@@_N@Z 0000000140021770 f   imgui.obj
 0001:00020930       ?ClosePopupToLevel@ImGui@@YAXH_N@Z 0000000140021930 f   imgui.obj
 0001:00020a70       ?CloseCurrentPopup@ImGui@@YAXXZ 0000000140021a70 f   imgui.obj
 0001:00020bf0       ?FindBestWindowPosForPopupEx@ImGui@@YA?AUImVec2@@AEBU2@0PEAHAEBUImRect@@2W4ImGuiPopupPositionPolicy@@@Z 0000000140021bf0 f   imgui.obj
 0001:00020e40       ?FindBestWindowPosForPopup@ImGui@@YA?AUImVec2@@PEAUImGuiWindow@@@Z 0000000140021e40 f   imgui.obj
 0001:000211f0       ?SetNavID@ImGui@@YAXIHI@Z  00000001400221f0 f   imgui.obj
 0001:00021290       ?SetFocusID@ImGui@@YAXIPEAUImGuiWindow@@@Z 0000000140022290 f   imgui.obj
 0001:00021b20       ?NavInitWindow@ImGui@@YAXPEAUImGuiWindow@@_N@Z 0000000140022b20 f   imgui.obj
 0001:00021d80       ?GetNavInputAmount@ImGui@@YAMHW4ImGuiInputReadMode@@@Z 0000000140022d80 f   imgui.obj
 0001:00021f30       ?GetNavInputAmount2d@ImGui@@YA?AUImVec2@@HW4ImGuiInputReadMode@@MM@Z 0000000140022f30 f   imgui.obj
 0001:000247d0       ?ClearDragDrop@ImGui@@YAXXZ 00000001400257d0 f   imgui.obj
 0001:00024890       ?LogText@ImGui@@YAXPEBDZZ  0000000140025890 f   imgui.obj
 0001:00024990       ?LogRenderedText@ImGui@@YAXPEBUImVec2@@PEBD1@Z 0000000140025990 f   imgui.obj
 0001:00024b30       ?LogFinish@ImGui@@YAXXZ    0000000140025b30 f   imgui.obj
 0001:00024c40       ?CreateNewWindowSettings@ImGui@@YAPEAUImGuiWindowSettings@@PEBD@Z 0000000140025c40 f   imgui.obj
 0001:00024d40       ?FindWindowSettings@ImGui@@YAPEAUImGuiWindowSettings@@I@Z 0000000140025d40 f   imgui.obj
 0001:00024e30       ?LoadIniSettingsFromMemory@ImGui@@YAXPEBD_K@Z 0000000140025e30 f   imgui.obj
 0001:00025180       ?SaveIniSettingsToDisk@ImGui@@YAXPEBD@Z 0000000140026180 f   imgui.obj
 0001:00025a00       ?resize@?$ImVector@UImGuiGroupData@@@@QEAAXH@Z 0000000140026a00 f i imgui.obj
 0001:00025af0       ?Clear@?$ImPool@UImGuiTabBar@@@@QEAAXXZ 0000000140026af0 f i imgui.obj
 0001:00025c30       ??1?$ImPool@UImGuiTabBar@@@@QEAA@XZ 0000000140026c30 f i imgui.obj
 0001:00025c90       ?push_back@?$ImVector@UImGuiPopupData@@@@QEAAXAEBUImGuiPopupData@@@Z 0000000140026c90 f i imgui.obj
 0001:00025d10       ?push_back@?$ImVector@UImGuiStyleMod@@@@QEAAXAEBUImGuiStyleMod@@@Z 0000000140026d10 f i imgui.obj
 0001:00025e00       ?push_back@?$ImVector@UImGuiColorMod@@@@QEAAXAEBUImGuiColorMod@@@Z 0000000140026e00 f i imgui.obj
 0001:00025ef0       ?reserve@?$ImVector@UImVec2@@@@QEAAXH@Z 0000000140026ef0 f i imgui.obj
 0001:00025ef0       ?reserve@?$ImVector@PEAX@@QEAAXH@Z 0000000140026ef0 f i imgui_draw.obj
 0001:00025ef0       ?reserve@?$ImVector@PEAUImGuiWindow@@@@QEAAXH@Z 0000000140026ef0 f i imgui.obj
 0001:00025f90       ?resize@?$ImVector@PEAUImDrawList@@@@QEAAXH@Z 0000000140026f90 f i imgui.obj
 0001:00026080       ??0?$ImVector@PEAUImDrawList@@@@QEAA@XZ 0000000140027080 f i imgui.obj
 0001:00026090       ?push_back@?$ImVector@PEAUImFont@@@@QEAAXAEBQEAUImFont@@@Z 0000000140027090 f i imgui.obj
 0001:00026170       ?reserve@?$ImVector@UImDrawVert@@@@QEAAXH@Z 0000000140027170 f i imgui.obj
 0001:00026210       ?insert@?$ImVector@UImGuiStoragePair@ImGuiStorage@@@@QEAAPEAUImGuiStoragePair@ImGuiStorage@@PEBU23@AEBU23@@Z 0000000140027210 f i imgui.obj
 0001:00026360       ?reserve@?$ImVector@D@@QEAAXH@Z 0000000140027360 f i imgui.obj
 0001:000263f0       ?reserve@?$ImVector@G@@QEAAXH@Z 00000001400273f0 f i imgui.obj
 0001:00026480       ?reserve@?$ImVector@I@@QEAAXH@Z 0000000140027480 f i imgui.obj
 0001:00026480       ?reserve@?$ImVector@H@@QEAAXH@Z 0000000140027480 f i imgui.obj
 0001:00026480       ?reserve@?$ImVector@M@@QEAAXH@Z 0000000140027480 f i imgui.obj
 0001:00026520       ?reserve@?$ImVector@UImGuiPopupData@@@@QEAAXH@Z 0000000140027520 f i imgui.obj
 0001:000265c0       ??1ImGuiContext@@QEAA@XZ   00000001400275c0 f i imgui.obj
 0001:000269d0       sprintf                    00000001400279d0 f i imgui_demo.obj
 0001:0002e0f0       ?StyleColorsDark@ImGui@@YAXPEAUImGuiStyle@@@Z 000000014002f0f0 f   imgui_draw.obj
 0001:0002e5f0       ?Clear@ImDrawList@@QEAAXXZ 000000014002f5f0 f   imgui_draw.obj
 0001:0002e720       ?ClearFreeMemory@ImDrawList@@QEAAXXZ 000000014002f720 f   imgui_draw.obj
 0001:0002e850       ?AddDrawCmd@ImDrawList@@QEAAXXZ 000000014002f850 f   imgui_draw.obj
 0001:0002e960       ?UpdateClipRect@ImDrawList@@QEAAXXZ 000000014002f960 f   imgui_draw.obj
 0001:0002ea60       ?UpdateTextureID@ImDrawList@@QEAAXXZ 000000014002fa60 f   imgui_draw.obj
 0001:0002eba0       ?PushClipRect@ImDrawList@@QEAAXUImVec2@@0_N@Z 000000014002fba0 f   imgui_draw.obj
 0001:0002ecd0       ?PushTextureID@ImDrawList@@QEAAXPEAX@Z 000000014002fcd0 f   imgui_draw.obj
 0001:0002ed50       ?PrimReserve@ImDrawList@@QEAAXHH@Z 000000014002fd50 f   imgui_draw.obj
 0001:0002ee50       ?PrimRectUV@ImDrawList@@QEAAXAEBUImVec2@@000I@Z 000000014002fe50 f   imgui_draw.obj
 0001:0002efa0       ?AddPolyline@ImDrawList@@QEAAXPEBUImVec2@@HI_NM@Z 000000014002ffa0 f   imgui_draw.obj
 0001:0002fd00       ?AddConvexPolyFilled@ImDrawList@@QEAAXPEBUImVec2@@HI@Z 0000000140030d00 f   imgui_draw.obj
 0001:000302a0       ?PathArcToFast@ImDrawList@@QEAAXAEBUImVec2@@MHH@Z 00000001400312a0 f   imgui_draw.obj
 0001:00030420       ?PathArcTo@ImDrawList@@QEAAXAEBUImVec2@@MMMH@Z 0000000140031420 f   imgui_draw.obj
 0001:000305e0       ?PathRect@ImDrawList@@QEAAXAEBUImVec2@@0MH@Z 00000001400315e0 f   imgui_draw.obj
 0001:000309a0       ?AddLine@ImDrawList@@QEAAXAEBUImVec2@@0IM@Z 00000001400319a0 f   imgui_draw.obj
 0001:00030b00       ?AddRect@ImDrawList@@QEAAXAEBUImVec2@@0IMHM@Z 0000000140031b00 f   imgui_draw.obj
 0001:00030c00       ?AddRectFilled@ImDrawList@@QEAAXAEBUImVec2@@0IMH@Z 0000000140031c00 f   imgui_draw.obj
 0001:00030da0       ?AddTriangleFilled@ImDrawList@@QEAAXAEBUImVec2@@00I@Z 0000000140031da0 f   imgui_draw.obj
 0001:00030ef0       ?AddText@ImDrawList@@QEAAXPEBUImFont@@MAEBUImVec2@@IPEBD2MPEBUImVec4@@@Z 0000000140031ef0 f   imgui_draw.obj
 0001:000310e0       ?AddImage@ImDrawList@@QEAAXPEAXAEBUImVec2@@111I@Z 00000001400320e0 f   imgui_draw.obj
 0001:00031200       ?ClearFreeMemory@ImDrawListSplitter@@QEAAXXZ 0000000140032200 f   imgui_draw.obj
 0001:00031360       ?Merge@ImDrawListSplitter@@QEAAXPEAUImDrawList@@@Z 0000000140032360 f   imgui_draw.obj
 0001:000317f0       ?SetCurrentChannel@ImDrawListSplitter@@QEAAXPEAUImDrawList@@H@Z 00000001400327f0 f   imgui_draw.obj
 0001:000318a0       ??1ImFontAtlas@@QEAA@XZ    00000001400328a0 f   imgui_draw.obj
 0001:00031a90       ?ClearInputData@ImFontAtlas@@QEAAXXZ 0000000140032a90 f   imgui_draw.obj
 0001:00031d20       ?ClearTexData@ImFontAtlas@@QEAAXXZ 0000000140032d20 f   imgui_draw.obj
 0001:00031da0       ?GetTexDataAsRGBA32@ImFontAtlas@@QEAAXPEAPEAEPEAH11@Z 0000000140032da0 f   imgui_draw.obj
 0001:00032030       ?AddFont@ImFontAtlas@@QEAAPEAUImFont@@PEBUImFontConfig@@@Z 0000000140033030 f   imgui_draw.obj
 0001:00032370       ?AddFontFromMemoryTTF@ImFontAtlas@@QEAAPEAUImFont@@PEAXHMPEBUImFontConfig@@PEBG@Z 0000000140033370 f   imgui_draw.obj
 0001:00032560       ?AddFontFromMemoryCompressedTTF@ImFontAtlas@@QEAAPEAUImFont@@PEBXHMPEBUImFontConfig@@PEBG@Z 0000000140033560 f   imgui_draw.obj
 0001:000328d0       ?AddFontFromMemoryCompressedBase85TTF@ImFontAtlas@@QEAAPEAUImFont@@PEBDMPEBUImFontConfig@@PEBG@Z 00000001400338d0 f   imgui_draw.obj
 0001:00032a60       ?AddCustomRectRegular@ImFontAtlas@@QEAAHIHH@Z 0000000140033a60 f   imgui_draw.obj
 0001:00032b20       ?GetMouseCursorTexData@ImFontAtlas@@QEAA_NHPEAUImVec2@@0QEAU2@1@Z 0000000140033b20 f   imgui_draw.obj
 0001:00032cc0       ?ImFontAtlasBuildWithStbTruetype@@YA_NPEAUImFontAtlas@@@Z 0000000140033cc0 f   imgui_draw.obj
 0001:00034240       ?ImFontAtlasBuildPackCustomRects@@YAXPEAUImFontAtlas@@PEAX@Z 0000000140035240 f   imgui_draw.obj
 0001:00034af0       ?ImFontAtlasBuildFinish@@YAXPEAUImFontAtlas@@@Z 0000000140035af0 f   imgui_draw.obj
 0001:00034df0       ??1ImFont@@QEAA@XZ         0000000140035df0 f   imgui_draw.obj
 0001:00034e70       ?ClearOutputData@ImFont@@QEAAXXZ 0000000140035e70 f   imgui_draw.obj
 0001:00034f20       ?BuildLookupTable@ImFont@@QEAAXXZ 0000000140035f20 f   imgui_draw.obj
 0001:000353e0       ?GrowIndex@ImFont@@QEAAXH@Z 00000001400363e0 f   imgui_draw.obj
 0001:00035500       ?AddGlyph@ImFont@@QEAAXGMMMMMMMMM@Z 0000000140036500 f   imgui_draw.obj
 0001:000356b0       ?CalcWordWrapPositionA@ImFont@@QEBAPEBDMPEBD0M@Z 00000001400366b0 f   imgui_draw.obj
 0001:00035840       ?CalcTextSizeA@ImFont@@QEBA?AUImVec2@@MMMPEBD0PEAPEBD@Z 0000000140036840 f   imgui_draw.obj
 0001:00035a90       ?RenderText@ImFont@@QEBAXPEAUImDrawList@@MUImVec2@@IAEBUImVec4@@PEBD3M_N@Z 0000000140036a90 f   imgui_draw.obj
 0001:00036160       ?RenderArrow@ImGui@@YAXPEAUImDrawList@@UImVec2@@IHM@Z 0000000140037160 f   imgui_draw.obj
 0001:00036370       ?RenderCheckMark@ImGui@@YAXPEAUImDrawList@@UImVec2@@IM@Z 0000000140037370 f   imgui_draw.obj
 0001:00036570       ?RenderMouseCursor@ImGui@@YAXPEAUImDrawList@@UImVec2@@MHIII@Z 0000000140037570 f   imgui_draw.obj
 0001:00036d80       ?resize@?$ImVector@Ustbrp_rect@@@@QEAAXH@Z 0000000140037d80 f i imgui_draw.obj
 0001:00036e70       ?resize@?$ImVector@UImFontGlyph@@@@QEAAXH@Z 0000000140037e70 f i imgui_draw.obj
 0001:00036f60       ?push_back@?$ImVector@UImFontAtlasCustomRect@@@@QEAAXAEBUImFontAtlasCustomRect@@@Z 0000000140037f60 f i imgui_draw.obj
 0001:00037050       ?reserve@?$ImVector@UImVec4@@@@QEAAXH@Z 0000000140038050 f i imgui_draw.obj
 0001:000370f0       ?reserve@?$ImVector@UImDrawCmd@@@@QEAAXH@Z 00000001400380f0 f i imgui_draw.obj
 0001:00037420       ?ImGui_ImplOpenGL3_RenderDrawData@@YAXPEAUImDrawData@@@Z 0000000140038420 f   imgui_impl_opengl3.obj
 0001:00037b20       ?ImGui_ImplOpenGL3_CreateDeviceObjects@@YA_NXZ 0000000140038b20 f   imgui_impl_opengl3.obj
 0001:000385b0       ?ImGui_ImplSDL2_NewFrame@@YAXPEAUSDL_Window@@@Z 00000001400395b0 f   imgui_impl_sdl.obj
 0001:00038990       ?TextEx@ImGui@@YAXPEBD0H@Z 0000000140039990 f   imgui_widgets.obj
 0001:00039200       ?Text@ImGui@@YAXPEBDZZ     000000014003a200 f   imgui_widgets.obj
 0001:00039290       ?TextColored@ImGui@@YAXAEBUImVec4@@PEBDZZ 000000014003a290 f   imgui_widgets.obj
 0001:00039350       ?ButtonBehavior@ImGui@@YA_NAEBUImRect@@IPEA_N1H@Z 000000014003a350 f   imgui_widgets.obj
 0001:00039a70       ?ButtonEx@ImGui@@YA_NPEBDAEBUImVec2@@H@Z 000000014003aa70 f   imgui_widgets.obj
 0001:00039dc0       ?CollapseButton@ImGui@@YA_NIAEBUImVec2@@@Z 000000014003adc0 f   imgui_widgets.obj
 0001:0003a050       ?GetWindowScrollbarID@ImGui@@YAIPEAUImGuiWindow@@W4ImGuiAxis@@@Z 000000014003b050 f   imgui_widgets.obj
 0001:0003a0c0       ?Scrollbar@ImGui@@YAXW4ImGuiAxis@@@Z 000000014003b0c0 f   imgui_widgets.obj
 0001:0003a380       ?ScrollbarEx@ImGui@@YA_NAEBUImRect@@IW4ImGuiAxis@@PEAMMMH@Z 000000014003b380 f   imgui_widgets.obj
 0001:0003a990       ?Checkbox@ImGui@@YA_NPEBDPEA_N@Z 000000014003b990 f   imgui_widgets.obj
 0001:0003ae30       ?Dummy@ImGui@@YAXAEBUImVec2@@@Z 000000014003be30 f   imgui_widgets.obj
 0001:0003af90       ?DataTypeApplyOpFromText@ImGui@@YA_NPEBD0HPEAX0@Z 000000014003bf90 f   imgui_widgets.obj
 0001:0003b150       ?SliderScalar@ImGui@@YA_NPEBDHPEAXPEBX20M@Z 000000014003c150 f   imgui_widgets.obj
 0001:0003b6b0       ?TempInputScalar@ImGui@@YA_NAEBUImRect@@IPEBDHPEAX1@Z 000000014003c6b0 f   imgui_widgets.obj
 0001:0003ba10       ?InputScalar@ImGui@@YA_NPEBDHPEAXPEBX20H@Z 000000014003ca10 f   imgui_widgets.obj
 0001:0003ddd0       ?InputTextEx@ImGui@@YA_NPEBD0PEADHAEBUImVec2@@HP6AHPEAUImGuiInputTextCallbackData@@@ZPEAX@Z 000000014003edd0 f   imgui_widgets.obj
 0001:00041050       ?Selectable@ImGui@@YA_NPEBD_NHAEBUImVec2@@@Z 0000000140042050 f   imgui_widgets.obj
 0001:00041530       ?GetColumnOffset@ImGui@@YAMH@Z 0000000140042530 f   imgui_widgets.obj
 0001:000415e0       ?SetColumnOffset@ImGui@@YAXHM@Z 00000001400425e0 f   imgui_widgets.obj
 0001:00041840       ?EndColumns@ImGui@@YAXXZ   0000000140042840 f   imgui_widgets.obj
 0001:00041d30       ??$SliderBehaviorT@HHM@ImGui@@YA_NAEBUImRect@@IHPEAHHHPEBDMHPEAU1@@Z 0000000140042d30 f i imgui_widgets.obj
 0001:00042150       ??$RoundScalarWithFormatT@HH@ImGui@@YAHPEBDHH@Z 0000000140043150 f i imgui_widgets.obj
 0001:00042250       ?loadScript@luah@@YA_NPEAUlua_State@@AEBV?$basic_string@DU?$char_traits@D@std@@V?$allocator@D@2@@std@@@Z 0000000140043250 f   luaLibrary.obj
 0001:00042350       ??$_Emplace_reallocate@V?$basic_string@DU?$char_traits@D@std@@V?$allocator@D@2@@std@@@?$vector@V?$basic_string@DU?$char_traits@D@std@@V?$allocator@D@2@@std@@V?$allocator@V?$basic_string@DU?$char_traits@D@std@@V?$allocator@D@2@@std@@@2@@std@@QEAAPEAV?$basic_string@DU?$char_traits@D@std@@V?$allocator@D@2@@1@QEAV21@$$QEAV21@@Z 0000000140043350 f i luaLibrary.obj
 0001:000425d0       ??$_Reallocate_grow_by@V<lambda_319d5e083f45f90dcdce5dce53cbb275>@@D@?$basic_string@DU?$char_traits@D@std@@V?$allocator@D@2@@std@@AEAAAEAV01@_KV<lambda_319d5e083f45f90dcdce5dce53cbb275>@@D@Z 00000001400435d0 f i luaLibrary.obj
 0001:00042740       ??0logic_error@std@@QEAA@AEBV?$basic_string@DU?$char_traits@D@std@@V?$allocator@D@2@@1@@Z 0000000140043740 f i main.obj
 0001:000427b0       ?name@_System_error_category@std@@UEBAPEBDXZ 00000001400437b0 f i main.obj
 0001:000427c0       ?message@_System_error_category@std@@UEBA?AV?$basic_string@DU?$char_traits@D@std@@V?$allocator@D@2@@2@H@Z 00000001400437c0 f i main.obj
 0001:00042940       ?default_error_condition@_System_error_category@std@@UEBA?AVerror_condition@2@H@Z 0000000140043940 f i main.obj
 0001:000429e0       ?generic_category@std@@YAAEBVerror_category@1@XZ 00000001400439e0 f i main.obj
 0001:00042a20       ?system_category@std@@YAAEBVerror_category@1@XZ 0000000140043a20 f i main.obj
 0001:00042a60       ?InitCam@Camera@@QEAAXAEBU?$vec@$02M$0A@@glm@@MMMM@Z 0000000140043a60 f i main.obj
 0001:00042b70       ??0q3BodyDef@@QEAA@XZ      0000000140043b70 f i main.obj
 0001:00042c50       ??0Messager@@QEAA@XZ       0000000140043c50 f i main.obj
 0001:00042d60       ??1Message@@QEAA@XZ        0000000140043d60 f i main.obj
 0001:00042f30       ?init@Box@@QEAAXU?$vec@$02M$0A@@glm@@0PEAVq3Scene@@W4q3BodyType@@@Z 0000000140043f30 f i main.obj
 0001:00043120       ??1Messager@@QEAA@XZ       0000000140044120 f i main.obj
 0001:00043150       ??1path@v1@filesystem@experimental@std@@QEAA@XZ 0000000140044150 f i main.obj
 0001:00043150       ??1directory_entry@v1@filesystem@experimental@std@@QEAA@XZ 0000000140044150 f i world.obj
 0001:00043150       ??1?$basic_string@_WU?$char_traits@_W@std@@V?$allocator@_W@2@@std@@QEAA@XZ 0000000140044150 f i main.obj
 0001:000431c0       ??0animatedObject@@QEAA@XZ 00000001400441c0 f i main.obj
 0001:000433a0       ??1animatedObject@@QEAA@XZ 00000001400443a0 f i main.obj
 0001:00043500       ??1Emitter@@QEAA@XZ        0000000140044500 f i main.obj
 0001:00043550       ?rawgetfield@luabridge@@YAXPEAUlua_State@@HPEBD@Z 0000000140044550 f i main.obj
 0001:000435c0       ?rawsetfield@luabridge@@YAXPEAUlua_State@@HPEBD@Z 00000001400445c0 f i main.obj
 0001:00043640       ?getClass@Userdata@luabridge@@CAPEAV12@PEAUlua_State@@HPEBX1_N@Z 0000000140044640 f i main.obj
 0001:000437e0       ?throwBadArg@Userdata@luabridge@@CAPEAV12@PEAUlua_State@@H@Z 00000001400447e0 f i main.obj
 0001:00043910       ?get@?$Stack@V?$basic_string@DU?$char_traits@D@std@@V?$allocator@D@2@@std@@@luabridge@@SA?AV?$basic_string@DU?$char_traits@D@std@@V?$allocator@D@2@@std@@PEAUlua_State@@H@Z 0000000140044910 f i main.obj
 0001:000439f0       ?throwAtPanic@LuaException@luabridge@@CAHPEAUlua_State@@@Z 00000001400449f0 f i main.obj
 0001:00043a20       ??1Proxy@LuaRef@luabridge@@QEAA@XZ 0000000140044a20 f i main.obj
 0001:00043a50       ?indexMetaMethod@CFunc@luabridge@@SAHPEAUlua_State@@@Z 0000000140044a50 f i main.obj
 0001:00043cd0       ?newindexStaticMetaMethod@CFunc@luabridge@@SAHPEAUlua_State@@@Z 0000000140044cd0 f i main.obj
 0001:00043ce0       ?newindexObjectMetaMethod@CFunc@luabridge@@SAHPEAUlua_State@@@Z 0000000140044ce0 f i main.obj
 0001:00043cf0       ?newindexMetaMethod@CFunc@luabridge@@SAHPEAUlua_State@@_N@Z 0000000140044cf0 f i main.obj
 0001:00043f70       ?createConstTable@ClassBase@Namespace@luabridge@@IEAAXPEBD_N@Z 0000000140044f70 f i main.obj
 0001:000442c0       ?createStaticTable@ClassBase@Namespace@luabridge@@IEAAXPEBD@Z 00000001400452c0 f i main.obj
 0001:00044540       ?assertStackState@ClassBase@Namespace@luabridge@@IEBAXXZ 0000000140045540 f i main.obj
 0001:000445e0       ??0Namespace@luabridge@@AEAA@PEBDAEAV01@@Z 00000001400455e0 f i main.obj
 0001:000447f0       ??1ClassBase@Namespace@luabridge@@QEAA@XZ 00000001400457f0 f i main.obj
 0001:000447f0       ??1Namespace@luabridge@@QEAA@XZ 00000001400457f0 f i main.obj
 0001:000447f0       ??1?$Class@VEntity@@@Namespace@luabridge@@QEAA@XZ 00000001400457f0 f i main.obj
 0001:00044850       ??1Component@@UEAA@XZ      0000000140045850 f i main.obj
 0001:00044860       ??_EComponent@@UEAAPEAXI@Z 0000000140045860 f i * CIL library *:* CIL module *
 0001:00044860       ??_GComponent@@UEAAPEAXI@Z 0000000140045860 f i main.obj
 0001:00044890       ??0ObjectComponent@@QEAA@AEAVLuaRef@luabridge@@@Z 0000000140045890 f i main.obj
 0001:00044ee0       ??_GObjectComponent@@UEAAPEAXI@Z 0000000140045ee0 f i main.obj
 0001:00044ee0       ??_EObjectComponent@@UEAAPEAXI@Z 0000000140045ee0 f i * CIL library *:* CIL module *
 0001:00044f30       ??0GraphicsComponent@@QEAA@AEAVLuaRef@luabridge@@@Z 0000000140045f30 f i main.obj
 0001:000452f0       ??_GGraphicsComponent@@UEAAPEAXI@Z 00000001400462f0 f i main.obj
 0001:000452f0       ??_EGraphicsComponent@@UEAAPEAXI@Z 00000001400462f0 f i * CIL library *:* CIL module *
 0001:00045430       ??1?$map@V?$basic_string@DU?$char_traits@D@std@@V?$allocator@D@2@@std@@HU?$less@V?$basic_string@DU?$char_traits@D@std@@V?$allocator@D@2@@std@@@2@V?$allocator@U?$pair@$$CBV?$basic_string@DU?$char_traits@D@std@@V?$allocator@D@2@@std@@H@std@@@2@@std@@QEAA@XZ 0000000140046430 f i main.obj
 0001:00045460       ??0StaticGraphicsComponent@@QEAA@AEAVLuaRef@luabridge@@@Z 0000000140046460 f i main.obj
 0001:00045fc0       ??_GStaticGraphicsComponent@@UEAAPEAXI@Z 0000000140046fc0 f i main.obj
 0001:00045fc0       ??_EStaticGraphicsComponent@@UEAAPEAXI@Z 0000000140046fc0 f i * CIL library *:* CIL module *
 0001:00046070       ??0GUIComponent@@QEAA@AEAVLuaRef@luabridge@@@Z 0000000140047070 f i main.obj
 0001:00046580       ??_GGUIComponent@@UEAAPEAXI@Z 0000000140047580 f i main.obj
 0001:00046580       ??_EGUIComponent@@UEAAPEAXI@Z 0000000140047580 f i * CIL library *:* CIL module *
 0001:00046640       ??0CameraComponent@@QEAA@AEAVLuaRef@luabridge@@@Z 0000000140047640 f i main.obj
 0001:00046970       ??_ECameraComponent@@UEAAPEAXI@Z 0000000140047970 f i * CIL library *:* CIL module *
 0001:00046970       ??_GCameraComponent@@UEAAPEAXI@Z 0000000140047970 f i main.obj
 0001:000469a0       ??0ProjectileComponent@@QEAA@AEAVLuaRef@luabridge@@@Z 00000001400479a0 f i main.obj
 0001:00047530       ??_GProjectileComponent@@UEAAPEAXI@Z 0000000140048530 f i main.obj
 0001:00047530       ??_EProjectileComponent@@UEAAPEAXI@Z 0000000140048530 f i * CIL library *:* CIL module *
 0001:00047570       ??1ProjectileComponent@@UEAA@XZ 0000000140048570 f i main.obj
 0001:00047710       ??1Sound@@QEAA@XZ          0000000140048710 f i main.obj
 0001:00047740       ??4Object@@QEAAAEAV0@$$QEAV0@@Z 0000000140048740 f i main.obj
 0001:00047a90       ??4Mesh@@QEAAAEAV0@AEBV0@@Z 0000000140048a90 f i main.obj
 0001:00047b40       ??4IndexedModel@@QEAAAEAV0@$$QEAV0@@Z 0000000140048b40 f i main.obj
 0001:00047ce0       ??0Timer@@QEAA@V?$basic_string@DU?$char_traits@D@std@@V?$allocator@D@2@@std@@@Z 0000000140048ce0 f i main.obj
 0001:00047df0       ??1Timer@@QEAA@XZ          0000000140048df0 f i main.obj
 0001:00047f50       ??0Entity@@QEAA@PEAUlua_State@@@Z 0000000140048f50 f i main.obj
 0001:00048550       ?CompileLuaFunctions@Entity@@QEAAXPEAUlua_State@@@Z 0000000140049550 f i main.obj
 0001:00048830       ?OnStart@Entity@@QEAAXPEAUlua_State@@@Z 0000000140049830 f i main.obj
 0001:00048960       ?addFunctions@Entity@@QEAAXPEAUlua_State@@@Z 0000000140049960 f i main.obj
 0001:0004a790       ?Round@Entity@@QEAAMM@Z    000000014004b790 f i main.obj
 0001:0004a7a0       ?setCanBeHit@Entity@@QEAAX_N@Z 000000014004b7a0 f i main.obj
 0001:0004a7b0       ?setFloat@Entity@@QEAAXV?$basic_string@DU?$char_traits@D@std@@V?$allocator@D@2@@std@@M@Z 000000014004b7b0 f i main.obj
 0001:0004a860       ?getFloat@Entity@@QEAAMV?$basic_string@DU?$char_traits@D@std@@V?$allocator@D@2@@std@@@Z 000000014004b860 f i main.obj
 0001:0004a910       ?setGlobalFloat@Entity@@QEAAXV?$basic_string@DU?$char_traits@D@std@@V?$allocator@D@2@@std@@M@Z 000000014004b910 f i main.obj
 0001:0004a9c0       ?getGlobalFloat@Entity@@QEAAMV?$basic_string@DU?$char_traits@D@std@@V?$allocator@D@2@@std@@@Z 000000014004b9c0 f i main.obj
 0001:0004aa70       ?setGlobalBool@Entity@@QEAAXV?$basic_string@DU?$char_traits@D@std@@V?$allocator@D@2@@std@@_N@Z 000000014004ba70 f i main.obj
 0001:0004ab20       ?getGlobalBool@Entity@@QEAA_NV?$basic_string@DU?$char_traits@D@std@@V?$allocator@D@2@@std@@@Z 000000014004bb20 f i main.obj
 0001:0004abd0       ?setString@Entity@@QEAAXV?$basic_string@DU?$char_traits@D@std@@V?$allocator@D@2@@std@@0@Z 000000014004bbd0 f i main.obj
 0001:0004acf0       ?getString@Entity@@QEAA?AV?$basic_string@DU?$char_traits@D@std@@V?$allocator@D@2@@std@@V23@@Z 000000014004bcf0 f i main.obj
 0001:0004adb0       ?setBool@Entity@@QEAAXV?$basic_string@DU?$char_traits@D@std@@V?$allocator@D@2@@std@@_N@Z 000000014004bdb0 f i main.obj
 0001:0004ae60       ?getBool@Entity@@QEAA_NV?$basic_string@DU?$char_traits@D@std@@V?$allocator@D@2@@std@@@Z 000000014004be60 f i main.obj
 0001:0004af10       ?addComponent@Entity@@QEAAXVtype_index@std@@PEAVComponent@@@Z 000000014004bf10 f i main.obj
 0001:0004b030       ?clearAbilities@Entity@@QEAAXXZ 000000014004c030 f i main.obj
 0001:0004b080       ?getAbilityCount@Entity@@QEAAHXZ 000000014004c080 f i main.obj
 0001:0004b0a0       ?swapMap@Entity@@QEAAXXZ   000000014004c0a0 f i main.obj
 0001:0004b0b0       ?setMapTarget@Entity@@QEAAXV?$basic_string@DU?$char_traits@D@std@@V?$allocator@D@2@@std@@@Z 000000014004c0b0 f i main.obj
 0001:0004b150       ?getMoveDirX@Entity@@QEAAMXZ 000000014004c150 f i main.obj
 0001:0004b160       ?getMoveDirY@Entity@@QEAAMXZ 000000014004c160 f i main.obj
 0001:0004b170       ?getDefaultSpeed@Entity@@QEAAMXZ 000000014004c170 f i main.obj
 0001:0004b180       ?getPaused@Entity@@QEAA_NXZ 000000014004c180 f i main.obj
 0001:0004b190       ?setPaused@Entity@@QEAAX_N@Z 000000014004c190 f i main.obj
 0001:0004b1a0       ??1?$map@V?$basic_string@DU?$char_traits@D@std@@V?$allocator@D@2@@std@@V12@U?$less@V?$basic_string@DU?$char_traits@D@std@@V?$allocator@D@2@@std@@@2@V?$allocator@U?$pair@$$CBV?$basic_string@DU?$char_traits@D@std@@V?$allocator@D@2@@std@@V12@@std@@@2@@std@@QEAA@XZ 000000014004c1a0 f i main.obj
 0001:0004b1b0       ??1HealthBar@@QEAA@XZ      000000014004c1b0 f i main.obj
 0001:0004c3a0       ??0Skybox@@QEAA@XZ         000000014004d3a0 f i main.obj
 0001:0004c790       ??0Prop@@QEAA@V?$basic_string@DU?$char_traits@D@std@@V?$allocator@D@2@@std@@U?$vec@$02M$0A@@glm@@1MPEAVq3Scene@@_N@Z 000000014004d790 f i main.obj
 0001:0004da80       ?removeWord@EntitySystem@@QEAA?AV?$basic_string@DU?$char_traits@D@std@@V?$allocator@D@2@@std@@V23@0@Z 000000014004ea80 f i main.obj
 0001:0004da80       ?removeWord@Prop@@AEAA?AV?$basic_string@DU?$char_traits@D@std@@V?$allocator@D@2@@std@@V23@0@Z 000000014004ea80 f i main.obj
 0001:0004da80       ?removeWord@Map@@QEAA?AV?$basic_string@DU?$char_traits@D@std@@V?$allocator@D@2@@std@@V23@0@Z 000000014004ea80 f i main.obj
 0001:0004dd60       ?convertPath@Prop@@AEAA?AV?$basic_string@DU?$char_traits@D@std@@V?$allocator@D@2@@std@@V23@@Z 000000014004ed60 f i main.obj
 0001:0004e750       ?convertPath@EntitySystem@@QEAA?AV?$basic_string@DU?$char_traits@D@std@@V?$allocator@D@2@@std@@V23@@Z 000000014004f750 f i main.obj
 0001:0004f0f0       ?addProp@EntitySystem@@QEAAXV?$basic_string@DU?$char_traits@D@std@@V?$allocator@D@2@@std@@U?$vec@$02M$0A@@glm@@1M_N@Z 00000001400500f0 f i main.obj
 0001:0004f2a0       ?addEntityAtPos@EntitySystem@@QEAAXV?$basic_string@DU?$char_traits@D@std@@V?$allocator@D@2@@std@@0U?$vec@$01M$0A@@glm@@PEAUlua_State@@@Z 00000001400502a0 f i main.obj
 0001:0004f870       ??0EntitySystem@@QEAA@XZ   0000000140050870 f i main.obj
 0001:0004fb90       ?getMainCam@EntitySystem@@QEAA?AVCamera@@XZ 0000000140050b90 f i main.obj
 0001:0004fcf0       ?convertPath@Map@@QEAA?AV?$basic_string@DU?$char_traits@D@std@@V?$allocator@D@2@@std@@V23@@Z 0000000140050cf0 f i main.obj
 0001:00050560       ?init@Map@@QEAAXV?$basic_string@DU?$char_traits@D@std@@V?$allocator@D@2@@std@@PEAUlua_State@@@Z 0000000140051560 f i main.obj
 0001:000512a0       ??0World@@QEAA@XZ          00000001400522a0 f i main.obj
 0001:00051700       ??_EWorld@@UEAAPEAXI@Z     0000000140052700 f i * CIL library *:* CIL module *
 0001:00051700       ??_GWorld@@UEAAPEAXI@Z     0000000140052700 f i main.obj
 0001:00051780       ??1Map@@QEAA@XZ            0000000140052780 f i main.obj
 0001:00051800       ??1ProjectileManager@@QEAA@XZ 0000000140052800 f i main.obj
 0001:00051960       ??1CollisionSystem@@QEAA@XZ 0000000140052960 f i main.obj
 0001:00051a60       ??1EntitySystem@@QEAA@XZ   0000000140052a60 f i main.obj
 0001:00051d10       ??0FrameBuffer@@QEAA@XZ    0000000140052d10 f i main.obj
 0001:00052090       main                       0000000140053090 f   main.obj
 0001:00053000       ??1Skybox@@QEAA@XZ         0000000140054000 f i main.obj
 0001:00053010       ??1?$vector@UentitySpawnData@@V?$allocator@UentitySpawnData@@@std@@@std@@QEAA@XZ 0000000140054010 f i main.obj
 0001:000530d0       ??1?$_Tree@V?$_Tmap_traits@V?$basic_string@DU?$char_traits@D@std@@V?$allocator@D@2@@std@@V12@U?$less@V?$basic_string@DU?$char_traits@D@std@@V?$allocator@D@2@@std@@@2@V?$allocator@U?$pair@$$CBV?$basic_string@DU?$char_traits@D@std@@V?$allocator@D@2@@std@@V12@@std@@@2@$0A@@std@@@std@@QEAA@XZ 00000001400540d0 f i main.obj
 0001:00053140       ??1?$vector@VSpawnData@@V?$allocator@VSpawnData@@@std@@@std@@QEAA@XZ 0000000140054140 f i main.obj
 0001:00053250       ??1?$vector@UParticle@@V?$allocator@UParticle@@@std@@@std@@QEAA@XZ 0000000140054250 f i main.obj
 0001:000532d0       ??6?$basic_ostream@DU?$char_traits@D@std@@@std@@QEAAAEAV01@_J@Z 00000001400542d0 f i main.obj
 0001:00053480       ??1?$vector@VMessage@@V?$allocator@VMessage@@@std@@@std@@QEAA@XZ 0000000140054480 f i main.obj
 0001:00053540       ??0?$vector@V?$basic_string@DU?$char_traits@D@std@@V?$allocator@D@2@@std@@V?$allocator@V?$basic_string@DU?$char_traits@D@std@@V?$allocator@D@2@@std@@@2@@std@@QEAA@AEBV01@@Z 0000000140054540 f i main.obj
 0001:00053670       ?find@?$basic_string@DU?$char_traits@D@std@@V?$allocator@D@2@@std@@QEBA_KAEBV12@_K@Z 0000000140054670 f i main.obj
 0001:000536b0       ??1?$_Tidy_guard@V?$vector@V?$basic_string@DU?$char_traits@D@std@@V?$allocator@D@2@@std@@V?$allocator@V?$basic_string@DU?$char_traits@D@std@@V?$allocator@D@2@@std@@@2@@std@@@std@@QEAA@XZ 00000001400546b0 f i main.obj
 0001:00053720       ?assign@?$basic_string@_WU?$char_traits@_W@std@@V?$allocator@_W@2@@std@@QEAAAEAV12@_K_W@Z 0000000140054720 f i main.obj
 0001:000538c0       ?replace@?$basic_string@DU?$char_traits@D@std@@V?$allocator@D@2@@std@@QEAAAEAV12@_K_KQEBD0@Z 00000001400548c0 f i main.obj
 0001:00053a80       ??1StackPop@?$LuaRefBase@VProxy@LuaRef@luabridge@@V23@@luabridge@@QEAA@XZ 0000000140054a80 f i main.obj
 0001:00053a90       ??$move@AEAV?$tuple@P8EntitySystem@@EAAXPEAUlua_State@@@ZPEAV1@PEAU2@@std@@@std@@YA$$QEAV?$tuple@P8EntitySystem@@EAAXPEAUlua_State@@@ZPEAV1@PEAU2@@0@AEAV10@@Z 0000000140054a90 f i world.obj
 0001:00053a90       ?_Getal@?$_Tree@V?$_Tmap_traits@DUCharacter@@U?$less@D@std@@V?$allocator@U?$pair@$$CBDUCharacter@@@std@@@3@$0A@@std@@@std@@IEAAAEAV?$allocator@U?$_Tree_node@U?$pair@$$CBDUCharacter@@@std@@PEAX@std@@@2@XZ 0000000140054a90 f i main.obj
 0001:00053a90       ?setbuf@?$basic_streambuf@DU?$char_traits@D@std@@@std@@MEAAPEAV12@PEAD_J@Z 0000000140054a90 f i obj_loader.obj
 0001:00053a90       ??$forward@AEBV?$_Fake_no_copy_callable_adapter@P8EntitySystem@@EAAXPEAUlua_State@@@ZPEAV1@AEAPEAU2@@std@@@std@@YAAEBV?$_Fake_no_copy_callable_adapter@P8EntitySystem@@EAAXPEAUlua_State@@@ZPEAV1@AEAPEAU2@@0@AEBV10@@Z 0000000140054a90 f i world.obj
 0001:00053a90       ??$move@AEAV?$tuple@P8animatedObject@@EAAXXZPEAV1@@std@@@std@@YA$$QEAV?$tuple@P8animatedObject@@EAAXXZPEAV1@@0@AEAV10@@Z 0000000140054a90 f i world.obj
 0001:00053a90       ??$forward@AEBV?$_Fake_no_copy_callable_adapter@P8animatedObject@@EAAXXZPEAV1@@std@@@std@@YAAEBV?$_Fake_no_copy_callable_adapter@P8animatedObject@@EAAXXZPEAV1@@0@AEBV10@@Z 0000000140054a90 f i world.obj
 0001:00053aa0       ??$append@_WU?$char_traits@_W@std@@V?$allocator@_W@2@@path@v1@filesystem@experimental@std@@QEAAAEAV01234@AEBV?$basic_string@_WU?$char_traits@_W@std@@V?$allocator@_W@2@@4@@Z 0000000140054aa0 f i main.obj
 0001:00053c70       ??$?0DU?$char_traits@D@std@@V?$allocator@D@1@@path@v1@filesystem@experimental@std@@QEAA@AEBV?$basic_string@DU?$char_traits@D@std@@V?$allocator@D@2@@4@@Z 0000000140054c70 f i main.obj
 0001:00053d80       ??$cast@V?$basic_string@DU?$char_traits@D@std@@V?$allocator@D@2@@std@@@?$LuaRefBase@VProxy@LuaRef@luabridge@@V23@@luabridge@@QEBA?AV?$basic_string@DU?$char_traits@D@std@@V?$allocator@D@2@@std@@XZ 0000000140054d80 f i main.obj
 0001:00053ed0       ??$?0VProxy@LuaRef@luabridge@@V012@V012@@?$vec@$02M$0A@@glm@@QEAA@VProxy@LuaRef@luabridge@@00@Z 0000000140054ed0 f i main.obj
 0001:000540a0       ??$addFunction@XH@?$Class@VEntity@@@Namespace@luabridge@@QEAAAEAV012@PEBDP8Entity@@EAAXH@Z@Z 00000001400550a0 f i main.obj
 0001:00054200       ??$addFunction@H$$V@?$Class@VEntity@@@Namespace@luabridge@@QEAAAEAV012@PEBDP8Entity@@EAAHXZ@Z 0000000140055200 f i main.obj
 0001:00054360       ??$addFunction@XMMM@?$Class@VEntity@@@Namespace@luabridge@@QEAAAEAV012@PEBDP8Entity@@EAAXMMM@Z@Z 0000000140055360 f i main.obj
 0001:000544c0       ??$addFunction@M$$V@?$Class@VEntity@@@Namespace@luabridge@@QEAAAEAV012@PEBDP8Entity@@EAAMXZ@Z 00000001400554c0 f i main.obj
 0001:00054620       ??$addFunction@XMMMM@?$Class@VEntity@@@Namespace@luabridge@@QEAAAEAV012@PEBDP8Entity@@EAAXMMMM@Z@Z 0000000140055620 f i main.obj
 0001:00054780       ??$addFunction@XMM@?$Class@VEntity@@@Namespace@luabridge@@QEAAAEAV012@PEBDP8Entity@@EAAXMM@Z@Z 0000000140055780 f i main.obj
 0001:000548e0       ??$addFunction@X$$V@?$Class@VEntity@@@Namespace@luabridge@@QEAAAEAV012@PEBDP8Entity@@EAAXXZ@Z 00000001400558e0 f i main.obj
 0001:00054a40       ??$addFunction@XM@?$Class@VEntity@@@Namespace@luabridge@@QEAAAEAV012@PEBDP8Entity@@EAAXM@Z@Z 0000000140055a40 f i main.obj
 0001:00054ba0       ??$addFunction@_N$$V@?$Class@VEntity@@@Namespace@luabridge@@QEAAAEAV012@PEBDP8Entity@@EAA_NXZ@Z 0000000140055ba0 f i main.obj
 0001:00054d00       ??$addFunction@MV?$basic_string@DU?$char_traits@D@std@@V?$allocator@D@2@@std@@@?$Class@VEntity@@@Namespace@luabridge@@QEAAAEAV012@PEBDP8Entity@@EAAMV?$basic_string@DU?$char_traits@D@std@@V?$allocator@D@2@@std@@@Z@Z 0000000140055d00 f i main.obj
 0001:00054e60       ??$addFunction@XV?$basic_string@DU?$char_traits@D@std@@V?$allocator@D@2@@std@@M@?$Class@VEntity@@@Namespace@luabridge@@QEAAAEAV012@PEBDP8Entity@@EAAXV?$basic_string@DU?$char_traits@D@std@@V?$allocator@D@2@@std@@M@Z@Z 0000000140055e60 f i main.obj
 0001:00054fc0       ??$addFunction@_NV?$basic_string@DU?$char_traits@D@std@@V?$allocator@D@2@@std@@@?$Class@VEntity@@@Namespace@luabridge@@QEAAAEAV012@PEBDP8Entity@@EAA_NV?$basic_string@DU?$char_traits@D@std@@V?$allocator@D@2@@std@@@Z@Z 0000000140055fc0 f i main.obj
 0001:00055120       ??$addFunction@XV?$basic_string@DU?$char_traits@D@std@@V?$allocator@D@2@@std@@_N@?$Class@VEntity@@@Namespace@luabridge@@QEAAAEAV012@PEBDP8Entity@@EAAXV?$basic_string@DU?$char_traits@D@std@@V?$allocator@D@2@@std@@_N@Z@Z 0000000140056120 f i main.obj
 0001:00055280       ??$addFunction@XV?$basic_string@DU?$char_traits@D@std@@V?$allocator@D@2@@std@@V12@@?$Class@VEntity@@@Namespace@luabridge@@QEAAAEAV012@PEBDP8Entity@@EAAXV?$basic_string@DU?$char_traits@D@std@@V?$allocator@D@2@@std@@1@Z@Z 0000000140056280 f i main.obj
 0001:000553e0       ??$addFunction@V?$basic_string@DU?$char_traits@D@std@@V?$allocator@D@2@@std@@$$V@?$Class@VEntity@@@Namespace@luabridge@@QEAAAEAV012@PEBDP8Entity@@EAA?AV?$basic_string@DU?$char_traits@D@std@@V?$allocator@D@2@@std@@XZ@Z 00000001400563e0 f i main.obj
 0001:00055540       ??$addFunction@X_N@?$Class@VEntity@@@Namespace@luabridge@@QEAAAEAV012@PEBDP8Entity@@EAAX_N@Z@Z 0000000140056540 f i main.obj
 0001:000556a0       ??$addFunction@XV?$basic_string@DU?$char_traits@D@std@@V?$allocator@D@2@@std@@H@?$Class@VEntity@@@Namespace@luabridge@@QEAAAEAV012@PEBDP8Entity@@EAAXV?$basic_string@DU?$char_traits@D@std@@V?$allocator@D@2@@std@@H@Z@Z 00000001400566a0 f i main.obj
 0001:00055800       ??$addFunction@XV?$basic_string@DU?$char_traits@D@std@@V?$allocator@D@2@@std@@@?$Class@VEntity@@@Namespace@luabridge@@QEAAAEAV012@PEBDP8Entity@@EAAXV?$basic_string@DU?$char_traits@D@std@@V?$allocator@D@2@@std@@@Z@Z 0000000140056800 f i main.obj
 0001:00055960       ??$addFunction@V?$basic_string@DU?$char_traits@D@std@@V?$allocator@D@2@@std@@H@?$Class@VEntity@@@Namespace@luabridge@@QEAAAEAV012@PEBDP8Entity@@EAA?AV?$basic_string@DU?$char_traits@D@std@@V?$allocator@D@2@@std@@H@Z@Z 0000000140056960 f i main.obj
 0001:00055ac0       ??$_Emplace_reallocate@AEAY0BH@$$CBD@?$vector@V?$basic_string@DU?$char_traits@D@std@@V?$allocator@D@2@@std@@V?$allocator@V?$basic_string@DU?$char_traits@D@std@@V?$allocator@D@2@@std@@@2@@std@@QEAAPEAV?$basic_string@DU?$char_traits@D@std@@V?$allocator@D@2@@1@QEAV21@AEAY0BH@$$CBD@Z 0000000140056ac0 f i main.obj
 0001:00055ac0       ??$_Emplace_reallocate@AEAY0BE@$$CBD@?$vector@V?$basic_string@DU?$char_traits@D@std@@V?$allocator@D@2@@std@@V?$allocator@V?$basic_string@DU?$char_traits@D@std@@V?$allocator@D@2@@std@@@2@@std@@QEAAPEAV?$basic_string@DU?$char_traits@D@std@@V?$allocator@D@2@@1@QEAV21@AEAY0BE@$$CBD@Z 0000000140056ac0 f i main.obj
 0001:00055ac0       ??$_Emplace_reallocate@AEAY0BG@$$CBD@?$vector@V?$basic_string@DU?$char_traits@D@std@@V?$allocator@D@2@@std@@V?$allocator@V?$basic_string@DU?$char_traits@D@std@@V?$allocator@D@2@@std@@@2@@std@@QEAAPEAV?$basic_string@DU?$char_traits@D@std@@V?$allocator@D@2@@1@QEAV21@AEAY0BG@$$CBD@Z 0000000140056ac0 f i main.obj
 0001:00055da0       ??$?HDU?$char_traits@D@std@@V?$allocator@D@1@@std@@YA?AV?$basic_string@DU?$char_traits@D@std@@V?$allocator@D@2@@0@$$QEAV10@0@Z 0000000140056da0 f i main.obj
 0001:00055f00       ??$_Try_emplace@AEBV?$basic_string@DU?$char_traits@D@std@@V?$allocator@D@2@@std@@$$V@?$map@V?$basic_string@DU?$char_traits@D@std@@V?$allocator@D@2@@std@@V12@U?$less@V?$basic_string@DU?$char_traits@D@std@@V?$allocator@D@2@@std@@@2@V?$allocator@U?$pair@$$CBV?$basic_string@DU?$char_traits@D@std@@V?$allocator@D@2@@std@@V12@@std@@@2@@std@@AEAA?AU?$pair@PEAU?$_Tree_node@U?$pair@$$CBV?$basic_string@DU?$char_traits@D@std@@V?$allocator@D@2@@std@@V12@@std@@PEAX@std@@_N@1@AEBV?$basic_string@DU?$char_traits@D@std@@V?$allocator@D@2@@1@@Z 0000000140056f00 f i main.obj
 0001:00056090       ??$_Try_emplace@AEBV?$basic_string@DU?$char_traits@D@std@@V?$allocator@D@2@@std@@$$V@?$map@V?$basic_string@DU?$char_traits@D@std@@V?$allocator@D@2@@std@@_NU?$less@V?$basic_string@DU?$char_traits@D@std@@V?$allocator@D@2@@std@@@2@V?$allocator@U?$pair@$$CBV?$basic_string@DU?$char_traits@D@std@@V?$allocator@D@2@@std@@_N@std@@@2@@std@@AEAA?AU?$pair@PEAU?$_Tree_node@U?$pair@$$CBV?$basic_string@DU?$char_traits@D@std@@V?$allocator@D@2@@std@@_N@std@@PEAX@std@@_N@1@AEBV?$basic_string@DU?$char_traits@D@std@@V?$allocator@D@2@@1@@Z 0000000140057090 f i main.obj
 0001:00056210       ??$_Traits_find@U?$char_traits@D@std@@@std@@YA_KQEBD_K101@Z 0000000140057210 f i main.obj
 0001:000562d0       ??$_Reallocate_grow_by@V<lambda_16d2cb92461ac9818af78a76c749bd7f>@@_K_KPEBD_K@?$basic_string@DU?$char_traits@D@std@@V?$allocator@D@2@@std@@AEAAAEAV01@_KV<lambda_16d2cb92461ac9818af78a76c749bd7f>@@_K2PEBD2@Z 00000001400572d0 f i main.obj
 0001:000564a0       ??$_Erase_tree_and_orphan@V?$allocator@U?$_Tree_node@U?$pair@$$CBDUCharacter@@@std@@PEAX@std@@@std@@@?$_Tree_val@U?$_Tree_simple_types@U?$pair@$$CBDUCharacter@@@std@@@std@@@std@@QEAAXAEAV?$allocator@U?$_Tree_node@U?$pair@$$CBDUCharacter@@@std@@PEAX@std@@@1@PEAU?$_Tree_node@U?$pair@$$CBDUCharacter@@@std@@PEAX@1@@Z 00000001400574a0 f i main.obj
 0001:000564a0       ??$_Erase_tree@V?$allocator@U?$_Tree_node@U?$pair@$$CBDUCharacter@@@std@@PEAX@std@@@std@@@?$_Tree_val@U?$_Tree_simple_types@U?$pair@$$CBDUCharacter@@@std@@@std@@@std@@QEAAXAEAV?$allocator@U?$_Tree_node@U?$pair@$$CBDUCharacter@@@std@@PEAX@std@@@1@PEAU?$_Tree_node@U?$pair@$$CBDUCharacter@@@std@@PEAX@1@@Z 00000001400574a0 f i main.obj
 0001:000564f0       ?f@?$Call@P6AMMMMM@Z@CFunc@luabridge@@SAHPEAUlua_State@@@Z 00000001400574f0 f i main.obj
 0001:00056570       ??0?$Class@VEntity@@@Namespace@luabridge@@QEAA@PEBDAEAV12@@Z 0000000140057570 f i main.obj
 0001:00056860       ?append@?$basic_string@_WU?$char_traits@_W@std@@V?$allocator@_W@2@@std@@QEAAAEAV12@QEB_W_K@Z 0000000140057860 f i main.obj
 0001:000568e0       ??1?$_Tree_temp_node_alloc@V?$allocator@U?$_Tree_node@U?$pair@$$CBV?$basic_string@DU?$char_traits@D@std@@V?$allocator@D@2@@std@@V12@@std@@PEAX@std@@@std@@@std@@QEAA@XZ 00000001400578e0 f i main.obj
 0001:000568e0       ??1?$_Alloc_construct_ptr@V?$allocator@U?$_Tree_node@U?$pair@$$CBV?$basic_string@DU?$char_traits@D@std@@V?$allocator@D@2@@std@@V12@@std@@PEAX@std@@@std@@@std@@QEAA@XZ 00000001400578e0 f i main.obj
 0001:00056900       ?f@?$CallMember@P8Entity@@EAAXH@Z@CFunc@luabridge@@SAHPEAUlua_State@@@Z 0000000140057900 f i main.obj
 0001:000569d0       ?f@?$CallMember@P8Entity@@EAAHXZ@CFunc@luabridge@@SAHPEAUlua_State@@@Z 00000001400579d0 f i main.obj
 0001:00056aa0       ?f@?$CallMember@P8Entity@@EAAXMMM@Z@CFunc@luabridge@@SAHPEAUlua_State@@@Z 0000000140057aa0 f i main.obj
 0001:00056b70       ?f@?$CallMember@P8Entity@@EAAMXZ@CFunc@luabridge@@SAHPEAUlua_State@@@Z 0000000140057b70 f i main.obj
 0001:00056c40       ?f@?$CallMember@P8Entity@@EAAXMMMM@Z@CFunc@luabridge@@SAHPEAUlua_State@@@Z 0000000140057c40 f i main.obj
 0001:00056d10       ?f@?$CallMember@P8Entity@@EAAXMM@Z@CFunc@luabridge@@SAHPEAUlua_State@@@Z 0000000140057d10 f i main.obj
 0001:00056de0       ?f@?$CallMember@P8Entity@@EAAXXZ@CFunc@luabridge@@SAHPEAUlua_State@@@Z 0000000140057de0 f i main.obj
 0001:00056eb0       ?f@?$CallMember@P8Entity@@EAAXM@Z@CFunc@luabridge@@SAHPEAUlua_State@@@Z 0000000140057eb0 f i main.obj
 0001:00056f80       ?f@?$CallMember@P8Entity@@EAAXAEBV?$basic_string@DU?$char_traits@D@std@@V?$allocator@D@2@@std@@@Z@CFunc@luabridge@@SAHPEAUlua_State@@@Z 0000000140057f80 f i main.obj
 0001:00057050       ?f@?$CallMember@P8Entity@@EAAMMM@Z@CFunc@luabridge@@SAHPEAUlua_State@@@Z 0000000140058050 f i main.obj
 0001:00057120       ?f@?$CallMember@P8Entity@@EAAHHH@Z@CFunc@luabridge@@SAHPEAUlua_State@@@Z 0000000140058120 f i main.obj
 0001:000571f0       ?f@?$CallMember@P8Entity@@EAA_NHH@Z@CFunc@luabridge@@SAHPEAUlua_State@@@Z 00000001400581f0 f i main.obj
 0001:000572c0       ?f@?$CallMember@P8Entity@@EAAXV?$basic_string@DU?$char_traits@D@std@@V?$allocator@D@2@@std@@MM@Z@CFunc@luabridge@@SAHPEAUlua_State@@@Z 00000001400582c0 f i main.obj
 0001:00057390       ?f@?$CallMember@P8Entity@@EAA_NXZ@CFunc@luabridge@@SAHPEAUlua_State@@@Z 0000000140058390 f i main.obj
 0001:00057460       ?f@?$CallMember@P8Entity@@EAAMV?$basic_string@DU?$char_traits@D@std@@V?$allocator@D@2@@std@@@Z@CFunc@luabridge@@SAHPEAUlua_State@@@Z 0000000140058460 f i main.obj
 0001:00057530       ?f@?$CallMember@P8Entity@@EAAXV?$basic_string@DU?$char_traits@D@std@@V?$allocator@D@2@@std@@M@Z@CFunc@luabridge@@SAHPEAUlua_State@@@Z 0000000140058530 f i main.obj
 0001:00057600       ?f@?$CallMember@P8Entity@@EAA_NV?$basic_string@DU?$char_traits@D@std@@V?$allocator@D@2@@std@@@Z@CFunc@luabridge@@SAHPEAUlua_State@@@Z 0000000140058600 f i main.obj
 0001:000576d0       ?f@?$CallMember@P8Entity@@EAAXV?$basic_string@DU?$char_traits@D@std@@V?$allocator@D@2@@std@@_N@Z@CFunc@luabridge@@SAHPEAUlua_State@@@Z 00000001400586d0 f i main.obj
 0001:000577a0       ?f@?$CallMember@P8Entity@@EAA?AV?$basic_string@DU?$char_traits@D@std@@V?$allocator@D@2@@std@@V23@@Z@CFunc@luabridge@@SAHPEAUlua_State@@@Z 00000001400587a0 f i main.obj
 0001:00057870       ?f@?$CallMember@P8Entity@@EAAXV?$basic_string@DU?$char_traits@D@std@@V?$allocator@D@2@@std@@0@Z@CFunc@luabridge@@SAHPEAUlua_State@@@Z 0000000140058870 f i main.obj
 0001:00057940       ?f@?$CallMember@P8Entity@@EAA?AV?$basic_string@DU?$char_traits@D@std@@V?$allocator@D@2@@std@@XZ@CFunc@luabridge@@SAHPEAUlua_State@@@Z 0000000140058940 f i main.obj
 0001:00057a10       ?f@?$CallMember@P8Entity@@EAAX_N@Z@CFunc@luabridge@@SAHPEAUlua_State@@@Z 0000000140058a10 f i main.obj
 0001:00057ae0       ?f@?$CallMember@P8Entity@@EAAPEAV1@V?$basic_string@DU?$char_traits@D@std@@V?$allocator@D@2@@std@@@Z@CFunc@luabridge@@SAHPEAUlua_State@@@Z 0000000140058ae0 f i main.obj
 0001:00057bb0       ?f@?$CallMember@P8Entity@@EAAPEAV1@XZ@CFunc@luabridge@@SAHPEAUlua_State@@@Z 0000000140058bb0 f i main.obj
 0001:00057c80       ?f@?$CallMember@P8Entity@@EAAMMMMM@Z@CFunc@luabridge@@SAHPEAUlua_State@@@Z 0000000140058c80 f i main.obj
 0001:00057d50       ?f@?$CallMember@P8Entity@@EAAXV?$basic_string@DU?$char_traits@D@std@@V?$allocator@D@2@@std@@H@Z@CFunc@luabridge@@SAHPEAUlua_State@@@Z 0000000140058d50 f i main.obj
 0001:00057e20       ?f@?$CallMember@P8Entity@@EAAXV?$basic_string@DU?$char_traits@D@std@@V?$allocator@D@2@@std@@@Z@CFunc@luabridge@@SAHPEAUlua_State@@@Z 0000000140058e20 f i main.obj
 0001:00057ef0       ?f@?$CallMember@P8Entity@@EAAXHMMMM@Z@CFunc@luabridge@@SAHPEAUlua_State@@@Z 0000000140058ef0 f i main.obj
 0001:00057fc0       ?f@?$CallMember@P8Entity@@EAAHV?$basic_string@DU?$char_traits@D@std@@V?$allocator@D@2@@std@@@Z@CFunc@luabridge@@SAHPEAUlua_State@@@Z 0000000140058fc0 f i main.obj
 0001:00058090       ?f@?$CallMember@P8Entity@@EAAXV?$basic_string@DU?$char_traits@D@std@@V?$allocator@D@2@@std@@0MM@Z@CFunc@luabridge@@SAHPEAUlua_State@@@Z 0000000140059090 f i main.obj
 0001:00058160       ?f@?$CallMember@P8Entity@@EAAMM@Z@CFunc@luabridge@@SAHPEAUlua_State@@@Z 0000000140059160 f i main.obj
 0001:00058230       ?f@?$CallMember@P8Entity@@EAA?AV?$basic_string@DU?$char_traits@D@std@@V?$allocator@D@2@@std@@H@Z@CFunc@luabridge@@SAHPEAUlua_State@@@Z 0000000140059230 f i main.obj
 0001:00058300       ?f@?$CallMember@P8Entity@@EAAXU?$vec@$03M$0A@@glm@@@Z@CFunc@luabridge@@SAHPEAUlua_State@@@Z 0000000140059300 f i main.obj
 0001:000583d0       ??1?$_Alloc_construct_ptr@V?$allocator@U?$_Tree_node@U?$pair@$$CBUOBJIndex@@I@std@@PEAX@std@@@std@@@std@@QEAA@XZ 00000001400593d0 f i obj_loader.obj
 0001:000583d0       ??1?$_Alloc_construct_ptr@V?$allocator@U?$_Tree_node@U?$pair@$$CBVtype_index@std@@PEAVComponent@@@std@@PEAX@std@@@std@@@std@@QEAA@XZ 00000001400593d0 f i main.obj
 0001:000583f0       ??$_Immortalize_impl@V_Generic_error_category@std@@@std@@YAHPEAX0PEAPEAX@Z 00000001400593f0 f i main.obj
 0001:00058410       ??$_Immortalize_impl@V_System_error_category@std@@@std@@YAHPEAX0PEAPEAX@Z 0000000140059410 f i main.obj
 0001:00058430       ??$transform@V?$_String_const_iterator@V?$_String_val@U?$_Simple_types@_W@std@@@std@@@std@@V?$_String_iterator@V?$_String_val@U?$_Simple_types@_W@std@@@std@@@2@V<lambda_0c6dd06cec009f32ebc5b95812f66030>@@@std@@YA?AV?$_String_iterator@V?$_String_val@U?$_Simple_types@_W@std@@@std@@@0@V?$_String_const_iterator@V?$_String_val@U?$_Simple_types@_W@std@@@std@@@0@0V10@V<lambda_0c6dd06cec009f32ebc5b95812f66030>@@@Z 0000000140059430 f i main.obj
 0001:00058580       ??$_Erase_tree@V?$allocator@U?$_Tree_node@U?$pair@$$CBV?$basic_string@DU?$char_traits@D@std@@V?$allocator@D@2@@std@@V12@@std@@PEAX@std@@@std@@@?$_Tree_val@U?$_Tree_simple_types@U?$pair@$$CBV?$basic_string@DU?$char_traits@D@std@@V?$allocator@D@2@@std@@V12@@std@@@std@@@std@@QEAAXAEAV?$allocator@U?$_Tree_node@U?$pair@$$CBV?$basic_string@DU?$char_traits@D@std@@V?$allocator@D@2@@std@@V12@@std@@PEAX@std@@@1@PEAU?$_Tree_node@U?$pair@$$CBV?$basic_string@DU?$char_traits@D@std@@V?$allocator@D@2@@std@@V12@@std@@PEAX@1@@Z 0000000140059580 f i main.obj
 0001:000585e0       ??$_Copy_nodes@U_Copy_tag@?$_Tree@V?$_Tmap_traits@DUCharacter@@U?$less@D@std@@V?$allocator@U?$pair@$$CBDUCharacter@@@std@@@3@$0A@@std@@@std@@@?$_Tree@V?$_Tmap_traits@DUCharacter@@U?$less@D@std@@V?$allocator@U?$pair@$$CBDUCharacter@@@std@@@3@$0A@@std@@@std@@IEAAPEAU?$_Tree_node@U?$pair@$$CBDUCharacter@@@std@@PEAX@1@PEAU21@0U_Copy_tag@01@@Z 00000001400595e0 f i main.obj
 0001:000586c0       ??$run@P6AMMMMM@Z@?$Invoke@MU?$TypeList@MU?$TypeList@MU?$TypeList@MU?$TypeList@MX@luabridge@@@luabridge@@@luabridge@@@luabridge@@$00@luabridge@@SAHPEAUlua_State@@AEAP6AMMMMM@Z@Z 00000001400596c0 f i main.obj
 0001:00058780       ??$gcMetaMethod@VEntity@@@CFunc@luabridge@@SAHPEAUlua_State@@@Z 0000000140059780 f i main.obj
 0001:000587b0       ??$_Reallocate_grow_by@V<lambda_25953b27f3c43b57ba59f021c7f225c5>@@_W@?$basic_string@_WU?$char_traits@_W@std@@V?$allocator@_W@2@@std@@AEAAAEAV01@_KV<lambda_25953b27f3c43b57ba59f021c7f225c5>@@_W@Z 00000001400597b0 f i main.obj
 0001:00058950       ??$_Reallocate_grow_by@V<lambda_1dfe18491bcca09701d8ccb01d0b0af4>@@PEB_W_K@?$basic_string@_WU?$char_traits@_W@std@@V?$allocator@_W@2@@std@@AEAAAEAV01@_KV<lambda_1dfe18491bcca09701d8ccb01d0b0af4>@@PEB_W_K@Z 0000000140059950 f i main.obj
 0001:00058b10       ??$run@VEntity@@P81@EAAXH@Z@?$Invoke@XU?$TypeList@HX@luabridge@@$01@luabridge@@SAHPEAUlua_State@@PEAVEntity@@AEBQ83@EAAXH@Z@Z 0000000140059b10 f i main.obj
 0001:00058b50       ??$run@VEntity@@P81@EAAHXZ@?$Invoke@HX$01@luabridge@@SAHPEAUlua_State@@PEAVEntity@@AEBQ83@EAAHXZ@Z 0000000140059b50 f i main.obj
 0001:00058b90       ??$run@VEntity@@P81@EAAXMMM@Z@?$Invoke@XU?$TypeList@MU?$TypeList@MU?$TypeList@MX@luabridge@@@luabridge@@@luabridge@@$01@luabridge@@SAHPEAUlua_State@@PEAVEntity@@AEBQ83@EAAXMMM@Z@Z 0000000140059b90 f i main.obj
 0001:00058c30       ??$run@VEntity@@P81@EAAMXZ@?$Invoke@MX$01@luabridge@@SAHPEAUlua_State@@PEAVEntity@@AEBQ83@EAAMXZ@Z 0000000140059c30 f i main.obj
 0001:00058c70       ??$run@VEntity@@P81@EAAXMMMM@Z@?$Invoke@XU?$TypeList@MU?$TypeList@MU?$TypeList@MU?$TypeList@MX@luabridge@@@luabridge@@@luabridge@@@luabridge@@$01@luabridge@@SAHPEAUlua_State@@PEAVEntity@@AEBQ83@EAAXMMMM@Z@Z 0000000140059c70 f i main.obj
 0001:00058cd0       ??$run@VEntity@@P81@EAAXMM@Z@?$Invoke@XU?$TypeList@MU?$TypeList@MX@luabridge@@@luabridge@@$01@luabridge@@SAHPEAUlua_State@@PEAVEntity@@AEBQ83@EAAXMM@Z@Z 0000000140059cd0 f i main.obj
 0001:00058d50       ??$run@VEntity@@P81@EAAXXZ@?$Invoke@XX$01@luabridge@@SAHPEAUlua_State@@PEAVEntity@@AEBQ83@EAAXXZ@Z 0000000140059d50 f i main.obj
 0001:00058d70       ??$run@VEntity@@P81@EAAXM@Z@?$Invoke@XU?$TypeList@MX@luabridge@@$01@luabridge@@SAHPEAUlua_State@@PEAVEntity@@AEBQ83@EAAXM@Z@Z 0000000140059d70 f i main.obj
 0001:00058dd0       ??$run@VEntity@@P81@EAAXAEBV?$basic_string@DU?$char_traits@D@std@@V?$allocator@D@2@@std@@@Z@?$Invoke@XU?$TypeList@AEBV?$basic_string@DU?$char_traits@D@std@@V?$allocator@D@2@@std@@X@luabridge@@$01@luabridge@@SAHPEAUlua_State@@PEAVEntity@@AEBQ83@EAAXAEBV?$basic_string@DU?$char_traits@D@std@@V?$allocator@D@2@@std@@@Z@Z 0000000140059dd0 f i main.obj
 0001:00058f30       ??$run@VEntity@@P81@EAAMMM@Z@?$Invoke@MU?$TypeList@MU?$TypeList@MX@luabridge@@@luabridge@@$01@luabridge@@SAHPEAUlua_State@@PEAVEntity@@AEBQ83@EAAMMM@Z@Z 0000000140059f30 f i main.obj
 0001:00058fc0       ??$run@VEntity@@P81@EAAHHH@Z@?$Invoke@HU?$TypeList@HU?$TypeList@HX@luabridge@@@luabridge@@$01@luabridge@@SAHPEAUlua_State@@PEAVEntity@@AEBQ83@EAAHHH@Z@Z 0000000140059fc0 f i main.obj
 0001:00059040       ??$run@VEntity@@P81@EAA_NHH@Z@?$Invoke@_NU?$TypeList@HU?$TypeList@HX@luabridge@@@luabridge@@$01@luabridge@@SAHPEAUlua_State@@PEAVEntity@@AEBQ83@EAA_NHH@Z@Z 000000014005a040 f i main.obj
 0001:000590d0       ??$run@VEntity@@P81@EAAXV?$basic_string@DU?$char_traits@D@std@@V?$allocator@D@2@@std@@MM@Z@?$Invoke@XU?$TypeList@V?$basic_string@DU?$char_traits@D@std@@V?$allocator@D@2@@std@@U?$TypeList@MU?$TypeList@MX@luabridge@@@luabridge@@@luabridge@@$01@luabridge@@SAHPEAUlua_State@@PEAVEntity@@AEBQ83@EAAXV?$basic_string@DU?$char_traits@D@std@@V?$allocator@D@2@@std@@MM@Z@Z 000000014005a0d0 f i main.obj
 0001:000593b0       ??$run@VEntity@@P81@EAA_NXZ@?$Invoke@_NX$01@luabridge@@SAHPEAUlua_State@@PEAVEntity@@AEBQ83@EAA_NXZ@Z 000000014005a3b0 f i main.obj
 0001:000593f0       ??$run@VEntity@@P81@EAAMV?$basic_string@DU?$char_traits@D@std@@V?$allocator@D@2@@std@@@Z@?$Invoke@MU?$TypeList@V?$basic_string@DU?$char_traits@D@std@@V?$allocator@D@2@@std@@X@luabridge@@$01@luabridge@@SAHPEAUlua_State@@PEAVEntity@@AEBQ83@EAAMV?$basic_string@DU?$char_traits@D@std@@V?$allocator@D@2@@std@@@Z@Z 000000014005a3f0 f i main.obj
 0001:00059550       ??$run@VEntity@@P81@EAAXV?$basic_string@DU?$char_traits@D@std@@V?$allocator@D@2@@std@@M@Z@?$Invoke@XU?$TypeList@V?$basic_string@DU?$char_traits@D@std@@V?$allocator@D@2@@std@@U?$TypeList@MX@luabridge@@@luabridge@@$01@luabridge@@SAHPEAUlua_State@@PEAVEntity@@AEBQ83@EAAXV?$basic_string@DU?$char_traits@D@std@@V?$allocator@D@2@@std@@M@Z@Z 000000014005a550 f i main.obj
 0001:000597e0       ??$run@VEntity@@P81@EAA_NV?$basic_string@DU?$char_traits@D@std@@V?$allocator@D@2@@std@@@Z@?$Invoke@_NU?$TypeList@V?$basic_string@DU?$char_traits@D@std@@V?$allocator@D@2@@std@@X@luabridge@@$01@luabridge@@SAHPEAUlua_State@@PEAVEntity@@AEBQ83@EAA_NV?$basic_string@DU?$char_traits@D@std@@V?$allocator@D@2@@std@@@Z@Z 000000014005a7e0 f i main.obj
 0001:00059930       ??$run@VEntity@@P81@EAAXV?$basic_string@DU?$char_traits@D@std@@V?$allocator@D@2@@std@@_N@Z@?$Invoke@XU?$TypeList@V?$basic_string@DU?$char_traits@D@std@@V?$allocator@D@2@@std@@U?$TypeList@_NX@luabridge@@@luabridge@@$01@luabridge@@SAHPEAUlua_State@@PEAVEntity@@AEBQ83@EAAXV?$basic_string@DU?$char_traits@D@std@@V?$allocator@D@2@@std@@_N@Z@Z 000000014005a930 f i main.obj
 0001:00059bc0       ??$run@VEntity@@P81@EAA?AV?$basic_string@DU?$char_traits@D@std@@V?$allocator@D@2@@std@@V23@@Z@?$Invoke@V?$basic_string@DU?$char_traits@D@std@@V?$allocator@D@2@@std@@U?$TypeList@V?$basic_string@DU?$char_traits@D@std@@V?$allocator@D@2@@std@@X@luabridge@@$01@luabridge@@SAHPEAUlua_State@@PEAVEntity@@AEBQ83@EAA?AV?$basic_string@DU?$char_traits@D@std@@V?$allocator@D@2@@std@@V45@@Z@Z 000000014005abc0 f i main.obj
 0001:00059de0       ??$run@VEntity@@P81@EAAXV?$basic_string@DU?$char_traits@D@std@@V?$allocator@D@2@@std@@0@Z@?$Invoke@XU?$TypeList@V?$basic_string@DU?$char_traits@D@std@@V?$allocator@D@2@@std@@U?$TypeList@V?$basic_string@DU?$char_traits@D@std@@V?$allocator@D@2@@std@@X@luabridge@@@luabridge@@$01@luabridge@@SAHPEAUlua_State@@PEAVEntity@@AEBQ83@EAAXV?$basic_string@DU?$char_traits@D@std@@V?$allocator@D@2@@std@@2@Z@Z 000000014005ade0 f i main.obj
 0001:00059ed0       ??$run@VEntity@@P81@EAA?AV?$basic_string@DU?$char_traits@D@std@@V?$allocator@D@2@@std@@XZ@?$Invoke@V?$basic_string@DU?$char_traits@D@std@@V?$allocator@D@2@@std@@X$01@luabridge@@SAHPEAUlua_State@@PEAVEntity@@AEBQ83@EAA?AV?$basic_string@DU?$char_traits@D@std@@V?$allocator@D@2@@std@@XZ@Z 000000014005aed0 f i main.obj
 0001:00059fc0       ??$run@VEntity@@P81@EAAX_N@Z@?$Invoke@XU?$TypeList@_NX@luabridge@@$01@luabridge@@SAHPEAUlua_State@@PEAVEntity@@AEBQ83@EAAX_N@Z@Z 000000014005afc0 f i main.obj
 0001:0005a000       ??$run@VEntity@@P81@EAAPEAV1@V?$basic_string@DU?$char_traits@D@std@@V?$allocator@D@2@@std@@@Z@?$Invoke@PEAVEntity@@U?$TypeList@V?$basic_string@DU?$char_traits@D@std@@V?$allocator@D@2@@std@@X@luabridge@@$01@luabridge@@SAHPEAUlua_State@@PEAVEntity@@AEBQ83@EAAPEAV3@V?$basic_string@DU?$char_traits@D@std@@V?$allocator@D@2@@std@@@Z@Z 000000014005b000 f i main.obj
 0001:0005a150       ??$run@VEntity@@P81@EAAPEAV1@XZ@?$Invoke@PEAVEntity@@X$01@luabridge@@SAHPEAUlua_State@@PEAVEntity@@AEBQ83@EAAPEAV3@XZ@Z 000000014005b150 f i main.obj
 0001:0005a190       ??$run@VEntity@@P81@EAAMMMMM@Z@?$Invoke@MU?$TypeList@MU?$TypeList@MU?$TypeList@MU?$TypeList@MX@luabridge@@@luabridge@@@luabridge@@@luabridge@@$01@luabridge@@SAHPEAUlua_State@@PEAVEntity@@AEBQ83@EAAMMMMM@Z@Z 000000014005b190 f i main.obj
 0001:0005a210       ??$run@VEntity@@P81@EAAXV?$basic_string@DU?$char_traits@D@std@@V?$allocator@D@2@@std@@H@Z@?$Invoke@XU?$TypeList@V?$basic_string@DU?$char_traits@D@std@@V?$allocator@D@2@@std@@U?$TypeList@HX@luabridge@@@luabridge@@$01@luabridge@@SAHPEAUlua_State@@PEAVEntity@@AEBQ83@EAAXV?$basic_string@DU?$char_traits@D@std@@V?$allocator@D@2@@std@@H@Z@Z 000000014005b210 f i main.obj
 0001:0005a4a0       ??$run@VEntity@@P81@EAAXV?$basic_string@DU?$char_traits@D@std@@V?$allocator@D@2@@std@@@Z@?$Invoke@XU?$TypeList@V?$basic_string@DU?$char_traits@D@std@@V?$allocator@D@2@@std@@X@luabridge@@$01@luabridge@@SAHPEAUlua_State@@PEAVEntity@@AEBQ83@EAAXV?$basic_string@DU?$char_traits@D@std@@V?$allocator@D@2@@std@@@Z@Z 000000014005b4a0 f i main.obj
 0001:0005a5c0       ??$run@VEntity@@P81@EAAXHMMMM@Z@?$Invoke@XU?$TypeList@HU?$TypeList@MU?$TypeList@MU?$TypeList@MU?$TypeList@MX@luabridge@@@luabridge@@@luabridge@@@luabridge@@@luabridge@@$01@luabridge@@SAHPEAUlua_State@@PEAVEntity@@AEBQ83@EAAXHMMMM@Z@Z 000000014005b5c0 f i main.obj
 0001:0005a6e0       ??$run@VEntity@@P81@EAAHV?$basic_string@DU?$char_traits@D@std@@V?$allocator@D@2@@std@@@Z@?$Invoke@HU?$TypeList@V?$basic_string@DU?$char_traits@D@std@@V?$allocator@D@2@@std@@X@luabridge@@$01@luabridge@@SAHPEAUlua_State@@PEAVEntity@@AEBQ83@EAAHV?$basic_string@DU?$char_traits@D@std@@V?$allocator@D@2@@std@@@Z@Z 000000014005b6e0 f i main.obj
 0001:0005a830       ??$run@VEntity@@P81@EAAXV?$basic_string@DU?$char_traits@D@std@@V?$allocator@D@2@@std@@0MM@Z@?$Invoke@XU?$TypeList@V?$basic_string@DU?$char_traits@D@std@@V?$allocator@D@2@@std@@U?$TypeList@V?$basic_string@DU?$char_traits@D@std@@V?$allocator@D@2@@std@@U?$TypeList@MU?$TypeList@MX@luabridge@@@luabridge@@@luabridge@@@luabridge@@$01@luabridge@@SAHPEAUlua_State@@PEAVEntity@@AEBQ83@EAAXV?$basic_string@DU?$char_traits@D@std@@V?$allocator@D@2@@std@@2MM@Z@Z 000000014005b830 f i main.obj
 0001:0005a960       ??$run@VEntity@@P81@EAAMM@Z@?$Invoke@MU?$TypeList@MX@luabridge@@$01@luabridge@@SAHPEAUlua_State@@PEAVEntity@@AEBQ83@EAAMM@Z@Z 000000014005b960 f i main.obj
 0001:0005a9d0       ??$run@VEntity@@P81@EAA?AV?$basic_string@DU?$char_traits@D@std@@V?$allocator@D@2@@std@@H@Z@?$Invoke@V?$basic_string@DU?$char_traits@D@std@@V?$allocator@D@2@@std@@U?$TypeList@HX@luabridge@@$01@luabridge@@SAHPEAUlua_State@@PEAVEntity@@AEBQ83@EAA?AV?$basic_string@DU?$char_traits@D@std@@V?$allocator@D@2@@std@@H@Z@Z 000000014005b9d0 f i main.obj
 0001:0005aae0       ??$run@VEntity@@P81@EAAXU?$vec@$03M$0A@@glm@@@Z@?$Invoke@XU?$TypeList@U?$vec@$03M$0A@@glm@@X@luabridge@@$01@luabridge@@SAHPEAUlua_State@@PEAVEntity@@AEBQ83@EAAXU?$vec@$03M$0A@@glm@@@Z@Z 000000014005bae0 f i main.obj
 0001:0005ab60       ??1?$ArgList@U?$TypeList@V?$basic_string@DU?$char_traits@D@std@@V?$allocator@D@2@@std@@U?$TypeList@V?$basic_string@DU?$char_traits@D@std@@V?$allocator@D@2@@std@@X@luabridge@@@luabridge@@$01@luabridge@@QEAA@XZ 000000014005bb60 f i main.obj
 0001:0005ab60       ??1?$ArgList@U?$TypeList@V?$basic_string@DU?$char_traits@D@std@@V?$allocator@D@2@@std@@U?$TypeList@V?$basic_string@DU?$char_traits@D@std@@V?$allocator@D@2@@std@@U?$TypeList@MU?$TypeList@MX@luabridge@@@luabridge@@@luabridge@@@luabridge@@$01@luabridge@@QEAA@XZ 000000014005bb60 f i main.obj
 0001:0005ab70       ??0?$ArgList@U?$TypeList@V?$basic_string@DU?$char_traits@D@std@@V?$allocator@D@2@@std@@U?$TypeList@V?$basic_string@DU?$char_traits@D@std@@V?$allocator@D@2@@std@@U?$TypeList@MU?$TypeList@MX@luabridge@@@luabridge@@@luabridge@@@luabridge@@$01@luabridge@@QEAA@PEAUlua_State@@@Z 000000014005bb70 f i main.obj
 0001:0005ae90       ??0?$ArgList@U?$TypeList@V?$basic_string@DU?$char_traits@D@std@@V?$allocator@D@2@@std@@U?$TypeList@V?$basic_string@DU?$char_traits@D@std@@V?$allocator@D@2@@std@@X@luabridge@@@luabridge@@$01@luabridge@@QEAA@PEAUlua_State@@@Z 000000014005be90 f i main.obj
 0001:0005b130       ??0?$ArgList@U?$TypeList@V?$basic_string@DU?$char_traits@D@std@@V?$allocator@D@2@@std@@X@luabridge@@$01@luabridge@@QEAA@PEAUlua_State@@@Z 000000014005c130 f i main.obj
 0001:0005b280       ??0?$ArgList@U?$TypeList@MU?$TypeList@MU?$TypeList@MU?$TypeList@MX@luabridge@@@luabridge@@@luabridge@@@luabridge@@$01@luabridge@@QEAA@PEAUlua_State@@@Z 000000014005c280 f i main.obj
 0001:0005b340       ??1?$_Alloc_construct_ptr@V?$allocator@U?$_Tree_node@U?$pair@$$CBDUCharacter@@@std@@PEAX@std@@@std@@@std@@QEAA@XZ 000000014005c340 f i main.obj
 0001:0005b360       ??1OBJModel@@QEAA@XZ       000000014005c360 f i mesh.obj
 0001:0005b450       ?InitMesh@Mesh@@QEAAXAEBVIndexedModel@@@Z 000000014005c450 f   mesh.obj
 0001:0005b680       ??1Mesh@@UEAA@XZ           000000014005c680 f   mesh.obj
 0001:0005b6a0       ??0Object@@QEAA@V?$basic_string@DU?$char_traits@D@std@@V?$allocator@D@2@@std@@U?$vec@$03M$0A@@glm@@0_N@Z 000000014005c6a0 f   object.obj
 0001:0005ba40       ?initObject@Object@@QEAAXV?$basic_string@DU?$char_traits@D@std@@V?$allocator@D@2@@std@@U?$vec@$03M$0A@@glm@@0_N@Z 000000014005ca40 f   object.obj
 0001:0005bc00       ?UpdateMinMax@Object@@QEAAXXZ 000000014005cc00 f   object.obj
 0001:0005bcf0       ?Draw@Object@@QEAAXVCamera@@@Z 000000014005ccf0 f   object.obj
 0001:0005bf00       ?do_encoding@codecvt_base@std@@MEBAHXZ 000000014005cf00 f i obj_loader.obj
 0001:0005bf00       ?GetContextKind@ThreadInternalContext@details@Concurrency@@UEBA?AW4ContextKind@ContextBase@23@XZ 000000014005cf00 f i libconcrt:ThreadScheduler.obj
 0001:0005bf00       _get_startup_argv_mode     000000014005cf00 f i LIBCMT:argv_mode.obj
 0001:0005bf00       ?do_max_length@codecvt_base@std@@MEBAHXZ 000000014005cf00 f i obj_loader.obj
 0001:0005bf10       ??_Gios_base@std@@UEAAPEAXI@Z 000000014005cf10 f i obj_loader.obj
 0001:0005bf10       ??_Eios_base@std@@UEAAPEAXI@Z 000000014005cf10 f i * CIL library *:* CIL module *
 0001:0005bf50       ??0OBJModel@@QEAA@AEBV?$basic_string@DU?$char_traits@D@std@@V?$allocator@D@2@@std@@_N@Z 000000014005cf50 f   obj_loader.obj
 0001:0005c320       ??_D?$basic_ifstream@DU?$char_traits@D@std@@@std@@QEAAXXZ 000000014005d320 f i obj_loader.obj
 0001:0005c3c0       ?CalcNormals@IndexedModel@@QEAAXXZ 000000014005d3c0 f   obj_loader.obj
 0001:0005c6b0       ?ToIndexedModel@OBJModel@@QEAA?AVIndexedModel@@XZ 000000014005d6b0 f   obj_loader.obj
 0001:0005d090       ??1?$map@UOBJIndex@@IU?$less@UOBJIndex@@@std@@V?$allocator@U?$pair@$$CBUOBJIndex@@I@std@@@3@@std@@QEAA@XZ 000000014005e090 f i obj_loader.obj
 0001:0005d0f0       ??1?$map@IIU?$less@I@std@@V?$allocator@U?$pair@$$CBII@std@@@2@@std@@QEAA@XZ 000000014005e0f0 f i obj_loader.obj
 0001:0005d150       ?FindLastVertexIndex@OBJModel@@AEAAIAEBV?$vector@PEAUOBJIndex@@V?$allocator@PEAUOBJIndex@@@std@@@std@@PEBUOBJIndex@@AEBVIndexedModel@@@Z 000000014005e150 f   obj_loader.obj
 0001:0005d3d0       ?CreateOBJFace@OBJModel@@AEAAXAEBV?$basic_string@DU?$char_traits@D@std@@V?$allocator@D@2@@std@@@Z 000000014005e3d0 f   obj_loader.obj
 0001:0005d970       ?ParseOBJVec3@OBJModel@@AEAA?AU?$vec@$02M$0A@@glm@@AEBV?$basic_string@DU?$char_traits@D@std@@V?$allocator@D@2@@std@@@Z 000000014005e970 f   obj_loader.obj
 0001:0005dc50       ?ParseOBJVec2@OBJModel@@AEAA?AU?$vec@$01M$0A@@glm@@AEBV?$basic_string@DU?$char_traits@D@std@@V?$allocator@D@2@@std@@@Z 000000014005ec50 f   obj_loader.obj
 0001:0005e0b0       ?imbue@?$basic_filebuf@DU?$char_traits@D@std@@@std@@MEAAXAEBVlocale@2@@Z 000000014005f0b0 f i obj_loader.obj
 0001:0005e0e0       ?sync@?$basic_filebuf@DU?$char_traits@D@std@@@std@@MEAAHXZ 000000014005f0e0 f i obj_loader.obj
 0001:0005e130       ?setbuf@?$basic_filebuf@DU?$char_traits@D@std@@@std@@MEAAPEAV?$basic_streambuf@DU?$char_traits@D@std@@@2@PEAD_J@Z 000000014005f130 f i obj_loader.obj
 0001:0005e190       ?seekpos@?$basic_filebuf@DU?$char_traits@D@std@@@std@@MEAA?AV?$fpos@U_Mbstatet@@@2@V32@H@Z 000000014005f190 f i obj_loader.obj
 0001:0005e270       ?seekoff@?$basic_filebuf@DU?$char_traits@D@std@@@std@@MEAA?AV?$fpos@U_Mbstatet@@@2@_JHH@Z 000000014005f270 f i obj_loader.obj
 0001:0005e380       ?xsputn@?$basic_filebuf@DU?$char_traits@D@std@@@std@@MEAA_JPEBD_J@Z 000000014005f380 f i obj_loader.obj
 0001:0005e4b0       ?xsgetn@?$basic_filebuf@DU?$char_traits@D@std@@@std@@MEAA_JPEAD_J@Z 000000014005f4b0 f i obj_loader.obj
 0001:0005e660       ?uflow@?$basic_filebuf@DU?$char_traits@D@std@@@std@@MEAAHXZ 000000014005f660 f i obj_loader.obj
 0001:0005e920       ?underflow@?$basic_filebuf@DU?$char_traits@D@std@@@std@@MEAAHXZ 000000014005f920 f i obj_loader.obj
 0001:0005e990       ?pbackfail@?$basic_filebuf@DU?$char_traits@D@std@@@std@@MEAAHH@Z 000000014005f990 f i obj_loader.obj
 0001:0005ea70       ?overflow@?$basic_filebuf@DU?$char_traits@D@std@@@std@@MEAAHH@Z 000000014005fa70 f i obj_loader.obj
 0001:0005ec10       ?_Unlock@?$basic_filebuf@DU?$char_traits@D@std@@@std@@UEAAXXZ 000000014005fc10 f i obj_loader.obj
 0001:0005ec30       ?_Lock@?$basic_filebuf@DU?$char_traits@D@std@@@std@@UEAAXXZ 000000014005fc30 f i obj_loader.obj
 0001:0005ec50       ??1?$basic_filebuf@DU?$char_traits@D@std@@@std@@UEAA@XZ 000000014005fc50 f i obj_loader.obj
 0001:0005ed00       __scrt_initialize_winrt    000000014005fd00 f i LIBCMT:utility_desktop.obj
 0001:0005ed00       _get_startup_commit_mode   000000014005fd00 f i LIBCMT:commit_mode.obj
 0001:0005ed00       ?sync@?$basic_streambuf@DU?$char_traits@D@std@@@std@@MEAAHXZ 000000014005fd00 f i obj_loader.obj
 0001:0005ed00       _matherr                   000000014005fd00 f i LIBCMT:matherr.obj
 0001:0005ed00       _get_startup_thread_locale_mode 000000014005fd00 f i LIBCMT:thread_locale.obj
 0001:0005ed00       ?GetDefaultDestination@VirtualProcessor@details@Concurrency@@UEAAPEAUIExecutionContext@3@XZ 000000014005fd00 f i libconcrt:VirtualProcessor.obj
 0001:0005ed00       __scrt_stub_for_initialize_mta 000000014005fd00 f i LIBCMT:utility_desktop.obj
 0001:0005ed00       ?ExitHyperCriticalRegion@ContextBase@details@Concurrency@@QEAAHXZ 000000014005fd00 f i libconcrt:ContextBase.obj
 0001:0005ed00       ?ExitCriticalRegion@ContextBase@details@Concurrency@@QEAAHXZ 000000014005fd00 f i libconcrt:ContextBase.obj
 0001:0005ed00       ?PreRunnableSearch@VirtualProcessor@details@Concurrency@@UEAAPEAVInternalContextBase@23@XZ 000000014005fd00 f i libconcrt:VirtualProcessor.obj
 0001:0005ed00       ?showmanyc@?$basic_streambuf@DU?$char_traits@D@std@@@std@@MEAA_JXZ 000000014005fd00 f i obj_loader.obj
 0001:0005ed00       ?GetContextKind@ExternalContextBase@details@Concurrency@@EEBA?AW4ContextKind@ContextBase@23@XZ 000000014005fd00 f i libconcrt:ExternalContextBase.obj
 0001:0005ed00       _get_startup_new_mode      000000014005fd00 f i LIBCMT:new_mode.obj
 0001:0005ed00       ?EnterCriticalRegion@ContextBase@details@Concurrency@@QEAAHXZ 000000014005fd00 f i libconcrt:ContextBase.obj
 0001:0005ed00       ?_Move@?$_Func_impl_no_alloc@V<lambda_052e919cc0e5399df76dff3972c0cac1>@@E$$V@std@@EEAAPEAV?$_Func_base@E$$V@2@PEAX@Z 000000014005fd00 f i world.obj
 0001:0005ed00       ?_Get_deleter@_Ref_count_base@std@@UEBAPEAXAEBVtype_info@@@Z 000000014005fd00 f i world.obj
 0001:0005ed00       ?EnterHyperCriticalRegion@ContextBase@details@Concurrency@@QEAAHXZ 000000014005fd00 f i libconcrt:ContextBase.obj
 0001:0005ed00       __scrt_exe_initialize_mta  000000014005fd00 f i LIBCMT:utility_desktop.obj
 0001:0005ed10       ?seekpos@?$basic_streambuf@DU?$char_traits@D@std@@@std@@MEAA?AV?$fpos@U_Mbstatet@@@2@V32@H@Z 000000014005fd10 f i obj_loader.obj
 0001:0005ed10       ?seekoff@?$basic_streambuf@DU?$char_traits@D@std@@@std@@MEAA?AV?$fpos@U_Mbstatet@@@2@_JHH@Z 000000014005fd10 f i obj_loader.obj
 0001:0005ed30       ?xsputn@?$basic_streambuf@DU?$char_traits@D@std@@@std@@MEAA_JPEBD_J@Z 000000014005fd30 f i obj_loader.obj
 0001:0005edf0       ?xsgetn@?$basic_streambuf@DU?$char_traits@D@std@@@std@@MEAA_JPEAD_J@Z 000000014005fdf0 f i obj_loader.obj
 0001:0005eea0       ?uflow@?$basic_streambuf@DU?$char_traits@D@std@@@std@@MEAAHXZ 000000014005fea0 f i obj_loader.obj
 0001:0005eee0       ?overflow@?$basic_streambuf@DU?$char_traits@D@std@@@std@@MEAAHH@Z 000000014005fee0 f i obj_loader.obj
 0001:0005eee0       ?pbackfail@?$basic_streambuf@DU?$char_traits@D@std@@@std@@MEAAHH@Z 000000014005fee0 f i obj_loader.obj
 0001:0005eee0       ?underflow@?$basic_streambuf@DU?$char_traits@D@std@@@std@@MEAAHXZ 000000014005fee0 f i obj_loader.obj
 0001:0005eef0       ??1?$basic_streambuf@DU?$char_traits@D@std@@@std@@UEAA@XZ 000000014005fef0 f i obj_loader.obj
 0001:0005ef50       ??0?$basic_ifstream@DU?$char_traits@D@std@@@std@@QEAA@XZ 000000014005ff50 f i obj_loader.obj
 0001:0005f010       ??1?$basic_istream@DU?$char_traits@D@std@@@std@@UEAA@XZ 0000000140060010 f i obj_loader.obj
 0001:0005f040       ??1?$basic_ios@DU?$char_traits@D@std@@@std@@UEAA@XZ 0000000140060040 f i obj_loader.obj
 0001:0005f060       ??_E?$basic_filebuf@DU?$char_traits@D@std@@@std@@UEAAPEAXI@Z 0000000140060060 f i * CIL library *:* CIL module *
 0001:0005f060       ??_G?$basic_filebuf@DU?$char_traits@D@std@@@std@@UEAAPEAXI@Z 0000000140060060 f i obj_loader.obj
 0001:0005f0a0       ??_E?$basic_streambuf@DU?$char_traits@D@std@@@std@@UEAAPEAXI@Z 00000001400600a0 f i * CIL library *:* CIL module *
 0001:0005f0a0       ??_G?$basic_streambuf@DU?$char_traits@D@std@@@std@@UEAAPEAXI@Z 00000001400600a0 f i obj_loader.obj
 0001:0005f120       ??_E?$basic_ifstream@DU?$char_traits@D@std@@@std@@UEAAPEAXI@Z 0000000140060120 f i * CIL library *:* CIL module *
 0001:0005f120       ??_G?$basic_ifstream@DU?$char_traits@D@std@@@std@@UEAAPEAXI@Z 0000000140060120 f i obj_loader.obj
 0001:0005f160       ??_E?$basic_istream@DU?$char_traits@D@std@@@std@@UEAAPEAXI@Z 0000000140060160 f i * CIL library *:* CIL module *
 0001:0005f160       ??_G?$basic_istream@DU?$char_traits@D@std@@@std@@UEAAPEAXI@Z 0000000140060160 f i obj_loader.obj
 0001:0005f1d0       ??_E?$basic_ios@DU?$char_traits@D@std@@@std@@UEAAPEAXI@Z 00000001400601d0 f i * CIL library *:* CIL module *
 0001:0005f1d0       ??_G?$basic_ios@DU?$char_traits@D@std@@@std@@UEAAPEAXI@Z 00000001400601d0 f i obj_loader.obj
 0001:0005f210       ?do_length@?$codecvt@DDU_Mbstatet@@@std@@MEBAHAEAU_Mbstatet@@PEBD1_K@Z 0000000140060210 f i obj_loader.obj
 0001:0005f230       ?do_unshift@?$codecvt@DDU_Mbstatet@@@std@@MEBAHAEAU_Mbstatet@@PEAD1AEAPEAD@Z 0000000140060230 f i obj_loader.obj
 0001:0005f240       ?do_in@?$codecvt@DDU_Mbstatet@@@std@@MEBAHAEAU_Mbstatet@@PEBD1AEAPEBDPEAD3AEAPEAD@Z 0000000140060240 f i obj_loader.obj
 0001:0005f240       ?do_out@?$codecvt@DDU_Mbstatet@@@std@@MEBAHAEAU_Mbstatet@@PEBD1AEAPEBDPEAD3AEAPEAD@Z 0000000140060240 f i obj_loader.obj
 0001:0005f260       _should_initialize_environment 0000000140060260 f i LIBCMT:env_mode.obj
 0001:0005f260       ?AllowGeneralFetchOfReservedContexts@SchedulerBase@details@Concurrency@@MEAA_NXZ 0000000140060260 f i libconcrt:SchedulerBase.obj
 0001:0005f260       ?do_always_noconv@?$codecvt@DDU_Mbstatet@@@std@@MEBA_NXZ 0000000140060260 f i obj_loader.obj
 0001:0005f260       ?SweepWaitNode@SingleWaitBlock@details@Concurrency@@UEAA_NXZ 0000000140060260 f i libconcrt:event.obj
 0001:0005f260       __acrt_uninitialize_command_line 0000000140060260 f i libucrt:argv_data.obj
 0001:0005f270       ?_Initcvt@?$basic_filebuf@DU?$char_traits@D@std@@@std@@IEAAXAEBV?$codecvt@DDU_Mbstatet@@@2@@Z 0000000140060270 f i obj_loader.obj
 0001:0005f2f0       ?_Endwrite@?$basic_filebuf@DU?$char_traits@D@std@@@std@@IEAA_NXZ 00000001400602f0 f i obj_loader.obj
 0001:0005f3e0       ?_Init@?$basic_filebuf@DU?$char_traits@D@std@@@std@@IEAAXPEAU_iobuf@@W4_Initfl@12@@Z 00000001400603e0 f i obj_loader.obj
 0001:0005f4e0       ?close@?$basic_filebuf@DU?$char_traits@D@std@@@std@@QEAAPEAV12@XZ 00000001400604e0 f i obj_loader.obj
 0001:0005f5a0       ?open@?$basic_filebuf@DU?$char_traits@D@std@@@std@@QEAAPEAV12@PEBDHH@Z 00000001400605a0 f i obj_loader.obj
 0001:0005f640       ??0?$basic_filebuf@DU?$char_traits@D@std@@@std@@QEAA@XZ 0000000140060640 f i obj_loader.obj
 0001:0005f6d0       ?_Gnavail@?$basic_streambuf@DU?$char_traits@D@std@@@std@@IEBA_JXZ 00000001400606d0 f i obj_loader.obj
 0001:0005f6f0       ??0?$basic_streambuf@DU?$char_traits@D@std@@@std@@IEAA@XZ 00000001400606f0 f i obj_loader.obj
 0001:0005f780       ?init@?$basic_ios@DU?$char_traits@D@std@@@std@@IEAAXPEAV?$basic_streambuf@DU?$char_traits@D@std@@@2@_N@Z 0000000140060780 f i obj_loader.obj
 0001:0005f890       ??$use_facet@V?$codecvt@DDU_Mbstatet@@@std@@@std@@YAAEBV?$codecvt@DDU_Mbstatet@@@0@AEBVlocale@0@@Z 0000000140060890 f i obj_loader.obj
 0001:0005f9d0       ??$_Emplace_reallocate@UOBJIndex@@@?$vector@UOBJIndex@@V?$allocator@UOBJIndex@@@std@@@std@@QEAAPEAUOBJIndex@@QEAU2@$$QEAU2@@Z 00000001400609d0 f i obj_loader.obj
 0001:0005fbe0       ?_Getcat@?$codecvt@DDU_Mbstatet@@@std@@SA_KPEAPEBVfacet@locale@2@PEBV42@@Z 0000000140060be0 f i obj_loader.obj
 0001:0005fd60       ??1?$_Alloc_construct_ptr@V?$allocator@U?$_Tree_node@U?$pair@$$CBII@std@@PEAX@std@@@std@@@std@@QEAA@XZ 0000000140060d60 f i obj_loader.obj
 0001:0005fd80       ??$getline@DU?$char_traits@D@std@@V?$allocator@D@2@@std@@YAAEAV?$basic_istream@DU?$char_traits@D@std@@@0@$$QEAV10@AEAV?$basic_string@DU?$char_traits@D@std@@V?$allocator@D@2@@0@D@Z 0000000140060d80 f i obj_loader.obj
 0001:0005fff0       ??$_Sort_unchecked@PEAPEAUOBJIndex@@P6A_NPEBU1@0@Z@std@@YAXPEAPEAUOBJIndex@@0_JP6A_NPEBU1@2@Z@Z 0000000140060ff0 f i obj_loader.obj
 0001:000602c0       ??$_Erase_tree@V?$allocator@U?$_Tree_node@U?$pair@$$CBII@std@@PEAX@std@@@std@@@?$_Tree_val@U?$_Tree_simple_types@U?$pair@$$CBII@std@@@std@@@std@@QEAAXAEAV?$allocator@U?$_Tree_node@U?$pair@$$CBII@std@@PEAX@std@@@1@PEAU?$_Tree_node@U?$pair@$$CBII@std@@PEAX@1@@Z 00000001400612c0 f i obj_loader.obj
 0001:00060310       ??$_Erase_tree@V?$allocator@U?$_Tree_node@U?$pair@$$CBUOBJIndex@@I@std@@PEAX@std@@@std@@@?$_Tree_val@U?$_Tree_simple_types@U?$pair@$$CBUOBJIndex@@I@std@@@std@@@std@@QEAAXAEAV?$allocator@U?$_Tree_node@U?$pair@$$CBUOBJIndex@@I@std@@PEAX@std@@@1@PEAU?$_Tree_node@U?$pair@$$CBUOBJIndex@@I@std@@PEAX@1@@Z 0000000140061310 f i obj_loader.obj
 0001:00060360       ??1sentry@?$basic_istream@DU?$char_traits@D@std@@@std@@QEAA@XZ 0000000140061360 f i obj_loader.obj
 0001:00060390       ?_Ipfx@?$basic_istream@DU?$char_traits@D@std@@@std@@QEAA_N_N@Z 0000000140061390 f i obj_loader.obj
 0001:00060400       ??$_Partition_by_median_guess_unchecked@PEAPEAUOBJIndex@@P6A_NPEBU1@0@Z@std@@YA?AU?$pair@PEAPEAUOBJIndex@@PEAPEAU1@@0@PEAPEAUOBJIndex@@0P6A_NPEBU2@1@Z@Z 0000000140061400 f i obj_loader.obj
 0001:000605f0       ??$_Guess_median_unchecked@PEAPEAUOBJIndex@@P6A_NPEBU1@0@Z@std@@YAXPEAPEAUOBJIndex@@00P6A_NPEBU1@1@Z@Z 00000001400615f0 f i obj_loader.obj
 0001:000607f0       ??$_Pop_heap_hole_by_index@PEAPEAUOBJIndex@@PEAU1@P6A_NPEBU1@0@Z@std@@YAXPEAPEAUOBJIndex@@_J1$$QEAPEAU1@P6A_NPEBU1@3@Z@Z 00000001400617f0 f i obj_loader.obj
 0001:000608d4       ??_E?$basic_ifstream@DU?$char_traits@D@std@@@std@@$4PPPPPPPM@A@EAAPEAXI@Z 00000001400618d4 f i obj_loader.obj
 0001:000608e0       ??_E?$basic_istream@DU?$char_traits@D@std@@@std@@$4PPPPPPPM@A@EAAPEAXI@Z 00000001400618e0 f i obj_loader.obj
 0001:000608f0       ??0Emitter@@QEAA@U?$vec@$02M$0A@@glm@@MHM_N@Z 00000001400618f0 f   particle.obj
 0001:00060b60       ?getFirstInactiveParticle@Emitter@@QEAAHXZ 0000000140061b60 f   particle.obj
 0001:00060ba0       ?drawParticles@Emitter@@QEAAXVCamera@@@Z 0000000140061ba0 f   particle.obj
 0001:00060ee0       ??$_Resize_reallocate@U_Value_init_tag@std@@@?$vector@UParticle@@V?$allocator@UParticle@@@std@@@std@@AEAAX_KAEBU_Value_init_tag@1@@Z 0000000140061ee0 f i particle.obj
 0001:00061110       ?GetModel@Transform@@QEBA?AU?$mat@$03$03M$0A@@glm@@XZ 0000000140062110 f i shader.obj
 0001:000613a0       ??_EShader@@UEAAPEAXI@Z    00000001400623a0 f i * CIL library *:* CIL module *
 0001:000613a0       ??_GShader@@UEAAPEAXI@Z    00000001400623a0 f i shader.obj
 0001:000613d0       ?InitShader@Shader@@QEAAXAEBV?$basic_string@DU?$char_traits@D@std@@V?$allocator@D@2@@std@@@Z 00000001400623d0 f   shader.obj
 0001:00061840       ??0Shader@@QEAA@AEBV?$basic_string@DU?$char_traits@D@std@@V?$allocator@D@2@@std@@@Z 0000000140062840 f   shader.obj
 0001:00061c90       ??1Shader@@UEAA@XZ         0000000140062c90 f   shader.obj
 0001:00061d40       ?Bind@Shader@@QEAAXXZ      0000000140062d40 f   shader.obj
 0001:00061e40       ?Update@Shader@@QEAAXAEBVTransform@@AEBVCamera@@@Z 0000000140062e40 f   shader.obj
 0001:00061f30       ?LoadShader@Shader@@QEAA?AV?$basic_string@DU?$char_traits@D@std@@V?$allocator@D@2@@std@@AEBV23@@Z 0000000140062f30 f   shader.obj
 0001:000622a0       ?CheckShaderError@Shader@@QEAAXII_NAEBV?$basic_string@DU?$char_traits@D@std@@V?$allocator@D@2@@std@@@Z 00000001400632a0 f   shader.obj
 0001:000623a0       ??1?$vector@DV?$allocator@D@std@@@std@@QEAA@XZ 00000001400633a0 f i shader.obj
 0001:00062400       ??$?DM$0A@@glm@@YA?AU?$mat@$03$03M$0A@@0@AEBU10@0@Z 0000000140063400 f i shader.obj
 0001:000629b0       ??$lookAtRH@M$0A@@glm@@YA?AU?$mat@$03$03M$0A@@0@AEBU?$vec@$02M$0A@@0@00@Z 00000001400639b0 f i shader.obj
 0001:00062c00       ??1SkeletalModel@SA@@QEAA@XZ 0000000140063c00 f   SkeletalModel.obj
 0001:00062c30       ?Clear@SkeletalModel@SA@@QEAAXXZ 0000000140063c30 f   SkeletalModel.obj
 0001:00062e20       ?ReadNodeHierarchy@SkeletalModel@SA@@QEAAXMAEAUsAnimation@2@AEAUsSkeleton@2@AEAUsBone@2@AEBU?$mat@$03$03M$0A@@glm@@@Z 0000000140063e20 f   SkeletalModel.obj
 0001:00063380       ?TransformVertices@SkeletalModel@SA@@QEAAXAEBUsSkeleton@2@@Z 0000000140064380 f   SkeletalModel.obj
 0001:00063890       ??1?$vector@UsAnimatedMesh@SA@@V?$allocator@UsAnimatedMesh@SA@@@std@@@std@@QEAA@XZ 0000000140064890 f i SkeletalModel.obj
 0001:00063950       ??1?$vector@UsNodeAnimation@SA@@V?$allocator@UsNodeAnimation@SA@@@std@@@std@@QEAA@XZ 0000000140064950 f i SkeletalModel.obj
 0001:00063a10       ??1?$vector@UsBone@SA@@V?$allocator@UsBone@SA@@@std@@@std@@QEAA@XZ 0000000140064a10 f i SkeletalModel.obj
 0001:00063f60       ??0SkyboxMesh@@QEAA@XZ     0000000140064f60 f   skybox.obj
 0001:00064180       ?loadSkybox@Skybox@@QEAAIV?$vector@V?$basic_string@DU?$char_traits@D@std@@V?$allocator@D@2@@std@@V?$allocator@V?$basic_string@DU?$char_traits@D@std@@V?$allocator@D@2@@std@@@2@@std@@@Z 0000000140065180 f   skybox.obj
 0001:0006f470       ??0runtime_error@std@@QEAA@PEBD@Z 0000000140070470 f i TextRenderer.obj
 0001:0006f4e0       ?make_dlist@glfreetype@@YAXPEAUFT_FaceRec_@@DIPEAI@Z 00000001400704e0 f   TextRenderer.obj
 0001:0006f9c0       ?init@font_data@glfreetype@@QEAAXPEBDI@Z 00000001400709c0 f   TextRenderer.obj
 0001:0006fb70       ?print@glfreetype@@YAXAEBUfont_data@1@MMAEBV?$basic_string@DU?$char_traits@D@std@@V?$allocator@D@2@@std@@@Z 0000000140070b70 f   TextRenderer.obj
 0001:0006ff00       ??_D?$basic_stringstream@DU?$char_traits@D@std@@V?$allocator@D@2@@std@@QEAAXXZ 0000000140070f00 f i TextRenderer.obj
 0001:00070000       ?seekpos@?$basic_stringbuf@DU?$char_traits@D@std@@V?$allocator@D@2@@std@@MEAA?AV?$fpos@U_Mbstatet@@@2@V32@H@Z 0000000140071000 f i TextRenderer.obj
 0001:000700f0       ?seekoff@?$basic_stringbuf@DU?$char_traits@D@std@@V?$allocator@D@2@@std@@MEAA?AV?$fpos@U_Mbstatet@@@2@_JHH@Z 00000001400710f0 f i TextRenderer.obj
 0001:00070250       ?underflow@?$basic_stringbuf@DU?$char_traits@D@std@@V?$allocator@D@2@@std@@MEAAHXZ 0000000140071250 f i TextRenderer.obj
 0001:000702c0       ?pbackfail@?$basic_stringbuf@DU?$char_traits@D@std@@V?$allocator@D@2@@std@@MEAAHH@Z 00000001400712c0 f i TextRenderer.obj
 0001:00070320       ?overflow@?$basic_stringbuf@DU?$char_traits@D@std@@V?$allocator@D@2@@std@@MEAAHH@Z 0000000140071320 f i TextRenderer.obj
 0001:00070520       ??1?$basic_stringbuf@DU?$char_traits@D@std@@V?$allocator@D@2@@std@@UEAA@XZ 0000000140071520 f i TextRenderer.obj
 0001:00070620       ??0?$basic_stringstream@DU?$char_traits@D@std@@V?$allocator@D@2@@std@@QEAA@AEBV?$basic_string@DU?$char_traits@D@std@@V?$allocator@D@2@@1@H@Z 0000000140071620 f i TextRenderer.obj
 0001:00070820       ??1?$basic_iostream@DU?$char_traits@D@std@@@std@@UEAA@XZ 0000000140071820 f i TextRenderer.obj
 0001:000708a0       ??1?$basic_ostream@DU?$char_traits@D@std@@@std@@UEAA@XZ 00000001400718a0 f i TextRenderer.obj
 0001:000708d0       ??_G?$basic_stringbuf@DU?$char_traits@D@std@@V?$allocator@D@2@@std@@UEAAPEAXI@Z 00000001400718d0 f i TextRenderer.obj
 0001:000708d0       ??_E?$basic_stringbuf@DU?$char_traits@D@std@@V?$allocator@D@2@@std@@UEAAPEAXI@Z 00000001400718d0 f i * CIL library *:* CIL module *
 0001:00070910       ??_E?$basic_stringstream@DU?$char_traits@D@std@@V?$allocator@D@2@@std@@UEAAPEAXI@Z 0000000140071910 f i * CIL library *:* CIL module *
 0001:00070910       ??_G?$basic_stringstream@DU?$char_traits@D@std@@V?$allocator@D@2@@std@@UEAAPEAXI@Z 0000000140071910 f i TextRenderer.obj
 0001:00070950       ??_G?$basic_iostream@DU?$char_traits@D@std@@@std@@UEAAPEAXI@Z 0000000140071950 f i TextRenderer.obj
 0001:00070950       ??_E?$basic_iostream@DU?$char_traits@D@std@@@std@@UEAAPEAXI@Z 0000000140071950 f i * CIL library *:* CIL module *
 0001:00070a00       ??_E?$basic_ostream@DU?$char_traits@D@std@@@std@@UEAAPEAXI@Z 0000000140071a00 f i * CIL library *:* CIL module *
 0001:00070a00       ??_G?$basic_ostream@DU?$char_traits@D@std@@@std@@UEAAPEAXI@Z 0000000140071a00 f i TextRenderer.obj
 0001:00070a70       ??$_Resize_reallocate@U_Value_init_tag@std@@@?$vector@IV?$allocator@I@std@@@std@@AEAAX_KAEBU_Value_init_tag@1@@Z 0000000140071a70 f i TextRenderer.obj
 0001:00070b1c       ??_E?$basic_ostream@DU?$char_traits@D@std@@@std@@$4PPPPPPPM@A@EAAPEAXI@Z 0000000140071b1c f i TextRenderer.obj
 0001:00070b28       ??_E?$basic_stringstream@DU?$char_traits@D@std@@V?$allocator@D@2@@std@@$4PPPPPPPM@A@EAAPEAXI@Z 0000000140071b28 f i TextRenderer.obj
 0001:00070b34       ??_E?$basic_iostream@DU?$char_traits@D@std@@@std@@$4PPPPPPPM@A@EAAPEAXI@Z 0000000140071b34 f i TextRenderer.obj
 0001:00070b40       ??_ETexture@@UEAAPEAXI@Z   0000000140071b40 f i * CIL library *:* CIL module *
 0001:00070b40       ??_GTexture@@UEAAPEAXI@Z   0000000140071b40 f i texture.obj
 0001:00070b80       ??1Texture@@UEAA@XZ        0000000140071b80 f   texture.obj
 0001:00070bf0       _scprintf                  0000000140071bf0 f i world.obj
 0001:00070c50       ??1exception_ptr@std@@QEAA@XZ 0000000140071c50 f i world.obj
 0001:00070c60       ??0exception_ptr@std@@QEAA@AEBV01@@Z 0000000140071c60 f i world.obj
 0001:00070c80       ?current_exception@std@@YA?AVexception_ptr@1@XZ 0000000140071c80 f i world.obj
 0001:00070cb0       ?rethrow_exception@std@@YAXVexception_ptr@1@@Z 0000000140071cb0 f i world.obj
 0001:00070cc0       ?make_error_code@std@@YA?AVerror_code@1@W4errc@1@@Z 0000000140071cc0 f i world.obj
 0001:00070d20       ??0system_error@std@@QEAA@Verror_code@1@@Z 0000000140071d20 f i world.obj
 0001:00070de0       ?_Throw_system_error@std@@YAXW4errc@1@@Z 0000000140071de0 f i world.obj
 0001:00070e20       ?GetModelColl@Transform@@QEBA?AU?$mat@$03$03M$0A@@glm@@XZ 0000000140071e20 f i world.obj
 0001:00071040       ??0path@v1@filesystem@experimental@std@@QEAA@AEBV01234@@Z 0000000140072040 f i world.obj
 0001:00071130       ?string@path@v1@filesystem@experimental@std@@QEBA?AV?$basic_string@DU?$char_traits@D@std@@V?$allocator@D@2@@5@XZ 0000000140072130 f i world.obj
 0001:00071250       ?root_directory@path@v1@filesystem@experimental@std@@QEBA?AV12345@XZ 0000000140072250 f i world.obj
 0001:00071340       ?relative_path@path@v1@filesystem@experimental@std@@QEBA?AV12345@XZ 0000000140072340 f i world.obj
 0001:00071470       ?_Prefix_end@path@v1@filesystem@experimental@std@@QEBA_KXZ 0000000140072470 f i world.obj
 0001:00071580       ??Kv1@filesystem@experimental@std@@YA?AVpath@0123@AEBV40123@0@Z 0000000140072580 f i world.obj
 0001:00071630       ??0filesystem_error@v1@filesystem@experimental@std@@QEAA@AEBV?$basic_string@DU?$char_traits@D@std@@V?$allocator@D@2@@4@Verror_code@4@@Z 0000000140072630 f i world.obj
 0001:00071690       ??1filesystem_error@v1@filesystem@experimental@std@@UEAA@XZ 0000000140072690 f i world.obj
 0001:00071770       ??_Efilesystem_error@v1@filesystem@experimental@std@@UEAAPEAXI@Z 0000000140072770 f i * CIL library *:* CIL module *
 0001:00071770       ??_Gfilesystem_error@v1@filesystem@experimental@std@@UEAAPEAXI@Z 0000000140072770 f i world.obj
 0001:00071870       ?_Throw_filesystem_error@v1@filesystem@experimental@std@@YAXQEBD@Z 0000000140072870 f i world.obj
 0001:000718d0       ??0filesystem_error@v1@filesystem@experimental@std@@QEAA@AEBV01234@@Z 00000001400728d0 f i world.obj
 0001:00071950       ??1?$_Directory_iterator@U?$integral_constant@_N$00@std@@@v1@filesystem@experimental@std@@QEAA@XZ 0000000140072950 f i world.obj
 0001:00071a50       ?_Absolute@v1@filesystem@experimental@std@@YA?AVpath@1234@AEBV51234@0AEAVerror_code@4@@Z 0000000140072a50 f i world.obj
 0001:00072670       ?current_path@v1@filesystem@experimental@std@@YA?AVpath@1234@XZ 0000000140073670 f i world.obj
 0001:000727f0       ??0invalid_operation@Concurrency@@QEAA@PEBD@Z 00000001400737f0 f i world.obj
 0001:00072860       ?_Callback@_PPLTaskChore@_DefaultPPLTaskScheduler@details@Concurrency@@CAXPEAX@Z 0000000140073860 f i world.obj
 0001:000728b0       ?schedule@_DefaultPPLTaskScheduler@details@Concurrency@@UEAAXP6AXPEAX@Z0@Z 00000001400738b0 f i world.obj
 0001:00072950       ??_G_PPLTaskChore@_DefaultPPLTaskScheduler@details@Concurrency@@QEAAPEAXI@Z 0000000140073950 f i world.obj
 0001:00072980       ?get_ambient_scheduler@Concurrency@@YAAEBV?$shared_ptr@Uscheduler_interface@Concurrency@@@std@@XZ 0000000140073980 f i world.obj
 0001:00072a30       ?_Destroy@_RefCounter@details@Concurrency@@MEAAXXZ 0000000140073a30 f i world.obj
 0001:00072a50       ??_E_RefCounter@details@Concurrency@@UEAAPEAXI@Z 0000000140073a50 f i * CIL library *:* CIL module *
 0001:00072a50       ??_G_RefCounter@details@Concurrency@@UEAAPEAXI@Z 0000000140073a50 f i world.obj
 0001:00072a80       ??_E_CancellationTokenRegistration@details@Concurrency@@MEAAPEAXI@Z 0000000140073a80 f i * CIL library *:* CIL module *
 0001:00072a80       ??_G_CancellationTokenRegistration@details@Concurrency@@MEAAPEAXI@Z 0000000140073a80 f i world.obj
 0001:00072ae0       ?_RegisterCallback@_CancellationTokenState@details@Concurrency@@QEAAXPEAV_CancellationTokenRegistration@23@@Z 0000000140073ae0 f i world.obj
 0001:00072c30       ?_DeregisterCallback@_CancellationTokenState@details@Concurrency@@QEAAXPEAV_CancellationTokenRegistration@23@@Z 0000000140073c30 f i world.obj
 0001:00072dc0       ??1cancellation_token@Concurrency@@QEAA@XZ 0000000140073dc0 f i world.obj
 0001:00072e00       ?_RunChoreBridge@_TaskProcHandle@details@Concurrency@@SAXPEAX@Z 0000000140073e00 f i world.obj
 0001:00072e30       ??_E_TaskProcHandle@details@Concurrency@@UEAAPEAXI@Z 0000000140073e30 f i * CIL library *:* CIL module *
 0001:00072e30       ??_G_TaskProcHandle@details@Concurrency@@UEAAPEAXI@Z 0000000140073e30 f i world.obj
 0001:00072e60       ?_Wait@_TaskCollectionBaseImpl@details@Concurrency@@QEAAXXZ 0000000140073e60 f i world.obj
 0001:00072f10       ?_Complete@_TaskCollectionBaseImpl@details@Concurrency@@QEAAXXZ 0000000140073f10 f i world.obj
 0001:00072f80       ??1?$task@E@Concurrency@@QEAA@XZ 0000000140073f80 f i world.obj
 0001:00072f80       ??1?$shared_ptr@U_Task_impl_base@details@Concurrency@@@std@@QEAA@XZ 0000000140073f80 f i world.obj
 0001:00072f80       ??1?$shared_ptr@Uscheduler_interface@Concurrency@@@std@@QEAA@XZ 0000000140073f80 f i world.obj
 0001:00072f80       ??1scheduler_ptr@Concurrency@@QEAA@XZ 0000000140073f80 f i world.obj
 0001:00072f80       ??1?$shared_ptr@U_ExceptionHolder@details@Concurrency@@@std@@QEAA@XZ 0000000140073f80 f i world.obj
 0001:00072f80       ??1?$shared_ptr@PEAX@std@@QEAA@XZ 0000000140073f80 f i world.obj
 0001:00072f80       ??1?$task@X@Concurrency@@QEAA@XZ 0000000140073f80 f i world.obj
 0001:00072fd0       ?_NoCallOnDefaultTask_ErrorImpl@_DefaultTaskHelper@details@Concurrency@@SAXXZ 0000000140073fd0 f i world.obj
 0001:00072ff0       ??0invalid_operation@Concurrency@@QEAA@AEBV01@@Z 0000000140073ff0 f i world.obj
 0001:00073030       ??1_TaskCreationCallstack@details@Concurrency@@QEAA@XZ 0000000140074030 f i world.obj
 0001:00073090       ?_Bridge@_TaskProcThunk@details@Concurrency@@SAXPEAX@Z 0000000140074090 f i world.obj
 0001:000730f0       ??1_Holder@_TaskProcThunk@details@Concurrency@@QEAA@XZ 00000001400740f0 f i world.obj
 0001:00073140       ??1?$_Func_class@E$$V@std@@QEAA@XZ 0000000140074140 f i world.obj
 0001:00073140       ??1<lambda_052e919cc0e5399df76dff3972c0cac1>@@QEAA@XZ 0000000140074140 f i world.obj
 0001:00073140       ??1?$function@$$A6AEXZ@std@@QEAA@XZ 0000000140074140 f i world.obj
 0001:00073140       ??1?$_Func_class@X$$V@std@@QEAA@XZ 0000000140074140 f i world.obj
 0001:00073140       ??1?$function@$$A6AXXZ@std@@QEAA@XZ 0000000140074140 f i world.obj
 0001:000732d0       ??1_ContextCallback@details@Concurrency@@QEAA@XZ 00000001400742d0 f i world.obj
 0001:000732e0       ??1_ExceptionHolder@details@Concurrency@@QEAA@XZ 00000001400742e0 f i world.obj
 0001:00073360       ?_RethrowUserException@_ExceptionHolder@details@Concurrency@@QEAAXXZ 0000000140074360 f i world.obj
 0001:000733a0       ??0_TaskCreationCallstack@details@Concurrency@@QEAA@AEBV012@@Z 00000001400743a0 f i world.obj
 0001:00073430       ??4_TaskCreationCallstack@details@Concurrency@@QEAAAEAV012@AEBV012@@Z 0000000140074430 f i world.obj
 0001:00073540       ??1_TaskWorkItemRAIILogger@details@Concurrency@@QEAA@XZ 0000000140074540 f i world.obj
 0001:00073560       ??0_Task_impl_base@details@Concurrency@@QEAA@PEAV_CancellationTokenState@12@Uscheduler_ptr@2@@Z 0000000140074560 f i world.obj
 0001:000736e0       ??1_Task_impl_base@details@Concurrency@@UEAA@XZ 00000001400746e0 f i world.obj
 0001:000737d0       ?_Wait@_Task_impl_base@details@Concurrency@@QEAA?AW4task_group_status@3@XZ 00000001400747d0 f i world.obj
 0001:00073840       ?_CancelWithException@_Task_impl_base@details@Concurrency@@QEAA_NAEBVexception_ptr@std@@@Z 0000000140074840 f i world.obj
 0001:00073980       ?_HasUserException@_Task_impl_base@details@Concurrency@@QEAA_NXZ 0000000140074980 f i world.obj
 0001:00073990       ?_ScheduleTask@_Task_impl_base@details@Concurrency@@QEAAXPEAU_TaskProcHandle@23@W4_TaskInliningMode@23@@Z 0000000140074990 f i world.obj
 0001:00073a10       ?_RunContinuation@_Task_impl_base@details@Concurrency@@QEAAXPEAU_ContinuationTaskHandleBase@23@@Z 0000000140074a10 f i world.obj
 0001:00073ba0       ??R<lambda_713ee8bbd6b08550d59c52695cab5ce3>@@QEBAXXZ 0000000140074ba0 f i world.obj
 0001:00073d70       ??_G_Task_impl_base@details@Concurrency@@UEAAPEAXI@Z 0000000140074d70 f i world.obj
 0001:00073d70       ??_E_Task_impl_base@details@Concurrency@@UEAAPEAXI@Z 0000000140074d70 f i * CIL library *:* CIL module *
 0001:00073db0       ??1_TaskCollectionBaseImpl@details@Concurrency@@QEAA@XZ 0000000140074db0 f i world.obj
 0001:00073e20       ??1?$weak_ptr@U_Task_impl_base@details@Concurrency@@@std@@QEAA@XZ 0000000140074e20 f i world.obj
 0001:00073e20       ??1<lambda_be3e5d9dce35d2c8dbfa8485373731d5>@@QEAA@XZ 0000000140074e20 f i world.obj
 0001:00073e40       ?_Perform@?$_Init_func_transformer@X@Concurrency@@SA?AV?$function@$$A6AEXZ@std@@V?$function@$$A6AXXZ@4@@Z 0000000140074e40 f i world.obj
 0001:00073f40       ??4?$task@X@Concurrency@@QEAAAEAV01@$$QEAV01@@Z 0000000140074f40 f i world.obj
 0001:00073fd0       ??1task_options@Concurrency@@QEAA@XZ 0000000140074fd0 f i world.obj
 0001:000740b0       ?make_error_code@std@@YA?AVerror_code@1@W4future_errc@1@@Z 00000001400750b0 f i world.obj
 0001:00074110       ?name@_Future_error_category@std@@UEBAPEBDXZ 0000000140075110 f i world.obj
 0001:00074120       ?message@_Future_error_category@std@@UEBA?AV?$basic_string@DU?$char_traits@D@std@@V?$allocator@D@2@@2@H@Z 0000000140075120 f i world.obj
 0001:000741f0       ??1?$_Promise@H@std@@QEAA@XZ 00000001400751f0 f i world.obj
 0001:000741f0       ??1?$future@X@std@@QEAA@XZ 00000001400751f0 f i world.obj
 0001:00074240       ?calculateMesh@animatedObject@@QEAAXXZ 0000000140075240 f i world.obj
 0001:00074330       ?init@animatedObject@@QEAAXXZ 0000000140075330 f i world.obj
 0001:00074e30       ?Draw@animatedObject@@QEAAXVCamera@@H_N@Z 0000000140075e30 f i world.obj
 0001:00075170       ?Update@animatedObject@@QEAA_NHN@Z 0000000140076170 f i world.obj
 0001:00075520       ?Update@GraphicsComponent@@QEAAXN@Z 0000000140076520 f i world.obj
 0001:00075630       ?Draw@GUIComponent@@QEAAXXZ 0000000140076630 f i world.obj
 0001:00075930       ?Update@ProjectileComponent@@QEAAXXZ 0000000140076930 f i world.obj
 0001:00075c60       ?Draw@Entity@@QEAAXVCamera@@_N@Z 0000000140076c60 f i world.obj
 0001:00076260       ?Update@Entity@@QEAAXPEAUlua_State@@PEAVq3Scene@@@Z 0000000140077260 f i world.obj
 0001:00078030       ?drawPropEditor@EntitySystem@@QEAAXXZ 0000000140079030 f i world.obj
 0001:00078300       ?drawEntityEditor@EntitySystem@@QEAAXXZ 0000000140079300 f i world.obj
 0001:00078530       ?drawLevelEditor@EntitySystem@@QEAAXXZ 0000000140079530 f i world.obj
 0001:000787b0       ?addEntity@EntitySystem@@QEAAXV?$basic_string@DU?$char_traits@D@std@@V?$allocator@D@2@@std@@0PEAUlua_State@@@Z 00000001400797b0 f i world.obj
 0001:00078cd0       ?checkSpawnedEntities@EntitySystem@@QEAAXPEAUlua_State@@@Z 0000000140079cd0 f i world.obj
 0001:00078fb0       ?spawnEntities@EntitySystem@@QEAAXPEAUlua_State@@@Z 0000000140079fb0 f i world.obj
 0001:000797f0       ?Update@EntitySystem@@QEAAXPEAUlua_State@@@Z 000000014007a7f0 f i world.obj
 0001:0007a8b0       ?runPrintCommand@EntitySystem@@QEAAXV?$vector@V?$basic_string@DU?$char_traits@D@std@@V?$allocator@D@2@@std@@V?$allocator@V?$basic_string@DU?$char_traits@D@std@@V?$allocator@D@2@@std@@@2@@std@@@Z 000000014007b8b0 f i world.obj
 0001:0007aa70       ?killEntityCommand@EntitySystem@@QEAAXV?$vector@V?$basic_string@DU?$char_traits@D@std@@V?$allocator@D@2@@std@@V?$allocator@V?$basic_string@DU?$char_traits@D@std@@V?$allocator@D@2@@std@@@2@@std@@@Z 000000014007ba70 f i world.obj
 0001:0007ad10       ?ProjColorCommand@EntitySystem@@QEAAXV?$vector@V?$basic_string@DU?$char_traits@D@std@@V?$allocator@D@2@@std@@V?$allocator@V?$basic_string@DU?$char_traits@D@std@@V?$allocator@D@2@@std@@@2@@std@@@Z 000000014007bd10 f i world.obj
 0001:0007aef0       ?printNumCommand@EntitySystem@@QEAAXV?$vector@V?$basic_string@DU?$char_traits@D@std@@V?$allocator@D@2@@std@@V?$allocator@V?$basic_string@DU?$char_traits@D@std@@V?$allocator@D@2@@std@@@2@@std@@@Z 000000014007bef0 f i world.obj
 0001:0007b110       ?runCommand@EntitySystem@@QEAAXXZ 000000014007c110 f i world.obj
 0001:0007b970       ?checkForConsole@EntitySystem@@QEAAXXZ 000000014007c970 f i world.obj
 0001:0007bbe0       ?Draw@EntitySystem@@QEAAXN@Z 000000014007cbe0 f i world.obj
 0001:0007c220       ?writeToFile@Map@@QEAAXXZ  000000014007d220 f i world.obj
 0001:0007c7b0       ?restartMap@Map@@QEAAXV?$basic_string@DU?$char_traits@D@std@@V?$allocator@D@2@@std@@PEAUlua_State@@@Z 000000014007d7b0 f i world.obj
 0001:0007d4b0       ??_D?$basic_ofstream@DU?$char_traits@D@std@@@std@@QEAAXXZ 000000014007e4b0 f i world.obj
 0001:0007d550       ?Update@World@@QEAAXXZ     000000014007e550 f   world.obj
 0001:0007d920       ??1World@@UEAA@XZ          000000014007e920 f   world.obj
 0001:0007d980       ??A?$map@V?$basic_string@DU?$char_traits@D@std@@V?$allocator@D@2@@std@@V?$vector@PEAVanimatedMesh@@V?$allocator@PEAVanimatedMesh@@@std@@@2@U?$less@V?$basic_string@DU?$char_traits@D@std@@V?$allocator@D@2@@std@@@2@V?$allocator@U?$pair@$$CBV?$basic_string@DU?$char_traits@D@std@@V?$allocator@D@2@@std@@V?$vector@PEAVanimatedMesh@@V?$allocator@PEAVanimatedMesh@@@std@@@2@@std@@@2@@std@@QEAAAEAV?$vector@PEAVanimatedMesh@@V?$allocator@PEAVanimatedMesh@@@std@@@1@AEBV?$basic_string@DU?$char_traits@D@std@@V?$allocator@D@2@@1@@Z 000000014007e980 f i world.obj
 0001:0007dac0       ?_Do_notify@?$_Associated_state@H@std@@EEAAXPEAV?$unique_lock@Vmutex@std@@@2@_N@Z 000000014007eac0 f i world.obj
 0001:0007db20       ?_Has_deferred_function@?$_Associated_state@H@std@@EEBA_NXZ 000000014007eb20 f i world.obj
 0001:0007db30       ?_Get_value@?$_Associated_state@H@std@@UEAAAEAH_N@Z 000000014007eb30 f i world.obj
 0001:0007dc90       ?_Wait@?$_Associated_state@H@std@@UEAAXXZ 000000014007ec90 f i world.obj
 0001:0007dd60       ??0?$_Associated_state@H@std@@QEAA@PEAU?$_Deleter_base@H@1@@Z 000000014007ed60 f i world.obj
 0001:0007ddd0       ?_CancelAndRunContinuations@?$_Task_impl@E@details@Concurrency@@UEAA_N_N00AEBV?$shared_ptr@U_ExceptionHolder@details@Concurrency@@@std@@@Z 000000014007edd0 f i world.obj
 0001:0007e0c0       ?_CreateImpl@?$task@E@Concurrency@@QEAAXPEAV_CancellationTokenState@details@2@Uscheduler_ptr@2@@Z 000000014007f0c0 f i world.obj
 0001:0007e440       ?_Exec@?$_CancellationTokenCallback@V<lambda_be3e5d9dce35d2c8dbfa8485373731d5>@@@details@Concurrency@@MEAAXXZ 000000014007f440 f i world.obj
 0001:0007e530       ??1?$unique_ptr@V_PPLTaskChore@_DefaultPPLTaskScheduler@details@Concurrency@@U?$default_delete@V_PPLTaskChore@_DefaultPPLTaskScheduler@details@Concurrency@@@std@@@std@@QEAA@XZ 000000014007f530 f i world.obj
 0001:0007e560       ??B?$atomic@J@std@@QEBAJXZ 000000014007f560 f i world.obj
 0001:0007e570       ??1?$lock_guard@Vmutex@std@@@std@@QEAA@XZ 000000014007f570 f i world.obj
 0001:0007e590       ??1?$unique_lock@Vmutex@std@@@std@@QEAA@XZ 000000014007f590 f i world.obj
 0001:0007e5c0       ??6?$basic_ostream@DU?$char_traits@D@std@@@std@@QEAAAEAV01@N@Z 000000014007f5c0 f i world.obj
 0001:0007e780       ??_E?$basic_ofstream@DU?$char_traits@D@std@@@std@@UEAAPEAXI@Z 000000014007f780 f i * CIL library *:* CIL module *
 0001:0007e780       ??_G?$basic_ofstream@DU?$char_traits@D@std@@@std@@UEAAPEAXI@Z 000000014007f780 f i world.obj
 0001:0007e7c0       ??_G?$_Associated_state@H@std@@UEAAPEAXI@Z 000000014007f7c0 f i world.obj
 0001:0007e7c0       ??_E?$_Associated_state@H@std@@UEAAPEAXI@Z 000000014007f7c0 f i * CIL library *:* CIL module *
 0001:0007e830       ??_G?$_Task_impl@E@details@Concurrency@@UEAAPEAXI@Z 000000014007f830 f i world.obj
 0001:0007e830       ??_E?$_Task_impl@E@details@Concurrency@@UEAAPEAXI@Z 000000014007f830 f i * CIL library *:* CIL module *
 0001:0007e8e0       ??_E?$_CancellationTokenCallback@V<lambda_be3e5d9dce35d2c8dbfa8485373731d5>@@@details@Concurrency@@UEAAPEAXI@Z 000000014007f8e0 f i * CIL library *:* CIL module *
 0001:0007e8e0       ??_G?$_CancellationTokenCallback@V<lambda_be3e5d9dce35d2c8dbfa8485373731d5>@@@details@Concurrency@@UEAAPEAXI@Z 000000014007f8e0 f i world.obj
 0001:0007e960       ?_Set_exception@?$_Associated_state@H@std@@QEAAXVexception_ptr@2@_N@Z 000000014007f960 f i world.obj
 0001:0007ea60       ?_FinalizeAndRunContinuations@?$_Task_impl@E@details@Concurrency@@QEAAXE@Z 000000014007fa60 f i world.obj
 0001:0007eb10       ??4?$shared_ptr@U?$_Task_impl@E@details@Concurrency@@@std@@QEAAAEAV01@$$QEAV01@@Z 000000014007fb10 f i world.obj
 0001:0007eb90       ?_Buy_raw@?$vector@PEAXV?$allocator@PEAX@std@@@std@@AEAAX_K@Z 000000014007fb90 f i world.obj
 0001:0007ec20       ?_Form_name@?$_Directory_iterator@U?$integral_constant@_N$00@std@@@v1@filesystem@experimental@std@@AEAAXPEA_WW4file_type@2345@U?$integral_constant@_N$00@5@@Z 000000014007fc20 f i world.obj
 0001:0007edd0       ?_Delptr@?$_Directory_iterator@U?$integral_constant@_N$00@std@@@v1@filesystem@experimental@std@@CAXPEAPEAX@Z 000000014007fdd0 f i world.obj
 0001:0007ee00       ?assign@?$basic_string@_WU?$char_traits@_W@std@@V?$allocator@_W@2@@std@@QEAAAEAV12@QEB_W_K@Z 000000014007fe00 f i world.obj
 0001:0007ef80       ??$?0_WU?$char_traits@_W@std@@V?$allocator@_W@1@@path@v1@filesystem@experimental@std@@QEAA@AEBV?$basic_string@_WU?$char_traits@_W@std@@V?$allocator@_W@2@@4@@Z 000000014007ff80 f i world.obj
 0001:0007f050       ??$?0PEA_W$0A@@path@v1@filesystem@experimental@std@@QEAA@PEA_W@Z 0000000140080050 f i world.obj
 0001:0007f1f0       ??$atomic_exchange@J@details@Concurrency@@YAJAEAU?$atomic@J@std@@J@Z 00000001400801f0 f i world.obj
 0001:0007f200       ??$?CU_ExceptionHolder@details@Concurrency@@$0A@@?$shared_ptr@U_ExceptionHolder@details@Concurrency@@@std@@QEBAPEAU_ExceptionHolder@details@Concurrency@@XZ 0000000140080200 f i world.obj
 0001:0007f210       ??$_Try_emplace@V?$basic_string@DU?$char_traits@D@std@@V?$allocator@D@2@@std@@$$V@?$map@V?$basic_string@DU?$char_traits@D@std@@V?$allocator@D@2@@std@@HU?$less@V?$basic_string@DU?$char_traits@D@std@@V?$allocator@D@2@@std@@@2@V?$allocator@U?$pair@$$CBV?$basic_string@DU?$char_traits@D@std@@V?$allocator@D@2@@std@@H@std@@@2@@std@@AEAA?AU?$pair@PEAU?$_Tree_node@U?$pair@$$CBV?$basic_string@DU?$char_traits@D@std@@V?$allocator@D@2@@std@@H@std@@PEAX@std@@_N@1@$$QEAV?$basic_string@DU?$char_traits@D@std@@V?$allocator@D@2@@1@@Z 0000000140080210 f i world.obj
 0001:0007f3b0       ?_Delete_this@?$_Ref_count_resource@PEAPEAXP6AXPEAPEAX@Z@std@@EEAAXXZ 00000001400803b0 f i world.obj
 0001:0007f3b0       ?_Delete_this@?$_Ref_count_obj2@U?$_Task_impl@E@details@Concurrency@@@std@@EEAAXXZ 00000001400803b0 f i world.obj
 0001:0007f3b0       ?_Delete_this@?$_Ref_count_obj2@U_ExceptionHolder@details@Concurrency@@@std@@EEAAXXZ 00000001400803b0 f i world.obj
 0001:0007f3d0       ?_Destroy@?$_Ref_count_obj2@U?$_Task_impl@E@details@Concurrency@@@std@@EEAAXXZ 00000001400803d0 f i world.obj
 0001:0007f3e0       ?_Destroy@?$_Ref_count_obj2@U_ExceptionHolder@details@Concurrency@@@std@@EEAAXXZ 00000001400803e0 f i world.obj
 0001:0007f3f0       ??_G?$_Ref_count_obj2@U?$_Task_impl@E@details@Concurrency@@@std@@UEAAPEAXI@Z 00000001400803f0 f i world.obj
 0001:0007f3f0       ??_E?$_Ref_count_obj2@U?$_Task_impl@E@details@Concurrency@@@std@@UEAAPEAXI@Z 00000001400803f0 f i * CIL library *:* CIL module *
 0001:0007f420       ??1?$_Alloc_construct_ptr@V?$allocator@U?$_Tree_node@U?$pair@$$CBV?$basic_string@DU?$char_traits@D@std@@V?$allocator@D@2@@std@@V?$vector@PEAVanimatedMesh@@V?$allocator@PEAVanimatedMesh@@@std@@@2@@std@@PEAX@std@@@std@@@std@@QEAA@XZ 0000000140080420 f i world.obj
 0001:0007f420       ??1?$_Tree_temp_node_alloc@V?$allocator@U?$_Tree_node@U?$pair@$$CBV?$basic_string@DU?$char_traits@D@std@@V?$allocator@D@2@@std@@V?$vector@PEAVanimatedMesh@@V?$allocator@PEAVanimatedMesh@@@std@@@2@@std@@PEAX@std@@@std@@@std@@QEAA@XZ 0000000140080420 f i world.obj
 0001:0007f440       ??_G?$_Ref_count_obj2@U_ExceptionHolder@details@Concurrency@@@std@@UEAAPEAXI@Z 0000000140080440 f i world.obj
 0001:0007f440       ??_E?$_Ref_count_obj2@U_ExceptionHolder@details@Concurrency@@@std@@UEAAPEAXI@Z 0000000140080440 f i * CIL library *:* CIL module *
 0001:0007f470       ??$_Callback_once@V?$tuple@$$QEAV<lambda_0e64988457575224279dcb6d61e61bdd>@@AEAVexception_ptr@std@@@std@@U?$integer_sequence@_K$0A@@2@$00@std@@YAHPEAX0PEAPEAX@Z 0000000140080470 f i world.obj
 0001:0007f500       ??$_Immortalize_impl@V_Future_error_category@std@@@std@@YAHPEAX0PEAPEAX@Z 0000000140080500 f i world.obj
 0001:0007f520       ??$_Find_lower_bound@V?$basic_string@DU?$char_traits@D@std@@V?$allocator@D@2@@std@@@?$_Tree@V?$_Tmap_traits@V?$basic_string@DU?$char_traits@D@std@@V?$allocator@D@2@@std@@V?$vector@PEAVanimatedMesh@@V?$allocator@PEAVanimatedMesh@@@std@@@2@U?$less@V?$basic_string@DU?$char_traits@D@std@@V?$allocator@D@2@@std@@@2@V?$allocator@U?$pair@$$CBV?$basic_string@DU?$char_traits@D@std@@V?$allocator@D@2@@std@@V?$vector@PEAVanimatedMesh@@V?$allocator@PEAVanimatedMesh@@@std@@@2@@std@@@2@$0A@@std@@@std@@IEBA?AU?$_Tree_find_result@PEAU?$_Tree_node@U?$pair@$$CBV?$basic_string@DU?$char_traits@D@std@@V?$allocator@D@2@@std@@V?$vector@PEAVanimatedMesh@@V?$allocator@PEAVanimatedMesh@@@std@@@2@@std@@PEAX@std@@@1@AEBV?$basic_string@DU?$char_traits@D@std@@V?$allocator@D@2@@1@@Z 0000000140080520 f i world.obj
 0001:0007f5e0       ??$_Assign_range@PEAPEAVanimatedMesh@@@?$vector@PEAVanimatedMesh@@V?$allocator@PEAVanimatedMesh@@@std@@@std@@AEAAXPEAPEAVanimatedMesh@@0Uforward_iterator_tag@1@@Z 00000001400805e0 f i world.obj
 0001:0007f740       ?_Destroy@?$_Ref_count_resource@PEAPEAXP6AXPEAPEAX@Z@std@@EEAAXXZ 0000000140080740 f i world.obj
 0001:0007f760       ?_Get_deleter@?$_Ref_count_resource@PEAPEAXP6AXPEAPEAX@Z@std@@UEBAPEAXAEBVtype_info@@@Z 0000000140080760 f i world.obj
 0001:0007f790       ??1?$_Temporary_owner_del@PEAPEAXP6AXPEAPEAX@Z@std@@QEAA@XZ 0000000140080790 f i world.obj
 0001:0007f7b0       ?_Delete_this@?$_Func_impl_no_alloc@V<lambda_763529b0c7473cbc215a52d189ac9b18>@@X$$V@std@@EEAAX_N@Z 00000001400807b0 f i world.obj
 0001:0007f7b0       ?_Delete_this@?$_Func_impl_no_alloc@V<lambda_713ee8bbd6b08550d59c52695cab5ce3>@@X$$V@std@@EEAAX_N@Z 00000001400807b0 f i world.obj
 0001:0007f7b0       ?_Delete_this@?$_Func_impl_no_alloc@V<lambda_b5fc0aa55ed76f3c139d4d359dacee0e>@@X$$V@std@@EEAAX_N@Z 00000001400807b0 f i world.obj
 0001:0007f7b0       ?_Delete_this@?$_Func_impl_no_alloc@V<lambda_be7ffefe5a71363bad350c58c5735cce>@@X$$V@std@@EEAAX_N@Z 00000001400807b0 f i world.obj
 0001:0007f7c0       ?_Get@?$_Func_impl_no_alloc@V<lambda_f25c37099038263181b5186a3fa41b37>@@X$$V@std@@EEBAPEBXXZ 00000001400807c0 f i world.obj
 0001:0007f7c0       ?_Get@?$_Func_impl_no_alloc@V<lambda_be7ffefe5a71363bad350c58c5735cce>@@X$$V@std@@EEBAPEBXXZ 00000001400807c0 f i world.obj
 0001:0007f7c0       ?_Get@?$_Func_impl_no_alloc@V?$_Fake_no_copy_callable_adapter@P8animatedObject@@EAAXXZPEAV1@@std@@X$$V@std@@EEBAPEBXXZ 00000001400807c0 f i world.obj
 0001:0007f7c0       ?_Get@?$_Func_impl_no_alloc@V?$_Fake_no_copy_callable_adapter@P8EntitySystem@@EAAXPEAUlua_State@@@ZPEAV1@AEAPEAU2@@std@@X$$V@std@@EEBAPEBXXZ 00000001400807c0 f i world.obj
 0001:0007f7c0       ?_Get@?$_Func_impl_no_alloc@V<lambda_052e919cc0e5399df76dff3972c0cac1>@@E$$V@std@@EEBAPEBXXZ 00000001400807c0 f i world.obj
 0001:0007f7c0       ?_Get@?$_Func_impl_no_alloc@V<lambda_763529b0c7473cbc215a52d189ac9b18>@@X$$V@std@@EEBAPEBXXZ 00000001400807c0 f i world.obj
 0001:0007f7c0       ?_Get@?$_Func_impl_no_alloc@V<lambda_713ee8bbd6b08550d59c52695cab5ce3>@@X$$V@std@@EEBAPEBXXZ 00000001400807c0 f i world.obj
 0001:0007f7c0       _Mtx_getconcrtcs           00000001400807c0 f i libcpmt:mutex.obj
 0001:0007f7c0       ?_Get@?$_Func_impl_no_alloc@V<lambda_b5fc0aa55ed76f3c139d4d359dacee0e>@@X$$V@std@@EEBAPEBXXZ 00000001400807c0 f i world.obj
 0001:0007f7d0       ?_Target_type@?$_Func_impl_no_alloc@V<lambda_763529b0c7473cbc215a52d189ac9b18>@@X$$V@std@@EEBAAEBVtype_info@@XZ 00000001400807d0 f i world.obj
 0001:0007f7e0       ?_Do_call@?$_Func_impl_no_alloc@V<lambda_763529b0c7473cbc215a52d189ac9b18>@@X$$V@std@@EEAAXXZ 00000001400807e0 f i world.obj
 0001:0007f820       ?_Move@?$_Func_impl_no_alloc@V<lambda_763529b0c7473cbc215a52d189ac9b18>@@X$$V@std@@EEAAPEAV?$_Func_base@X$$V@2@PEAX@Z 0000000140080820 f i world.obj
 0001:0007f820       ?_Copy@?$_Func_impl_no_alloc@V<lambda_763529b0c7473cbc215a52d189ac9b18>@@X$$V@std@@EEBAPEAV?$_Func_base@X$$V@2@PEAX@Z 0000000140080820 f i world.obj
 0001:0007f840       ?_Delete_this@?$_Func_impl_no_alloc@V<lambda_052e919cc0e5399df76dff3972c0cac1>@@E$$V@std@@EEAAX_N@Z 0000000140080840 f i world.obj
 0001:0007f8a0       ?_Target_type@?$_Func_impl_no_alloc@V<lambda_052e919cc0e5399df76dff3972c0cac1>@@E$$V@std@@EEBAAEBVtype_info@@XZ 00000001400808a0 f i world.obj
 0001:0007f8b0       ?_Do_call@?$_Func_impl_no_alloc@V<lambda_052e919cc0e5399df76dff3972c0cac1>@@E$$V@std@@EEAAEXZ 00000001400808b0 f i world.obj
 0001:0007f8d0       ?_Copy@?$_Func_impl_no_alloc@V<lambda_052e919cc0e5399df76dff3972c0cac1>@@E$$V@std@@EEBAPEAV?$_Func_base@E$$V@2@PEAX@Z 00000001400808d0 f i world.obj
 0001:0007f940       ?_Target_type@?$_Func_impl_no_alloc@V<lambda_713ee8bbd6b08550d59c52695cab5ce3>@@X$$V@std@@EEBAAEBVtype_info@@XZ 0000000140080940 f i world.obj
 0001:0007f950       ?_Do_call@?$_Func_impl_no_alloc@V<lambda_713ee8bbd6b08550d59c52695cab5ce3>@@X$$V@std@@EEAAXXZ 0000000140080950 f i world.obj
 0001:0007f960       ?_Copy@?$_Func_impl_no_alloc@V<lambda_713ee8bbd6b08550d59c52695cab5ce3>@@X$$V@std@@EEBAPEAV?$_Func_base@X$$V@2@PEAX@Z 0000000140080960 f i world.obj
 0001:0007f960       ?_Move@?$_Func_impl_no_alloc@V<lambda_713ee8bbd6b08550d59c52695cab5ce3>@@X$$V@std@@EEAAPEAV?$_Func_base@X$$V@2@PEAX@Z 0000000140080960 f i world.obj
 0001:0007f980       ?_Delete_this@?$_Func_impl_no_alloc@V<lambda_f25c37099038263181b5186a3fa41b37>@@X$$V@std@@EEAAX_N@Z 0000000140080980 f i world.obj
 0001:0007fa00       ?_Target_type@?$_Func_impl_no_alloc@V<lambda_f25c37099038263181b5186a3fa41b37>@@X$$V@std@@EEBAAEBVtype_info@@XZ 0000000140080a00 f i world.obj
 0001:0007fa10       ?_Do_call@?$_Func_impl_no_alloc@V<lambda_f25c37099038263181b5186a3fa41b37>@@X$$V@std@@EEAAXXZ 0000000140080a10 f i world.obj
 0001:0007fa30       ?_Move@?$_Func_impl_no_alloc@V<lambda_f25c37099038263181b5186a3fa41b37>@@X$$V@std@@EEAAPEAV?$_Func_base@X$$V@2@PEAX@Z 0000000140080a30 f i world.obj
 0001:0007fa70       ?_Copy@?$_Func_impl_no_alloc@V<lambda_f25c37099038263181b5186a3fa41b37>@@X$$V@std@@EEBAPEAV?$_Func_base@X$$V@2@PEAX@Z 0000000140080a70 f i world.obj
 0001:0007fab0       ??_E?$_Ref_count_resource@PEAPEAXP6AXPEAPEAX@Z@std@@UEAAPEAXI@Z 0000000140080ab0 f i * CIL library *:* CIL module *
 0001:0007fab0       ??_G?$_Ref_count_resource@PEAPEAXP6AXPEAPEAX@Z@std@@UEAAPEAXI@Z 0000000140080ab0 f i world.obj
 0001:0007fae0       ??1_Guard_type@?1???$_Global_new@V?$_Func_impl_no_alloc@V<lambda_052e919cc0e5399df76dff3972c0cac1>@@E$$V@std@@AEBV<lambda_052e919cc0e5399df76dff3972c0cac1>@@@std@@YAPEAV?$_Func_impl_no_alloc@V<lambda_052e919cc0e5399df76dff3972c0cac1>@@E$$V@1@AEBV<lambda_052e919cc0e5399df76dff3972c0cac1>@@@Z@QEAA@XZ 0000000140080ae0 f i world.obj
 0001:0007fae0       ??1_Guard_type@?1???$_Global_new@V?$_Func_impl_no_alloc@V<lambda_052e919cc0e5399df76dff3972c0cac1>@@E$$V@std@@V<lambda_052e919cc0e5399df76dff3972c0cac1>@@@std@@YAPEAV?$_Func_impl_no_alloc@V<lambda_052e919cc0e5399df76dff3972c0cac1>@@E$$V@1@$$QEAV<lambda_052e919cc0e5399df76dff3972c0cac1>@@@Z@QEAA@XZ 0000000140080ae0 f i world.obj
 0001:0007fb00       ??$_Get_associated_state@XV?$_Fake_no_copy_callable_adapter@P8animatedObject@@EAAXXZPEAV1@@std@@@std@@YAPEAV?$_Associated_state@H@0@W4launch@0@$$QEAV?$_Fake_no_copy_callable_adapter@P8animatedObject@@EAAXXZPEAV1@@0@@Z 0000000140080b00 f i world.obj
 0001:0007fd00       ??$_Get_associated_state@XV?$_Fake_no_copy_callable_adapter@P8EntitySystem@@EAAXPEAUlua_State@@@ZPEAV1@AEAPEAU2@@std@@@std@@YAPEAV?$_Associated_state@H@0@W4launch@0@$$QEAV?$_Fake_no_copy_callable_adapter@P8EntitySystem@@EAAXPEAUlua_State@@@ZPEAV1@AEAPEAU2@@0@@Z 0000000140080d00 f i world.obj
 0001:0007fee0       ?_Get_value@?$_Task_async_state@X@std@@UEAAAEAH_N@Z 0000000140080ee0 f i world.obj
 0001:00080060       ?_Wait@?$_Task_async_state@X@std@@UEAAXXZ 0000000140081060 f i world.obj
 0001:00080080       ?_Run_deferred_function@?$_Deferred_async_state@X@std@@EEAAXAEAV?$unique_lock@Vmutex@std@@@2@@Z 0000000140081080 f i world.obj
 0001:00080100       ?_Has_deferred_function@?$_Deferred_async_state@X@std@@EEBA_NXZ 0000000140081100 f i world.obj
 0001:00080110       ??_G?$_Task_async_state@X@std@@UEAAPEAXI@Z 0000000140081110 f i world.obj
 0001:00080110       ??_E?$_Task_async_state@X@std@@UEAAPEAXI@Z 0000000140081110 f i * CIL library *:* CIL module *
 0001:000801c0       ??1?$_Packaged_state@$$A6AXXZ@std@@UEAA@XZ 00000001400811c0 f i world.obj
 0001:00080240       ?_Call_immediate@?$_Packaged_state@$$A6AXXZ@std@@QEAAXXZ 0000000140081240 f i world.obj
 0001:00080310       ??_E?$_Deferred_async_state@X@std@@UEAAPEAXI@Z 0000000140081310 f i * CIL library *:* CIL module *
 0001:00080310       ??_E?$_Packaged_state@$$A6AXXZ@std@@UEAAPEAXI@Z 0000000140081310 f i * CIL library *:* CIL module *
 0001:00080310       ??_G?$_Deferred_async_state@X@std@@UEAAPEAXI@Z 0000000140081310 f i world.obj
 0001:00080310       ??_G?$_Packaged_state@$$A6AXXZ@std@@UEAAPEAXI@Z 0000000140081310 f i world.obj
 0001:00080350       ??$create_task@V<lambda_be7ffefe5a71363bad350c58c5735cce>@@@Concurrency@@YA?AV?$task@X@0@V<lambda_be7ffefe5a71363bad350c58c5735cce>@@Vtask_options@0@@Z 0000000140081350 f i world.obj
 0001:00080450       ??$create_task@V<lambda_b5fc0aa55ed76f3c139d4d359dacee0e>@@@Concurrency@@YA?AV?$task@X@0@V<lambda_b5fc0aa55ed76f3c139d4d359dacee0e>@@Vtask_options@0@@Z 0000000140081450 f i world.obj
 0001:00080550       ??0?$tuple@P8animatedObject@@EAAXXZPEAV1@@std@@QEAA@$$QEAV01@@Z 0000000140081550 f i world.obj
 0001:00080570       ??0?$tuple@P8EntitySystem@@EAAXPEAUlua_State@@@ZPEAV1@PEAU2@@std@@QEAA@$$QEAV01@@Z 0000000140081570 f i world.obj
 0001:00080590       ??$?0V<lambda_be7ffefe5a71363bad350c58c5735cce>@@@?$task@X@Concurrency@@QEAA@V<lambda_be7ffefe5a71363bad350c58c5735cce>@@AEBVtask_options@1@@Z 0000000140081590 f i world.obj
 0001:00080830       ??$?0V<lambda_b5fc0aa55ed76f3c139d4d359dacee0e>@@@?$task@X@Concurrency@@QEAA@V<lambda_b5fc0aa55ed76f3c139d4d359dacee0e>@@AEBVtask_options@1@@Z 0000000140081830 f i world.obj
 0001:00080ad0       ?_Delete_this@?$_Func_impl_no_alloc@V?$_Fake_no_copy_callable_adapter@P8EntitySystem@@EAAXPEAUlua_State@@@ZPEAV1@AEAPEAU2@@std@@X$$V@std@@EEAAX_N@Z 0000000140081ad0 f i world.obj
 0001:00080ae0       ?_Target_type@?$_Func_impl_no_alloc@V?$_Fake_no_copy_callable_adapter@P8EntitySystem@@EAAXPEAUlua_State@@@ZPEAV1@AEAPEAU2@@std@@X$$V@std@@EEBAAEBVtype_info@@XZ 0000000140081ae0 f i world.obj
 0001:00080af0       ?_Do_call@?$_Func_impl_no_alloc@V?$_Fake_no_copy_callable_adapter@P8EntitySystem@@EAAXPEAUlua_State@@@ZPEAV1@AEAPEAU2@@std@@X$$V@std@@EEAAXXZ 0000000140081af0 f i world.obj
 0001:00080b00       ?_Move@?$_Func_impl_no_alloc@V?$_Fake_no_copy_callable_adapter@P8EntitySystem@@EAAXPEAUlua_State@@@ZPEAV1@AEAPEAU2@@std@@X$$V@std@@EEAAPEAV?$_Func_base@X$$V@2@PEAX@Z 0000000140081b00 f i world.obj
 0001:00080b30       ?_Copy@?$_Func_impl_no_alloc@V?$_Fake_no_copy_callable_adapter@P8EntitySystem@@EAAXPEAUlua_State@@@ZPEAV1@AEAPEAU2@@std@@X$$V@std@@EEBAPEAV?$_Func_base@X$$V@2@PEAX@Z 0000000140081b30 f i world.obj
 0001:00080b50       ?_Delete_this@?$_Func_impl_no_alloc@V?$_Fake_no_copy_callable_adapter@P8animatedObject@@EAAXXZPEAV1@@std@@X$$V@std@@EEAAX_N@Z 0000000140081b50 f i world.obj
 0001:00080b60       ?_Target_type@?$_Func_impl_no_alloc@V?$_Fake_no_copy_callable_adapter@P8animatedObject@@EAAXXZPEAV1@@std@@X$$V@std@@EEBAAEBVtype_info@@XZ 0000000140081b60 f i world.obj
 0001:00080b70       ?_Do_call@?$_Func_impl_no_alloc@V?$_Fake_no_copy_callable_adapter@P8animatedObject@@EAAXXZPEAV1@@std@@X$$V@std@@EEAAXXZ 0000000140081b70 f i world.obj
 0001:00080b80       ?_Move@?$_Func_impl_no_alloc@V?$_Fake_no_copy_callable_adapter@P8animatedObject@@EAAXXZPEAV1@@std@@X$$V@std@@EEAAPEAV?$_Func_base@X$$V@2@PEAX@Z 0000000140081b80 f i world.obj
 0001:00080ba0       ?_Copy@?$_Func_impl_no_alloc@V?$_Fake_no_copy_callable_adapter@P8animatedObject@@EAAXXZPEAV1@@std@@X$$V@std@@EEBAPEAV?$_Func_base@X$$V@2@PEAX@Z 0000000140081ba0 f i world.obj
 0001:00080bc0       ??$?0AEBV?$_Fake_no_copy_callable_adapter@P8EntitySystem@@EAAXPEAUlua_State@@@ZPEAV1@AEAPEAU2@@std@@$0A@@?$_Func_impl_no_alloc@V?$_Fake_no_copy_callable_adapter@P8EntitySystem@@EAAXPEAUlua_State@@@ZPEAV1@AEAPEAU2@@std@@X$$V@std@@QEAA@AEBV?$_Fake_no_copy_callable_adapter@P8EntitySystem@@EAAXPEAUlua_State@@@ZPEAV1@AEAPEAU2@@1@@Z 0000000140081bc0 f i world.obj
 0001:00080bf0       ??$?0AEBV?$_Fake_no_copy_callable_adapter@P8animatedObject@@EAAXXZPEAV1@@std@@$0A@@?$_Func_impl_no_alloc@V?$_Fake_no_copy_callable_adapter@P8animatedObject@@EAAXXZPEAV1@@std@@X$$V@std@@QEAA@AEBV?$_Fake_no_copy_callable_adapter@P8animatedObject@@EAAXXZPEAV1@@1@@Z 0000000140081bf0 f i world.obj
 0001:00080c20       ?invoke@?$_PPLTaskHandle@EU?$_InitialTaskHandle@XV<lambda_b5fc0aa55ed76f3c139d4d359dacee0e>@@U_TypeSelectorNoAsync@details@Concurrency@@@?$task@E@Concurrency@@U_TaskProcHandle@details@3@@details@Concurrency@@UEBAXXZ 0000000140081c20 f i world.obj
 0001:00080da0       ??1?$_PPLTaskHandle@EU?$_InitialTaskHandle@XV<lambda_b5fc0aa55ed76f3c139d4d359dacee0e>@@U_TypeSelectorNoAsync@details@Concurrency@@@?$task@E@Concurrency@@U_TaskProcHandle@details@3@@details@Concurrency@@UEAA@XZ 0000000140081da0 f i world.obj
 0001:00080e20       ?invoke@?$_PPLTaskHandle@EU?$_InitialTaskHandle@XV<lambda_be7ffefe5a71363bad350c58c5735cce>@@U_TypeSelectorNoAsync@details@Concurrency@@@?$task@E@Concurrency@@U_TaskProcHandle@details@3@@details@Concurrency@@UEBAXXZ 0000000140081e20 f i world.obj
 0001:00080fa0       ??1?$_PPLTaskHandle@EU?$_InitialTaskHandle@XV<lambda_be7ffefe5a71363bad350c58c5735cce>@@U_TypeSelectorNoAsync@details@Concurrency@@@?$task@E@Concurrency@@U_TaskProcHandle@details@3@@details@Concurrency@@UEAA@XZ 0000000140081fa0 f i world.obj
 0001:00081020       ??0?$_Fake_no_copy_callable_adapter@P8EntitySystem@@EAAXPEAUlua_State@@@ZPEAV1@AEAPEAU2@@std@@QEAA@AEBV01@@Z 0000000140082020 f i world.obj
 0001:00081040       ??0?$_Fake_no_copy_callable_adapter@P8animatedObject@@EAAXXZPEAV1@@std@@QEAA@AEBV01@@Z 0000000140082040 f i world.obj
 0001:00081060       ??_E?$_InitialTaskHandle@XV<lambda_b5fc0aa55ed76f3c139d4d359dacee0e>@@U_TypeSelectorNoAsync@details@Concurrency@@@?$task@E@Concurrency@@UEAAPEAXI@Z 0000000140082060 f i * CIL library *:* CIL module *
 0001:00081060       ??_G?$_InitialTaskHandle@XV<lambda_b5fc0aa55ed76f3c139d4d359dacee0e>@@U_TypeSelectorNoAsync@details@Concurrency@@@?$task@E@Concurrency@@UEAAPEAXI@Z 0000000140082060 f i world.obj
 0001:000810a0       ??_E?$_PPLTaskHandle@EU?$_InitialTaskHandle@XV<lambda_b5fc0aa55ed76f3c139d4d359dacee0e>@@U_TypeSelectorNoAsync@details@Concurrency@@@?$task@E@Concurrency@@U_TaskProcHandle@details@3@@details@Concurrency@@UEAAPEAXI@Z 00000001400820a0 f i * CIL library *:* CIL module *
 0001:000810a0       ??_G?$_PPLTaskHandle@EU?$_InitialTaskHandle@XV<lambda_b5fc0aa55ed76f3c139d4d359dacee0e>@@U_TypeSelectorNoAsync@details@Concurrency@@@?$task@E@Concurrency@@U_TaskProcHandle@details@3@@details@Concurrency@@UEAAPEAXI@Z 00000001400820a0 f i world.obj
 0001:000810e0       ??_G?$_InitialTaskHandle@XV<lambda_be7ffefe5a71363bad350c58c5735cce>@@U_TypeSelectorNoAsync@details@Concurrency@@@?$task@E@Concurrency@@UEAAPEAXI@Z 00000001400820e0 f i world.obj
 0001:000810e0       ??_E?$_InitialTaskHandle@XV<lambda_be7ffefe5a71363bad350c58c5735cce>@@U_TypeSelectorNoAsync@details@Concurrency@@@?$task@E@Concurrency@@UEAAPEAXI@Z 00000001400820e0 f i * CIL library *:* CIL module *
 0001:00081120       ??_G?$_PPLTaskHandle@EU?$_InitialTaskHandle@XV<lambda_be7ffefe5a71363bad350c58c5735cce>@@U_TypeSelectorNoAsync@details@Concurrency@@@?$task@E@Concurrency@@U_TaskProcHandle@details@3@@details@Concurrency@@UEAAPEAXI@Z 0000000140082120 f i world.obj
 0001:00081120       ??_E?$_PPLTaskHandle@EU?$_InitialTaskHandle@XV<lambda_be7ffefe5a71363bad350c58c5735cce>@@U_TypeSelectorNoAsync@details@Concurrency@@@?$task@E@Concurrency@@U_TaskProcHandle@details@3@@details@Concurrency@@UEAAPEAXI@Z 0000000140082120 f i * CIL library *:* CIL module *
 0001:00081160       ?_Target_type@?$_Func_impl_no_alloc@V<lambda_b5fc0aa55ed76f3c139d4d359dacee0e>@@X$$V@std@@EEBAAEBVtype_info@@XZ 0000000140082160 f i world.obj
 0001:00081170       ?_Do_call@?$_Func_impl_no_alloc@V<lambda_b5fc0aa55ed76f3c139d4d359dacee0e>@@X$$V@std@@EEAAXXZ 0000000140082170 f i world.obj
 0001:00081170       ?_Do_call@?$_Func_impl_no_alloc@V<lambda_be7ffefe5a71363bad350c58c5735cce>@@X$$V@std@@EEAAXXZ 0000000140082170 f i world.obj
 0001:00081180       ?_Copy@?$_Func_impl_no_alloc@V<lambda_b5fc0aa55ed76f3c139d4d359dacee0e>@@X$$V@std@@EEBAPEAV?$_Func_base@X$$V@2@PEAX@Z 0000000140082180 f i world.obj
 0001:00081180       ?_Move@?$_Func_impl_no_alloc@V<lambda_b5fc0aa55ed76f3c139d4d359dacee0e>@@X$$V@std@@EEAAPEAV?$_Func_base@X$$V@2@PEAX@Z 0000000140082180 f i world.obj
 0001:000811a0       ?_Target_type@?$_Func_impl_no_alloc@V<lambda_be7ffefe5a71363bad350c58c5735cce>@@X$$V@std@@EEBAAEBVtype_info@@XZ 00000001400821a0 f i world.obj
 0001:000811b0       ?_Move@?$_Func_impl_no_alloc@V<lambda_be7ffefe5a71363bad350c58c5735cce>@@X$$V@std@@EEAAPEAV?$_Func_base@X$$V@2@PEAX@Z 00000001400821b0 f i world.obj
 0001:000811b0       ?_Copy@?$_Func_impl_no_alloc@V<lambda_be7ffefe5a71363bad350c58c5735cce>@@X$$V@std@@EEBAPEAV?$_Func_base@X$$V@2@PEAX@Z 00000001400821b0 f i world.obj
 0001:000811c8       ??_E?$basic_ofstream@DU?$char_traits@D@std@@@std@@$4PPPPPPPM@A@EAAPEAXI@Z 00000001400821c8 f i world.obj
 0001:000811e0       ??0q3Vec3@@QEAA@MMM@Z      00000001400821e0 f   qu3e:q3Vec3.obj
 0001:00081200       ??0q3Vec3@@QEAA@XZ         0000000140082200 f   qu3e:q3Vec3.obj
 0001:00081200       ??0q3Quaternion@@QEAA@XZ   0000000140082200 f   qu3e:q3Quaternion.obj
 0001:00081210       ??Aq3Vec3@@QEAAAEAMI@Z     0000000140082210 f   qu3e:q3Vec3.obj
 0001:00081220       ??Dq3Vec3@@QEBA?BU0@M@Z    0000000140082220 f   qu3e:q3Vec3.obj
 0001:00081250       ??Gq3Vec3@@QEBA?AU0@XZ     0000000140082250 f   qu3e:q3Vec3.obj
 0001:00081290       ??Gq3Vec3@@QEBA?BU0@AEBU0@@Z 0000000140082290 f   qu3e:q3Vec3.obj
 0001:000812d0       ??Hq3Vec3@@QEBA?BU0@AEBU0@@Z 00000001400822d0 f   qu3e:q3Vec3.obj
 0001:00081310       ??Xq3Vec3@@QEAAAEAU0@M@Z   0000000140082310 f   qu3e:q3Vec3.obj
 0001:00081340       ??Yq3Vec3@@QEAAAEAU0@AEBU0@@Z 0000000140082340 f   qu3e:q3Vec3.obj
 0001:00081370       ??Zq3Vec3@@QEAAAEAU0@AEBU0@@Z 0000000140082370 f   qu3e:q3Vec3.obj
 0001:000813a0       ?Set@q3Vec3@@QEAAXMMM@Z    00000001400823a0 f   qu3e:q3Vec3.obj
 0001:000813b0       ??0q3Body@@AEAA@AEBUq3BodyDef@@PEAVq3Scene@@@Z 00000001400823b0 f   qu3e:q3Body.obj
 0001:00081690       ?AddBox@q3Body@@QEAAPEBUq3Box@@AEBVq3BoxDef@@@Z 0000000140082690 f   qu3e:q3Body.obj
 0001:00081790       ?ApplyLinearForce@q3Body@@QEAAXAEBUq3Vec3@@@Z 0000000140082790 f   qu3e:q3Body.obj
 0001:000817e0       ?CalculateMassData@q3Body@@AEAAXXZ 00000001400827e0 f   qu3e:q3Body.obj
 0001:00081cb0       ?CanCollide@q3Body@@QEBA_NPEBV1@@Z 0000000140082cb0 f   qu3e:q3Body.obj
 0001:00081ce0       ?GetLinearVelocity@q3Body@@QEBA?BUq3Vec3@@XZ 0000000140082ce0 f   qu3e:q3Body.obj
 0001:00081d00       ?GetTransform@q3Body@@QEBA?BUq3Transform@@XZ 0000000140082d00 f   qu3e:q3Body.obj
 0001:00081d30       ?IsAwake@q3Body@@QEBA_NXZ  0000000140082d30 f   qu3e:q3Body.obj
 0001:00081d40       ?RemoveAllBoxes@q3Body@@QEAAXXZ 0000000140082d40 f   qu3e:q3Body.obj
 0001:00081dc0       ?SetLinearVelocity@q3Body@@QEAAXAEBUq3Vec3@@@Z 0000000140082dc0 f   qu3e:q3Body.obj
 0001:00081e20       ?SetToAwake@q3Body@@QEAAXXZ 0000000140082e20 f   qu3e:q3Body.obj
 0001:00081e40       ?SetToSleep@q3Body@@QEAAXXZ 0000000140082e40 f   qu3e:q3Body.obj
 0001:00081eb0       ?SetTransform@q3Body@@QEAAXAEBUq3Vec3@@0M@Z 0000000140082eb0 f   qu3e:q3Body.obj
 0001:00081f20       ?SetTransform@q3Body@@QEAAXAEBUq3Vec3@@@Z 0000000140082f20 f   qu3e:q3Body.obj
 0001:00081f40       ?SynchronizeProxies@q3Body@@AEAAXXZ 0000000140082f40 f   qu3e:q3Body.obj
 0001:00082020       ?q3Inverse@@YA?BUq3Mat3@@AEBU1@@Z 0000000140083020 f i qu3e:q3Body.obj
 0001:00082260       ??0q3Mat3@@QEAA@AEBUq3Vec3@@00@Z 0000000140083260 f   qu3e:q3Mat3.obj
 0001:000822a0       ??0q3Mat3@@QEAA@MMMMMMMMM@Z 00000001400832a0 f   qu3e:q3Mat3.obj
 0001:000822f0       ??0q3Mat3@@QEAA@XZ         00000001400832f0 f   qu3e:q3Mat3.obj
 0001:00082320       ??4q3Mat3@@QEAAAEAU0@AEBU0@@Z 0000000140083320 f   qu3e:q3Mat3.obj
 0001:00082360       ??Aq3Mat3@@QEAAAEAUq3Vec3@@I@Z 0000000140083360 f   qu3e:q3Mat3.obj
 0001:00082380       ??Dq3Mat3@@QEBA?BU0@AEBU0@@Z 0000000140083380 f   qu3e:q3Mat3.obj
 0001:00082550       ??Dq3Mat3@@QEBA?BU0@M@Z    0000000140083550 f   qu3e:q3Mat3.obj
 0001:00082600       ??Dq3Mat3@@QEBA?BUq3Vec3@@AEBU1@@Z 0000000140083600 f   qu3e:q3Mat3.obj
 0001:000826a0       ??Gq3Mat3@@QEBA?BU0@AEBU0@@Z 00000001400836a0 f   qu3e:q3Mat3.obj
 0001:00082750       ??Yq3Mat3@@QEAAAEAU0@AEBU0@@Z 0000000140083750 f   qu3e:q3Mat3.obj
 0001:00082790       ??Zq3Mat3@@QEAAAEAU0@AEBU0@@Z 0000000140083790 f   qu3e:q3Mat3.obj
 0001:000827d0       ?Column0@q3Mat3@@QEBA?BUq3Vec3@@XZ 00000001400837d0 f   qu3e:q3Mat3.obj
 0001:00082800       ?Column1@q3Mat3@@QEBA?BUq3Vec3@@XZ 0000000140083800 f   qu3e:q3Mat3.obj
 0001:00082830       ?Column2@q3Mat3@@QEBA?BUq3Vec3@@XZ 0000000140083830 f   qu3e:q3Mat3.obj
 0001:00082860       ?Set@q3Mat3@@QEAAXMMMMMMMMM@Z 0000000140083860 f   qu3e:q3Mat3.obj
 0001:000828b0       ?SetRows@q3Mat3@@QEAAXAEBUq3Vec3@@00@Z 00000001400838b0 f   qu3e:q3Mat3.obj
 0001:000828f0       ??0q3Scene@@QEAA@MAEBUq3Vec3@@H@Z 00000001400838f0 f   qu3e:q3Scene.obj
 0001:000829c0       ??1q3ContactManager@@QEAA@XZ 00000001400839c0 f i qu3e:q3Scene.obj
 0001:000829e0       ??1q3Scene@@QEAA@XZ        00000001400839e0 f   qu3e:q3Scene.obj
 0001:00082aa0       ?CreateBody@q3Scene@@QEAAPEAVq3Body@@AEBUq3BodyDef@@@Z 0000000140083aa0 f   qu3e:q3Scene.obj
 0001:00082b30       ?RemoveAllBodies@q3Scene@@QEAAXXZ 0000000140083b30 f   qu3e:q3Scene.obj
 0001:00082bc0       ?RemoveBody@q3Scene@@QEAAXPEAVq3Body@@@Z 0000000140083bc0 f   qu3e:q3Scene.obj
 0001:00082c50       ?Step@q3Scene@@QEAAXXZ     0000000140083c50 f   qu3e:q3Scene.obj
 0001:00083010       ??0q3Quaternion@@QEAA@MMMM@Z 0000000140084010 f   qu3e:q3Quaternion.obj
 0001:00083030       ?Integrate@q3Quaternion@@QEAAXAEBUq3Vec3@@M@Z 0000000140084030 f   qu3e:q3Quaternion.obj
 0001:00083240       ?Set@q3Quaternion@@QEAAXAEBUq3Vec3@@M@Z 0000000140084240 f   qu3e:q3Quaternion.obj
 0001:000832b0       ?ToMat3@q3Quaternion@@QEBA?BUq3Mat3@@XZ 00000001400842b0 f   qu3e:q3Quaternion.obj
 0001:00083450       ??0q3Heap@@QEAA@XZ         0000000140084450 f   qu3e:q3Memory.obj
 0001:000834c0       ??0q3PagedAllocator@@QEAA@HH@Z 00000001400844c0 f   qu3e:q3Memory.obj
 0001:000834e0       ??0q3Stack@@QEAA@XZ        00000001400844e0 f   qu3e:q3Memory.obj
 0001:00083520       ??1q3Heap@@QEAA@XZ         0000000140084520 f   qu3e:q3Memory.obj
 0001:00083540       ??1q3PagedAllocator@@QEAA@XZ 0000000140084540 f   qu3e:q3Memory.obj
 0001:00083540       ?Clear@q3PagedAllocator@@QEAAXXZ 0000000140084540 f   qu3e:q3Memory.obj
 0001:000835a0       ??1q3Stack@@QEAA@XZ        00000001400845a0 f   qu3e:q3Memory.obj
 0001:000835b0       ?Allocate@q3Heap@@QEAAPEAXH@Z 00000001400845b0 f   qu3e:q3Memory.obj
 0001:00083610       ?Allocate@q3PagedAllocator@@QEAAPEAXXZ 0000000140084610 f   qu3e:q3Memory.obj
 0001:000836d0       ?Allocate@q3Stack@@QEAAPEAXH@Z 00000001400846d0 f   qu3e:q3Memory.obj
 0001:00083760       ?Free@q3Heap@@QEAAXPEAX@Z  0000000140084760 f   qu3e:q3Memory.obj
 0001:000838f0       ?Free@q3PagedAllocator@@QEAAXPEAX@Z 00000001400848f0 f   qu3e:q3Memory.obj
 0001:00083900       ?Free@q3Stack@@QEAAXPEAX@Z 0000000140084900 f   qu3e:q3Memory.obj
 0001:00083930       ?Reserve@q3Stack@@QEAAXI@Z 0000000140084930 f   qu3e:q3Memory.obj
 0001:00083970       ??$_Med3_unchecked@PEAUq3ContactPair@@P6A_NAEBU1@0@Z@std@@YAXPEAUq3ContactPair@@00P6A_NAEBU1@1@Z@Z 0000000140084970 f i qu3e:q3BroadPhase.obj
 0001:000839f0       ??$_Partition_by_median_guess_unchecked@PEAUq3ContactPair@@P6A_NAEBU1@0@Z@std@@YA?AU?$pair@PEAUq3ContactPair@@PEAU1@@0@PEAUq3ContactPair@@0P6A_NAEBU2@1@Z@Z 00000001400849f0 f i qu3e:q3BroadPhase.obj
 0001:00083c50       ??$_Sort_unchecked@PEAUq3ContactPair@@P6A_NAEBU1@0@Z@std@@YAXPEAUq3ContactPair@@0_JP6A_NAEBU1@2@Z@Z 0000000140084c50 f i qu3e:q3BroadPhase.obj
 0001:00083fc0       ??0q3BroadPhase@@QEAA@PEAVq3ContactManager@@@Z 0000000140084fc0 f   qu3e:q3BroadPhase.obj
 0001:00084020       ??1q3BroadPhase@@QEAA@XZ   0000000140085020 f   qu3e:q3BroadPhase.obj
 0001:00084050       ?BufferMove@q3BroadPhase@@AEAAXH@Z 0000000140085050 f   qu3e:q3BroadPhase.obj
 0001:000840d0       ?ContactPairSort@@YA_NAEBUq3ContactPair@@0@Z 00000001400850d0 f i qu3e:q3BroadPhase.obj
 0001:000840f0       ?InsertBox@q3BroadPhase@@QEAAXPEAUq3Box@@AEBUq3AABB@@@Z 00000001400850f0 f   qu3e:q3BroadPhase.obj
 0001:00084130       ?RemoveBox@q3BroadPhase@@QEAAXPEBUq3Box@@@Z 0000000140085130 f   qu3e:q3BroadPhase.obj
 0001:00084140       ?TestOverlap@q3BroadPhase@@QEBA_NHH@Z 0000000140085140 f   qu3e:q3BroadPhase.obj
 0001:000841e0       ?Update@q3BroadPhase@@QEAAXHAEBUq3AABB@@@Z 00000001400851e0 f   qu3e:q3BroadPhase.obj
 0001:00084220       ?UpdatePairs@q3BroadPhase@@QEAAXXZ 0000000140085220 f   qu3e:q3BroadPhase.obj
 0001:00084530       ??0q3ContactManager@@QEAA@PEAVq3Stack@@@Z 0000000140085530 f   qu3e:q3ContactManager.obj
 0001:00084580       ?AddContact@q3ContactManager@@QEAAXPEAUq3Box@@0@Z 0000000140085580 f   qu3e:q3ContactManager.obj
 0001:00084740       ?FindNewContacts@q3ContactManager@@QEAAXXZ 0000000140085740 f   qu3e:q3ContactManager.obj
 0001:00084750       ?RemoveContact@q3ContactManager@@QEAAXPEAUq3ContactConstraint@@@Z 0000000140085750 f   qu3e:q3ContactManager.obj
 0001:00084840       ?RemoveContactsFromBody@q3ContactManager@@QEAAXPEAVq3Body@@@Z 0000000140085840 f   qu3e:q3ContactManager.obj
 0001:00084970       ?TestCollisions@q3ContactManager@@QEAAXXZ 0000000140085970 f   qu3e:q3ContactManager.obj
 0001:00084e90       ?ComputeAABB@q3Box@@QEBAXAEBUq3Transform@@PEAUq3AABB@@@Z 0000000140085e90 f   qu3e:q3Box.obj
 0001:00085180       ?ComputeMass@q3Box@@QEBAXPEAUq3MassData@@@Z 0000000140086180 f   qu3e:q3Box.obj
 0001:00085470       ??0q3DynamicAABBTree@@QEAA@XZ 0000000140086470 f   qu3e:q3DynamicAABBTree.obj
 0001:000854b0       ??1q3DynamicAABBTree@@QEAA@XZ 00000001400864b0 f   qu3e:q3DynamicAABBTree.obj
 0001:000854c0       ?AddToFreeList@q3DynamicAABBTree@@AEAAXH@Z 00000001400864c0 f i qu3e:q3DynamicAABBTree.obj
 0001:00085540       ?AllocateNode@q3DynamicAABBTree@@AEAAHXZ 0000000140086540 f i qu3e:q3DynamicAABBTree.obj
 0001:00085600       ?Balance@q3DynamicAABBTree@@AEAAHH@Z 0000000140086600 f   qu3e:q3DynamicAABBTree.obj
 0001:000858f0       ?GetFatAABB@q3DynamicAABBTree@@QEBAAEBUq3AABB@@H@Z 00000001400868f0 f   qu3e:q3DynamicAABBTree.obj
 0001:00085900       ?GetUserData@q3DynamicAABBTree@@QEBAPEAXH@Z 0000000140086900 f   qu3e:q3DynamicAABBTree.obj
 0001:00085920       ?Insert@q3DynamicAABBTree@@QEAAHAEBUq3AABB@@PEAX@Z 0000000140086920 f   qu3e:q3DynamicAABBTree.obj
 0001:000859e0       ?InsertLeaf@q3DynamicAABBTree@@AEAAXH@Z 00000001400869e0 f   qu3e:q3DynamicAABBTree.obj
 0001:00086200       ?Remove@q3DynamicAABBTree@@QEAAXH@Z 0000000140087200 f   qu3e:q3DynamicAABBTree.obj
 0001:00086250       ?RemoveLeaf@q3DynamicAABBTree@@AEAAXH@Z 0000000140087250 f   qu3e:q3DynamicAABBTree.obj
 0001:00086320       ?SyncHeirarchy@q3DynamicAABBTree@@AEAAXH@Z 0000000140087320 f   qu3e:q3DynamicAABBTree.obj
 0001:00086460       ?Update@q3DynamicAABBTree@@QEAA_NHAEBUq3AABB@@@Z 0000000140087460 f   qu3e:q3DynamicAABBTree.obj
 0001:00086550       ?Validate@q3DynamicAABBTree@@QEBAXXZ 0000000140087550 f   qu3e:q3DynamicAABBTree.obj
 0001:00086560       ?q3Combine@@YA?BUq3AABB@@AEBU1@0@Z 0000000140087560 f i qu3e:q3DynamicAABBTree.obj
 0001:00086620       ?Add@q3Island@@QEAAXPEAUq3ContactConstraint@@@Z 0000000140087620 f   qu3e:q3Island.obj
 0001:00086630       ?Add@q3Island@@QEAAXPEAVq3Body@@@Z 0000000140087630 f   qu3e:q3Island.obj
 0001:00086650       ?Initialize@q3Island@@QEAAXXZ 0000000140087650 f   qu3e:q3Island.obj
 0001:000868f0       ?Solve@q3Island@@QEAAXXZ   00000001400878f0 f   qu3e:q3Island.obj
 0001:00086ea0       ?SetPair@q3Manifold@@QEAAXPEAUq3Box@@0@Z 0000000140087ea0 f   qu3e:q3Contact.obj
 0001:00086ed0       ?SolveCollision@q3ContactConstraint@@QEAAXXZ 0000000140087ed0 f   qu3e:q3Contact.obj
 0001:00086f40       ?Initialize@q3ContactSolver@@QEAAXPEAUq3Island@@@Z 0000000140087f40 f   qu3e:q3ContactSolver.obj
 0001:00086f70       ?PreSolve@q3ContactSolver@@QEAAXM@Z 0000000140087f70 f   qu3e:q3ContactSolver.obj
 0001:00087850       ?ShutDown@q3ContactSolver@@QEAAXXZ 0000000140088850 f   qu3e:q3ContactSolver.obj
 0001:000878f0       ?Solve@q3ContactSolver@@QEAAXXZ 00000001400888f0 f   qu3e:q3ContactSolver.obj
 0001:00088080       ?q3BoxtoBox@@YAXPEAUq3Manifold@@PEAUq3Box@@1@Z 0000000140089080 f   qu3e:q3Collide.obj
 0001:00089fd0       ?q3Clip@@YAHAEBUq3Vec3@@0PEAEAEBUq3Mat3@@PEAUq3ClipVertex@@3PEAM@Z 000000014008afd0 f   qu3e:q3Collide.obj
 0001:0008a310       ?q3ComputeIncidentFace@@YAXAEBUq3Transform@@AEBUq3Vec3@@U2@PEAUq3ClipVertex@@@Z 000000014008b310 f   qu3e:q3Collide.obj
 0001:0008a800       ?q3ComputeReferenceEdgesAndBasis@@YAXAEBUq3Vec3@@AEBUq3Transform@@U1@HPEAEPEAUq3Mat3@@PEAU1@@Z 000000014008b800 f   qu3e:q3Collide.obj
 0001:0008aaa0       ?q3Orthographic@@YAHMMHHPEAUq3ClipVertex@@H0@Z 000000014008baa0 f   qu3e:q3Collide.obj
 0001:0008ad60       ?q3SupportEdge@@YAXAEBUq3Transform@@AEBUq3Vec3@@U2@PEAU2@3@Z 000000014008bd60 f   qu3e:q3Collide.obj
 0001:0008b004       ??1Importer@Assimp@@QEAA@XZ 000000014008c004 f   assimp-vc141-mt:assimp-vc141-mt.dll
 0001:0008b0a0       lua_absindex               000000014008c0a0 f   lua5.2:lapi.obj
 0001:0008b0d0       lua_atpanic                000000014008c0d0 f   lua5.2:lapi.obj
 0001:0008b0f0       lua_callk                  000000014008c0f0 f   lua5.2:lapi.obj
 0001:0008b170       lua_checkstack             000000014008c170 f   lua5.2:lapi.obj
 0001:0008b210       lua_compare                000000014008c210 f   lua5.2:lapi.obj
 0001:0008b2c0       lua_concat                 000000014008c2c0 f   lua5.2:lapi.obj
 0001:0008b330       lua_copy                   000000014008c330 f   lua5.2:lapi.obj
 0001:0008b3a0       lua_createtable            000000014008c3a0 f   lua5.2:lapi.obj
 0001:0008b410       lua_dump                   000000014008c410 f   lua5.2:lapi.obj
 0001:0008b450       lua_error                  000000014008c450 f   lua5.2:lapi.obj
 0001:0008b460       lua_gc                     000000014008c460 f   lua5.2:lapi.obj
 0001:0008b690       lua_getctx                 000000014008c690 f   lua5.2:lapi.obj
 0001:0008b6b0       lua_getfield               000000014008c6b0 f   lua5.2:lapi.obj
 0001:0008b720       lua_getglobal              000000014008c720 f   lua5.2:lapi.obj
 0001:0008b7a0       lua_getmetatable           000000014008c7a0 f   lua5.2:lapi.obj
 0001:0008b810       lua_gettable               000000014008c810 f   lua5.2:lapi.obj
 0001:0008b840       lua_gettop                 000000014008c840 f   lua5.2:lapi.obj
 0001:0008b860       lua_getupvalue             000000014008c860 f   lua5.2:lapi.obj
 0001:0008b900       lua_getuservalue           000000014008c900 f   lua5.2:lapi.obj
 0001:0008b950       lua_insert                 000000014008c950 f   lua5.2:lapi.obj
 0001:0008b9a0       lua_iscfunction            000000014008c9a0 f   lua5.2:lapi.obj
 0001:0008b9d0       lua_isnumber               000000014008c9d0 f   lua5.2:lapi.obj
 0001:0008ba00       lua_isstring               000000014008ca00 f   lua5.2:lapi.obj
 0001:0008ba40       lua_isuserdata             000000014008ca40 f   lua5.2:lapi.obj
 0001:0008ba70       lua_len                    000000014008ca70 f   lua5.2:lapi.obj
 0001:0008baa0       lua_load                   000000014008caa0 f   lua5.2:lapi.obj
 0001:0008bb60       lua_newuserdata            000000014008cb60 f   lua5.2:lapi.obj
 0001:0008bbb0       lua_next                   000000014008cbb0 f   lua5.2:lapi.obj
 0001:0008bbf0       lua_pcallk                 000000014008cbf0 f   lua5.2:lapi.obj
 0001:0008bd00       lua_pushboolean            000000014008cd00 f   lua5.2:lapi.obj
 0001:0008bd20       lua_pushcclosure           000000014008cd20 f   lua5.2:lapi.obj
 0001:0008bdf0       lua_pushfstring            000000014008cdf0 f   lua5.2:lapi.obj
 0001:0008be30       lua_pushinteger            000000014008ce30 f   lua5.2:lapi.obj
 0001:0008be50       lua_pushlightuserdata      000000014008ce50 f   lua5.2:lapi.obj
 0001:0008be70       lua_pushlstring            000000014008ce70 f   lua5.2:lapi.obj
 0001:0008bed0       lua_pushnil                000000014008ced0 f   lua5.2:lapi.obj
 0001:0008bef0       lua_pushnumber             000000014008cef0 f   lua5.2:lapi.obj
 0001:0008bf10       lua_pushstring             000000014008cf10 f   lua5.2:lapi.obj
 0001:0008bf80       lua_pushthread             000000014008cf80 f   lua5.2:lapi.obj
 0001:0008bfb0       lua_pushunsigned           000000014008cfb0 f   lua5.2:lapi.obj
 0001:0008bff0       lua_pushvalue              000000014008cff0 f   lua5.2:lapi.obj
 0001:0008c020       lua_pushvfstring           000000014008d020 f   lua5.2:lapi.obj
 0001:0008c070       lua_rawequal               000000014008d070 f   lua5.2:lapi.obj
 0001:0008c0d0       lua_rawget                 000000014008d0d0 f   lua5.2:lapi.obj
 0001:0008c110       lua_rawgeti                000000014008d110 f   lua5.2:lapi.obj
 0001:0008c150       lua_rawgetp                000000014008d150 f   lua5.2:lapi.obj
 0001:0008c1a0       lua_rawlen                 000000014008d1a0 f   lua5.2:lapi.obj
 0001:0008c1f0       lua_rawset                 000000014008d1f0 f   lua5.2:lapi.obj
 0001:0008c290       lua_rawseti                000000014008d290 f   lua5.2:lapi.obj
 0001:0008c310       lua_rawsetp                000000014008d310 f   lua5.2:lapi.obj
 0001:0008c3b0       lua_remove                 000000014008d3b0 f   lua5.2:lapi.obj
 0001:0008c400       lua_replace                000000014008d400 f   lua5.2:lapi.obj
 0001:0008c470       lua_setfield               000000014008d470 f   lua5.2:lapi.obj
 0001:0008c4e0       lua_setglobal              000000014008d4e0 f   lua5.2:lapi.obj
 0001:0008c570       lua_setmetatable           000000014008d570 f   lua5.2:lapi.obj
 0001:0008c640       lua_settop                 000000014008d640 f   lua5.2:lapi.obj
 0001:0008c690       lua_setupvalue             000000014008d690 f   lua5.2:lapi.obj
 0001:0008c770       lua_setuservalue           000000014008d770 f   lua5.2:lapi.obj
 0001:0008c7e0       lua_status                 000000014008d7e0 f   lua5.2:lapi.obj
 0001:0008c7f0       lua_toboolean              000000014008d7f0 f   lua5.2:lapi.obj
 0001:0008c820       lua_tointegerx             000000014008d820 f   lua5.2:lapi.obj
 0001:0008c870       lua_tolstring              000000014008d870 f   lua5.2:lapi.obj
 0001:0008c910       lua_tonumberx              000000014008d910 f   lua5.2:lapi.obj
 0001:0008c960       lua_topointer              000000014008d960 f   lua5.2:lapi.obj
 0001:0008ca10       lua_tothread               000000014008da10 f   lua5.2:lapi.obj
 0001:0008ca30       lua_tounsignedx            000000014008da30 f   lua5.2:lapi.obj
 0001:0008cac0       lua_touserdata             000000014008dac0 f   lua5.2:lapi.obj
 0001:0008cb00       lua_type                   000000014008db00 f   lua5.2:lapi.obj
 0001:0008cb30       lua_typename               000000014008db30 f   lua5.2:lapi.obj
 0001:0008cb40       lua_upvalueid              000000014008db40 f   lua5.2:lapi.obj
 0001:0008cbc0       lua_upvaluejoin            000000014008dbc0 f   lua5.2:lapi.obj
 0001:0008cc30       lua_version                000000014008dc30 f   lua5.2:lapi.obj
 0001:0008cc50       lua_xmove                  000000014008dc50 f   lua5.2:lapi.obj
 0001:0008cf40       luaL_addlstring            000000014008df40 f   lua5.2:lauxlib.obj
 0001:0008cf90       luaL_addstring             000000014008df90 f   lua5.2:lauxlib.obj
 0001:0008cff0       luaL_addvalue              000000014008dff0 f   lua5.2:lauxlib.obj
 0001:0008d080       luaL_argerror              000000014008e080 f   lua5.2:lauxlib.obj
 0001:0008d190       luaL_buffinit              000000014008e190 f   lua5.2:lauxlib.obj
 0001:0008d1b0       luaL_buffinitsize          000000014008e1b0 f   lua5.2:lauxlib.obj
 0001:0008d1e0       luaL_checkany              000000014008e1e0 f   lua5.2:lauxlib.obj
 0001:0008d220       luaL_checkinteger          000000014008e220 f   lua5.2:lauxlib.obj
 0001:0008d2b0       luaL_checklstring          000000014008e2b0 f   lua5.2:lauxlib.obj
 0001:0008d340       luaL_checknumber           000000014008e340 f   lua5.2:lauxlib.obj
 0001:0008d3d0       luaL_checkoption           000000014008e3d0 f   lua5.2:lauxlib.obj
 0001:0008d490       luaL_checkstack            000000014008e490 f   lua5.2:lauxlib.obj
 0001:0008d4f0       luaL_checktype             000000014008e4f0 f   lua5.2:lauxlib.obj
 0001:0008d530       luaL_checkudata            000000014008e530 f   lua5.2:lauxlib.obj
 0001:0008d600       luaL_checkunsigned         000000014008e600 f   lua5.2:lauxlib.obj
 0001:0008d690       luaL_error                 000000014008e690 f   lua5.2:lauxlib.obj
 0001:0008d760       luaL_execresult            000000014008e760 f   lua5.2:lauxlib.obj
 0001:0008d7d0       luaL_fileresult            000000014008e7d0 f   lua5.2:lauxlib.obj
 0001:0008d870       luaL_getmetafield          000000014008e870 f   lua5.2:lauxlib.obj
 0001:0008d8f0       luaL_getsubtable           000000014008e8f0 f   lua5.2:lauxlib.obj
 0001:0008d990       luaL_gsub                  000000014008e990 f   lua5.2:lauxlib.obj
 0001:0008dca0       luaL_len                   000000014008eca0 f   lua5.2:lauxlib.obj
 0001:0008dd00       luaL_loadbufferx           000000014008ed00 f   lua5.2:lauxlib.obj
 0001:0008dd30       luaL_loadfilex             000000014008ed30 f   lua5.2:lauxlib.obj
 0001:0008e000       luaL_newmetatable          000000014008f000 f   lua5.2:lauxlib.obj
 0001:0008e090       luaL_newstate              000000014008f090 f   lua5.2:lauxlib.obj
 0001:0008e0d0       luaL_optinteger            000000014008f0d0 f   lua5.2:lauxlib.obj
 0001:0008e180       luaL_optlstring            000000014008f180 f   lua5.2:lauxlib.obj
 0001:0008e200       luaL_optnumber             000000014008f200 f   lua5.2:lauxlib.obj
 0001:0008e2a0       luaL_prepbuffsize          000000014008f2a0 f   lua5.2:lauxlib.obj
 0001:0008e360       luaL_pushresult            000000014008f360 f   lua5.2:lauxlib.obj
 0001:0008e3b0       luaL_pushresultsize        000000014008f3b0 f   lua5.2:lauxlib.obj
 0001:0008e400       luaL_ref                   000000014008f400 f   lua5.2:lauxlib.obj
 0001:0008e4c0       luaL_requiref              000000014008f4c0 f   lua5.2:lauxlib.obj
 0001:0008e5e0       luaL_setfuncs              000000014008f5e0 f   lua5.2:lauxlib.obj
 0001:0008e750       luaL_setmetatable          000000014008f750 f   lua5.2:lauxlib.obj
 0001:0008e780       luaL_testudata             000000014008f780 f   lua5.2:lauxlib.obj
 0001:0008e810       luaL_tolstring             000000014008f810 f   lua5.2:lauxlib.obj
 0001:0008e970       luaL_traceback             000000014008f970 f   lua5.2:lauxlib.obj
 0001:0008ec50       luaL_unref                 000000014008fc50 f   lua5.2:lauxlib.obj
 0001:0008ecc0       luaL_where                 000000014008fcc0 f   lua5.2:lauxlib.obj
 0001:0008eec0       luaL_openlibs              000000014008fec0 f   lua5.2:linit.obj
 0001:0008ef40       luaO_arith                 000000014008ff40 f   lua5.2:lobject.obj
 0001:0008f060       luaO_ceillog2              0000000140090060 f   lua5.2:lobject.obj
 0001:0008f090       luaO_chunkid               0000000140090090 f   lua5.2:lobject.obj
 0001:0008f1e0       luaO_fb2int                00000001400901e0 f   lua5.2:lobject.obj
 0001:0008f200       luaO_hexavalue             0000000140090200 f   lua5.2:lobject.obj
 0001:0008f220       luaO_int2fb                0000000140090220 f   lua5.2:lobject.obj
 0001:0008f250       luaO_pushfstring           0000000140090250 f   lua5.2:lobject.obj
 0001:0008f280       luaO_pushvfstring          0000000140090280 f   lua5.2:lobject.obj
 0001:0008f570       luaO_str2d                 0000000140090570 f   lua5.2:lobject.obj
 0001:0008f800       luaZ_fill                  0000000140090800 f   lua5.2:lzio.obj
 0001:0008f850       luaZ_init                  0000000140090850 f   lua5.2:lzio.obj
 0001:0008f870       luaZ_openspace             0000000140090870 f   lua5.2:lzio.obj
 0001:0008f8d0       luaZ_read                  00000001400908d0 f   lua5.2:lzio.obj
 0001:0008fb80       luaE_extendCI              0000000140090b80 f   lua5.2:lstate.obj
 0001:0008fbc0       luaE_freeCI                0000000140090bc0 f   lua5.2:lstate.obj
 0001:0008fc20       luaE_freethread            0000000140090c20 f   lua5.2:lstate.obj
 0001:0008fc70       luaE_setdebt               0000000140090c70 f   lua5.2:lstate.obj
 0001:0008fc80       lua_close                  0000000140090c80 f   lua5.2:lstate.obj
 0001:0008fc90       lua_newstate               0000000140090c90 f   lua5.2:lstate.obj
 0001:0008fe70       lua_newthread              0000000140090e70 f   lua5.2:lstate.obj
 0001:00090ba0       luaG_aritherror            0000000140091ba0 f   lua5.2:ldebug.obj
 0001:00090be0       luaG_concaterror           0000000140091be0 f   lua5.2:ldebug.obj
 0001:00090c10       luaG_errormsg              0000000140091c10 f   lua5.2:ldebug.obj
 0001:00090c90       luaG_ordererror            0000000140091c90 f   lua5.2:ldebug.obj
 0001:00090ce0       luaG_runerror              0000000140091ce0 f   lua5.2:ldebug.obj
 0001:00090d20       luaG_typeerror             0000000140091d20 f   lua5.2:ldebug.obj
 0001:00090e60       lua_gethook                0000000140091e60 f   lua5.2:ldebug.obj
 0001:00090e70       lua_gethookcount           0000000140091e70 f   lua5.2:ldebug.obj
 0001:00090e80       lua_gethookmask            0000000140091e80 f   lua5.2:ldebug.obj
 0001:00090e90       lua_getinfo                0000000140091e90 f   lua5.2:ldebug.obj
 0001:00091010       lua_getlocal               0000000140092010 f   lua5.2:ldebug.obj
 0001:000910d0       lua_getstack               00000001400920d0 f   lua5.2:ldebug.obj
 0001:00091110       lua_sethook                0000000140092110 f   lua5.2:ldebug.obj
 0001:00091150       lua_setlocal               0000000140092150 f   lua5.2:ldebug.obj
 0001:00091340       luaD_call                  0000000140092340 f   lua5.2:ldo.obj
 0001:000913d0       luaD_growstack             00000001400923d0 f   lua5.2:ldo.obj
 0001:00091450       luaD_hook                  0000000140092450 f   lua5.2:ldo.obj
 0001:00091550       luaD_pcall                 0000000140092550 f   lua5.2:ldo.obj
 0001:000915f0       luaD_poscall               00000001400925f0 f   lua5.2:ldo.obj
 0001:000916b0       luaD_precall               00000001400926b0 f   lua5.2:ldo.obj
 0001:00091a80       luaD_protectedparser       0000000140092a80 f   lua5.2:ldo.obj
 0001:00091be0       luaD_rawrunprotected       0000000140092be0 f   lua5.2:ldo.obj
 0001:00091c90       luaD_reallocstack          0000000140092c90 f   lua5.2:ldo.obj
 0001:00091df0       luaD_shrinkstack           0000000140092df0 f   lua5.2:ldo.obj
 0001:00091e50       luaD_throw                 0000000140092e50 f   lua5.2:ldo.obj
 0001:00091ee0       lua_resume                 0000000140092ee0 f   lua5.2:ldo.obj
 0001:000920c0       lua_yieldk                 00000001400930c0 f   lua5.2:ldo.obj
 0001:000923d0       luaF_close                 00000001400933d0 f   lua5.2:lfunc.obj
 0001:000924b0       luaF_findupval             00000001400934b0 f   lua5.2:lfunc.obj
 0001:00092550       luaF_freeproto             0000000140093550 f   lua5.2:lfunc.obj
 0001:00092610       luaF_freeupval             0000000140093610 f   lua5.2:lfunc.obj
 0001:00092640       luaF_getlocalname          0000000140093640 f   lua5.2:lfunc.obj
 0001:000926a0       luaF_newCclosure           00000001400936a0 f   lua5.2:lfunc.obj
 0001:000926d0       luaF_newLclosure           00000001400936d0 f   lua5.2:lfunc.obj
 0001:00092730       luaF_newproto              0000000140093730 f   lua5.2:lfunc.obj
 0001:00092790       luaF_newupval              0000000140093790 f   lua5.2:lfunc.obj
 0001:00093460       luaC_barrier_              0000000140094460 f   lua5.2:lgc.obj
 0001:00093490       luaC_barrierback_          0000000140094490 f   lua5.2:lgc.obj
 0001:000934b0       luaC_barrierproto_         00000001400944b0 f   lua5.2:lgc.obj
 0001:00093510       luaC_changemode            0000000140094510 f   lua5.2:lgc.obj
 0001:00093580       luaC_checkfinalizer        0000000140094580 f   lua5.2:lgc.obj
 0001:00093670       luaC_checkupvalcolor       0000000140094670 f   lua5.2:lgc.obj
 0001:000936c0       luaC_forcestep             00000001400946c0 f   lua5.2:lgc.obj
 0001:00093820       luaC_freeallobjects        0000000140094820 f   lua5.2:lgc.obj
 0001:00093910       luaC_fullgc                0000000140094910 f   lua5.2:lgc.obj
 0001:00093a70       luaC_newobj                0000000140094a70 f   lua5.2:lgc.obj
 0001:00093ae0       luaC_runtilstate           0000000140094ae0 f   lua5.2:lgc.obj
 0001:00093d50       luaC_step                  0000000140094d50 f   lua5.2:lgc.obj
 0001:00095800       luaS_eqlngstr              0000000140096800 f   lua5.2:lstring.obj
 0001:00095840       luaS_eqstr                 0000000140096840 f   lua5.2:lstring.obj
 0001:00095890       luaS_hash                  0000000140096890 f   lua5.2:lstring.obj
 0001:000958d0       luaS_new                   00000001400968d0 f   lua5.2:lstring.obj
 0001:00095a30       luaS_newlstr               0000000140096a30 f   lua5.2:lstring.obj
 0001:00095b90       luaS_newudata              0000000140096b90 f   lua5.2:lstring.obj
 0001:00095be0       luaS_resize                0000000140096be0 f   lua5.2:lstring.obj
 0001:00095f90       luaH_free                  0000000140096f90 f   lua5.2:ltable.obj
 0001:00096010       luaH_get                   0000000140097010 f   lua5.2:ltable.obj
 0001:00096120       luaH_getint                0000000140097120 f   lua5.2:ltable.obj
 0001:000961c0       luaH_getn                  00000001400971c0 f   lua5.2:ltable.obj
 0001:00096300       luaH_getstr                0000000140097300 f   lua5.2:ltable.obj
 0001:00096350       luaH_new                   0000000140097350 f   lua5.2:ltable.obj
 0001:000963a0       luaH_newkey                00000001400973a0 f   lua5.2:ltable.obj
 0001:00096530       luaH_next                  0000000140097530 f   lua5.2:ltable.obj
 0001:00096720       luaH_resize                0000000140097720 f   lua5.2:ltable.obj
 0001:00096960       luaH_resizearray           0000000140097960 f   lua5.2:ltable.obj
 0001:00096990       luaH_set                   0000000140097990 f   lua5.2:ltable.obj
 0001:00096ab0       luaH_setint                0000000140097ab0 f   lua5.2:ltable.obj
 0001:00097660       luaU_dump                  0000000140098660 f   lua5.2:ldump.obj
 0001:00097a50       luaV_arith                 0000000140098a50 f   lua5.2:lvm.obj
 0001:00097b70       luaV_concat                0000000140098b70 f   lua5.2:lvm.obj
 0001:00097e10       luaV_equalobj_             0000000140098e10 f   lua5.2:lvm.obj
 0001:00097fb0       luaV_execute               0000000140098fb0 f   lua5.2:lvm.obj
 0001:000999c0       luaV_finishOp              000000014009a9c0 f   lua5.2:lvm.obj
 0001:00099b90       luaV_gettable              000000014009ab90 f   lua5.2:lvm.obj
 0001:00099d20       luaV_lessequal             000000014009ad20 f   lua5.2:lvm.obj
 0001:00099e40       luaV_lessthan              000000014009ae40 f   lua5.2:lvm.obj
 0001:00099f20       luaV_objlen                000000014009af20 f   lua5.2:lvm.obj
 0001:0009a0e0       luaV_settable              000000014009b0e0 f   lua5.2:lvm.obj
 0001:0009a2c0       luaV_tonumber              000000014009b2c0 f   lua5.2:lvm.obj
 0001:0009a320       luaV_tostring              000000014009b320 f   lua5.2:lvm.obj
 0001:0009a3a0       luaT_gettm                 000000014009b3a0 f   lua5.2:ltm.obj
 0001:0009a3e0       luaT_gettmbyobj            000000014009b3e0 f   lua5.2:ltm.obj
 0001:0009a440       luaT_init                  000000014009b440 f   lua5.2:ltm.obj
 0001:0009b3e0       luaopen_base               000000014009c3e0 f   lua5.2:lbaselib.obj
 0001:0009b950       luaopen_coroutine          000000014009c950 f   lua5.2:lcorolib.obj
 0001:0009c2d0       luaopen_table              000000014009d2d0 f   lua5.2:ltablib.obj
 0001:0009cf00       fscanf                     000000014009df00 f i lua5.2:liolib.obj
 0001:0009d530       luaopen_io                 000000014009e530 f   lua5.2:liolib.obj
 0001:0009e2b0       luaopen_os                 000000014009f2b0 f   lua5.2:loslib.obj
 0001:0009f870       luaopen_string             00000001400a0870 f   lua5.2:lstrlib.obj
 0001:000a0c80       luaopen_bit32              00000001400a1c80 f   lua5.2:lbitlib.obj
 0001:000a14c0       luaopen_math               00000001400a24c0 f   lua5.2:lmathlib.obj
 0001:000a2720       luaopen_debug              00000001400a3720 f   lua5.2:ldblib.obj
 0001:000a2e30       luaopen_package            00000001400a3e30 f   lua5.2:loadlib.obj
 0001:000a37a0       luaM_growaux_              00000001400a47a0 f   lua5.2:lmem.obj
 0001:000a38d0       luaM_realloc_              00000001400a48d0 f   lua5.2:lmem.obj
 0001:000a3970       luaM_toobig                00000001400a4970 f   lua5.2:lmem.obj
 0001:000a4330       luaX_init                  00000001400a5330 f   lua5.2:llex.obj
 0001:000a4380       luaX_lookahead             00000001400a5380 f   lua5.2:llex.obj
 0001:000a43a0       luaX_newstring             00000001400a53a0 f   lua5.2:llex.obj
 0001:000a4440       luaX_next                  00000001400a5440 f   lua5.2:llex.obj
 0001:000a4480       luaX_setinput              00000001400a5480 f   lua5.2:llex.obj
 0001:000a4510       luaX_syntaxerror           00000001400a5510 f   lua5.2:llex.obj
 0001:000a4520       luaX_token2str             00000001400a5520 f   lua5.2:llex.obj
 0001:000a6fc0       luaY_parser                00000001400a7fc0 f   lua5.2:lparser.obj
 0001:000a9ad0       luaU_header                00000001400aaad0 f   lua5.2:lundump.obj
 0001:000a9b00       luaU_undump                00000001400aab00 f   lua5.2:lundump.obj
 0001:000aa4c0       luaK_checkstack            00000001400ab4c0 f   lua5.2:lcode.obj
 0001:000aa5f0       luaK_codeABC               00000001400ab5f0 f   lua5.2:lcode.obj
 0001:000aa610       luaK_codeABx               00000001400ab610 f   lua5.2:lcode.obj
 0001:000aa630       luaK_codek                 00000001400ab630 f   lua5.2:lcode.obj
 0001:000aa6a0       luaK_concat                00000001400ab6a0 f   lua5.2:lcode.obj
 0001:000aa740       luaK_dischargevars         00000001400ab740 f   lua5.2:lcode.obj
 0001:000aa850       luaK_exp2RK                00000001400ab850 f   lua5.2:lcode.obj
 0001:000aa9d0       luaK_exp2anyreg            00000001400ab9d0 f   lua5.2:lcode.obj
 0001:000aaa40       luaK_exp2anyregup          00000001400aba40 f   lua5.2:lcode.obj
 0001:000aaab0       luaK_exp2nextreg           00000001400abab0 f   lua5.2:lcode.obj
 0001:000aab40       luaK_exp2val               00000001400abb40 f   lua5.2:lcode.obj
 0001:000aab60       luaK_fixline               00000001400abb60 f   lua5.2:lcode.obj
 0001:000aab80       luaK_getlabel              00000001400abb80 f   lua5.2:lcode.obj
 0001:000aab90       luaK_goiffalse             00000001400abb90 f   lua5.2:lcode.obj
 0001:000aac10       luaK_goiftrue              00000001400abc10 f   lua5.2:lcode.obj
 0001:000aaca0       luaK_indexed               00000001400abca0 f   lua5.2:lcode.obj
 0001:000aace0       luaK_infix                 00000001400abce0 f   lua5.2:lcode.obj
 0001:000aaec0       luaK_jump                  00000001400abec0 f   lua5.2:lcode.obj
 0001:000aaf80       luaK_nil                   00000001400abf80 f   lua5.2:lcode.obj
 0001:000ab050       luaK_numberK               00000001400ac050 f   lua5.2:lcode.obj
 0001:000ab100       luaK_patchclose            00000001400ac100 f   lua5.2:lcode.obj
 0001:000ab160       luaK_patchlist             00000001400ac160 f   lua5.2:lcode.obj
 0001:000ab1a0       luaK_patchtohere           00000001400ac1a0 f   lua5.2:lcode.obj
 0001:000ab1c0       luaK_posfix                00000001400ac1c0 f   lua5.2:lcode.obj
 0001:000ab620       luaK_prefix                00000001400ac620 f   lua5.2:lcode.obj
 0001:000ab880       luaK_reserveregs           00000001400ac880 f   lua5.2:lcode.obj
 0001:000ab8d0       luaK_ret                   00000001400ac8d0 f   lua5.2:lcode.obj
 0001:000ab8f0       luaK_self                  00000001400ac8f0 f   lua5.2:lcode.obj
 0001:000aba00       luaK_setlist               00000001400aca00 f   lua5.2:lcode.obj
 0001:000abab0       luaK_setoneret             00000001400acab0 f   lua5.2:lcode.obj
 0001:000abb00       luaK_setreturns            00000001400acb00 f   lua5.2:lcode.obj
 0001:000abbd0       luaK_storevar              00000001400acbd0 f   lua5.2:lcode.obj
 0001:000abcd0       luaK_stringK               00000001400accd0 f   lua5.2:lcode.obj
 0001:000abf40       ??0_Init_locks@std@@QEAA@XZ 00000001400acf40 f   libcpmt:xlock.obj
 0001:000abf84       ??0_Lockit@std@@QEAA@H@Z   00000001400acf84 f   libcpmt:xlock.obj
 0001:000abfc0       ??1_Init_locks@std@@QEAA@XZ 00000001400acfc0 f   libcpmt:xlock.obj
 0001:000abffc       ??1_Lockit@std@@QEAA@XZ    00000001400acffc f   libcpmt:xlock.obj
 0001:000ac030       _Lock_at_thread_exit_mutex 00000001400ad030 f   libcpmt:xlock.obj
 0001:000ac03c       _Unlock_at_thread_exit_mutex 00000001400ad03c f   libcpmt:xlock.obj
 0001:000ac048       ?_Execute_once@std@@YAHAEAUonce_flag@1@P6AHPEAX1PEAPEAX@Z1@Z 00000001400ad048 f   libcpmt:xonce.obj
 0001:000ac050       ?_XGetLastError@std@@YAXXZ 00000001400ad050 f   libcpmt:xonce.obj
 0001:000ac0a0       ??0bad_alloc@std@@QEAA@XZ  00000001400ad0a0 f i libcpmt:xthrow.obj
 0001:000ac0c0       ??0bad_function_call@std@@QEAA@AEBV01@@Z 00000001400ad0c0 f i libcpmt:xthrow.obj
 0001:000ac0fc       ??0bad_function_call@std@@QEAA@XZ 00000001400ad0fc f i libcpmt:xthrow.obj
 0001:000ac114       ??0invalid_argument@std@@QEAA@AEBV01@@Z 00000001400ad114 f i libcpmt:xthrow.obj
 0001:000ac150       ??0invalid_argument@std@@QEAA@PEBD@Z 00000001400ad150 f i libcpmt:xthrow.obj
 0001:000ac198       ??0length_error@std@@QEAA@AEBV01@@Z 00000001400ad198 f i libcpmt:xthrow.obj
 0001:000ac1d4       ??0length_error@std@@QEAA@PEBD@Z 00000001400ad1d4 f i libcpmt:xthrow.obj
 0001:000ac21c       ??0out_of_range@std@@QEAA@AEBV01@@Z 00000001400ad21c f i libcpmt:xthrow.obj
 0001:000ac258       ??0out_of_range@std@@QEAA@PEBD@Z 00000001400ad258 f i libcpmt:xthrow.obj
 0001:000ac2a0       ?__scrt_throw_std_bad_alloc@@YAXXZ 00000001400ad2a0 f   LIBCMT:throw_bad_alloc.obj
 0001:000ac2a0       ?_Xbad_alloc@std@@YAXXZ    00000001400ad2a0 f   libcpmt:xthrow.obj
 0001:000ac2c0       ?_Xbad_function_call@std@@YAXXZ 00000001400ad2c0 f   libcpmt:xthrow.obj
 0001:000ac2e0       ?_Xinvalid_argument@std@@YAXPEBD@Z 00000001400ad2e0 f   libcpmt:xthrow.obj
 0001:000ac304       ?_Xlength_error@std@@YAXPEBD@Z 00000001400ad304 f   libcpmt:xthrow.obj
 0001:000ac328       ?_Xout_of_range@std@@YAXPEBD@Z 00000001400ad328 f   libcpmt:xthrow.obj
 0001:000ac34c       ?_Xruntime_error@std@@YAXPEBD@Z 00000001400ad34c f   libcpmt:xthrow.obj
 0001:000ac370       ?what@bad_function_call@std@@UEBAPEBDXZ 00000001400ad370 f i libcpmt:xthrow.obj
 0001:000ac378       ??0_Init_cout@std@@QEAA@XZ 00000001400ad378 f i libcpmt:cout.obj
 0001:000ac3e4       ??0_Locimp@locale@std@@AEAA@_N@Z 00000001400ad3e4 f i libcpmt:locale0.obj
 0001:000ac46c       ??4?$_Yarn@D@std@@QEAAAEAV01@PEBD@Z 00000001400ad46c f i libcpmt:locale0.obj
 0001:000ac4e4       ??_G_Locimp@locale@std@@MEAAPEAXI@Z 00000001400ad4e4 f i libcpmt:locale0.obj
 0001:000ac4e4       ??_E_Locimp@locale@std@@MEAAPEAXI@Z 00000001400ad4e4 f i libcpmt:locale0.obj
 0001:000ac540       ?_Facet_Register@std@@YAXPEAV_Facet_base@1@@Z 00000001400ad540 f   libcpmt:locale0.obj
 0001:000ac578       ?_Getgloballocale@locale@std@@CAPEAV_Locimp@12@XZ 00000001400ad578 f   libcpmt:locale0.obj
 0001:000ac580       ?_Init@locale@std@@CAPEAV_Locimp@12@_N@Z 00000001400ad580 f   libcpmt:locale0.obj
 0001:000ac678       ?_Locimp_dtor@_Locimp@locale@std@@CAXPEAV123@@Z 00000001400ad678 f   libcpmt:locale0.obj
 0001:000ac6f4       ?_Locinfo_ctor@_Locinfo@std@@SAXPEAV12@PEBD@Z 00000001400ad6f4 f   libcpmt:locale0.obj
 0001:000ac760       ?_Locinfo_dtor@_Locinfo@std@@SAXPEAV12@@Z 00000001400ad760 f   libcpmt:locale0.obj
 0001:000ac77c       ?_New_Locimp@_Locimp@locale@std@@CAPEAV123@_N@Z 00000001400ad77c f   libcpmt:locale0.obj
 0001:000ac7ac       ?_Setgloballocale@locale@std@@CAXPEAX@Z 00000001400ad7ac f   libcpmt:locale0.obj
 0001:000ac7e0       _Deletegloballocale        00000001400ad7e0 f   libcpmt:locale0.obj
 0001:000ac850       ?uncaught_exception@std@@YA_NXZ 00000001400ad850 f   libcpmt:uncaught_exception.obj
 0001:000ac858       ?_Syserror_map@std@@YAPEBDH@Z 00000001400ad858 f   libcpmt:syserror.obj
 0001:000ac880       ?_Winerror_map@std@@YAHH@Z 00000001400ad880 f   libcpmt:syserror.obj
 0001:000ac8a4       ?_Winerror_message@std@@YAKKPEADK@Z 00000001400ad8a4 f   libcpmt:syserror.obj
 0001:000ac984       _Getctype                  00000001400ad984 f   libcpmt:_tolower.obj
 0001:000aca44       _Tolower                   00000001400ada44 f   libcpmt:_tolower.obj
 0001:000acb74       _Getcvt                    00000001400adb74 f   libcpmt:xwctomb.obj
 0001:000acc0c       _Toupper                   00000001400adc0c f   libcpmt:_toupper.obj
 0001:000acd4c       _Query_perf_counter        00000001400add4c f   libcpmt:xtime.obj
 0001:000acd68       _Query_perf_frequency      00000001400add68 f   libcpmt:xtime.obj
 0001:000acd84       _Xtime_diff_to_millis2     00000001400add84 f   libcpmt:xtime.obj
 0001:000ace58       _Xtime_get_ticks           00000001400ade58 f   libcpmt:xtime.obj
 0001:000ace88       xtime_get                  00000001400ade88 f   libcpmt:xtime.obj
 0001:000acee0       ??$_Reallocate_for@V<lambda_1>@?1??assign@?$basic_string@_WU?$char_traits@_W@std@@V?$allocator@_W@2@@std@@QEAAAEAV34@QEB_W_K@Z@PEB_W@?$basic_string@_WU?$char_traits@_W@std@@V?$allocator@_W@2@@std@@AEAAAEAV01@_KV<lambda_1>@?1??assign@01@QEAAAEAV01@QEB_W0@Z@PEB_W@Z 00000001400adee0 f i libcpmt:filesys.obj
 0001:000acff4       ?assign@?$basic_string@_WU?$char_traits@_W@std@@V?$allocator@_W@2@@std@@QEAAAEAV12@QEB_W@Z 00000001400adff4 f i libcpmt:filesys.obj
 0001:000ad074       _Close_dir                 00000001400ae074 f   libcpmt:filesys.obj
 0001:000ad07c       _Current_get               00000001400ae07c f   libcpmt:filesys.obj
 0001:000ad0b0       _Open_dir                  00000001400ae0b0 f   libcpmt:filesys.obj
 0001:000ad238       _Read_dir                  00000001400ae238 f   libcpmt:filesys.obj
 0001:000ad30c       _Stat                      00000001400ae30c f   libcpmt:filesys.obj
 0001:000ad3bc       _To_byte                   00000001400ae3bc f   libcpmt:filesys.obj
 0001:000ad40c       _To_wide                   00000001400ae40c f   libcpmt:filesys.obj
 0001:000ad450       ?_Addstd@ios_base@std@@SAXPEAV12@@Z 00000001400ae450 f   libcpmt:ios.obj
 0001:000ad4c8       ?_Ios_base_dtor@ios_base@std@@CAXPEAV12@@Z 00000001400ae4c8 f   libcpmt:ios.obj
 0001:000ad540       ?_Tidy@ios_base@std@@AEAAXXZ 00000001400ae540 f i libcpmt:ios.obj
 0001:000ad5c0       ??$_Xfiopen@D@std@@YAPEAU_iobuf@@PEBDHH@Z 00000001400ae5c0 f i libcpmt:fiopen.obj
 0001:000ad6c8       ?_Fiopen@std@@YAPEAU_iobuf@@PEBDHH@Z 00000001400ae6c8 f   libcpmt:fiopen.obj
 0001:000ad6d0       ??$_Immortalize_impl@V?$_ExceptionPtr_static@Vbad_alloc@std@@@?A0xe7b3fade@@@std@@YAHPEAX0PEAPEAX@Z 00000001400ae6d0 f i libcpmt:excptptr.obj
 0001:000ad744       ??$_Immortalize_impl@V?$_ExceptionPtr_static@Vbad_exception@std@@@?A0xe7b3fade@@@std@@YAHPEAX0PEAPEAX@Z 00000001400ae744 f i libcpmt:excptptr.obj
 0001:000ad7b8       ??0bad_exception@std@@QEAA@AEBV01@@Z 00000001400ae7b8 f i libcpmt:excptptr.obj
 0001:000ad7fc       ??0bad_exception@std@@QEAA@XZ 00000001400ae7fc f i libcpmt:excptptr.obj
 0001:000ad82c       ??1?$shared_ptr@$$CBU_EXCEPTION_RECORD@@@std@@QEAA@XZ 00000001400ae82c f i libcpmt:excptptr.obj
 0001:000ad87c       ??1bad_exception@std@@UEAA@XZ 00000001400ae87c f i libcpmt:excptptr.obj
 0001:000ad8a0       ??4?$shared_ptr@$$CBU_EXCEPTION_RECORD@@@std@@QEAAAEAV01@$$QEAV01@@Z 00000001400ae8a0 f i libcpmt:excptptr.obj
 0001:000ad934       ??4?$shared_ptr@$$CBU_EXCEPTION_RECORD@@@std@@QEAAAEAV01@AEBV01@@Z 00000001400ae934 f i libcpmt:excptptr.obj
 0001:000ada78       ??_G?$shared_ptr@$$CBU_EXCEPTION_RECORD@@@std@@QEAAPEAXI@Z 00000001400aea78 f i libcpmt:excptptr.obj
 0001:000adb18       ??_Ebad_exception@std@@UEAAPEAXI@Z 00000001400aeb18 f i libcpmt:excptptr.obj
 0001:000adb18       ??_Gbad_exception@std@@UEAAPEAXI@Z 00000001400aeb18 f i libcpmt:excptptr.obj
 0001:000aded8       ?_CallMemberFunction0@@YAXQEAX0@Z 00000001400aeed8 f i libcpmt:excptptr.obj
 0001:000adedc       ?_CallMemberFunction1@@YAXQEAX00@Z 00000001400aeedc f i libcpmt:excptptr.obj
 0001:000adee8       ?_CallMemberFunction2@@YAXQEAX00H@Z 00000001400aeee8 f i libcpmt:excptptr.obj
 0001:000ae0b8       ?__ExceptionPtrAssign@@YAXPEAXPEBX@Z 00000001400af0b8 f   libcpmt:excptptr.obj
 0001:000ae0c0       ?__ExceptionPtrCopy@@YAXPEAXPEBX@Z 00000001400af0c0 f   libcpmt:excptptr.obj
 0001:000ae0e8       ?__ExceptionPtrCreate@@YAXPEAX@Z 00000001400af0e8 f   libcpmt:excptptr.obj
 0001:000ae0f4       ?__ExceptionPtrCurrentException@@YAXPEAX@Z 00000001400af0f4 f   libcpmt:excptptr.obj
 0001:000ae174       ?__ExceptionPtrDestroy@@YAXPEAX@Z 00000001400af174 f   libcpmt:excptptr.obj
 0001:000ae17c       ?__ExceptionPtrRethrow@@YAXPEBX@Z 00000001400af17c f   libcpmt:excptptr.obj
 0001:000ae300       ?__ExceptionPtrToBool@@YA_NPEBX@Z 00000001400af300 f   libcpmt:excptptr.obj
 0001:000ae308       ??0task_continuation_context@Concurrency@@AEAA@XZ 00000001400af308 f   libcpmt:ppltasks.obj
 0001:000ae314       ?GetCurrentThreadId@platform@details@Concurrency@@YAJXZ 00000001400af314 f   libcpmt:ppltasks.obj
 0001:000ae31c       ?_CallInContext@_ContextCallback@details@Concurrency@@QEBAXV?$function@$$A6AXXZ@std@@_N@Z 00000001400af31c f   libcpmt:ppltasks.obj
 0001:000ae370       ?_ReportUnobservedException@details@Concurrency@@YAXXZ 00000001400af370 f   libcpmt:ppltasks.obj
 0001:000ae490       ?_Release_chore@details@Concurrency@@YAXPEAU_Threadpool_chore@12@@Z 00000001400af490 f   libcpmt:taskscheduler.obj
 0001:000ae4bc       ?_Reschedule_chore@details@Concurrency@@YAHPEBU_Threadpool_chore@12@@Z 00000001400af4bc f   libcpmt:taskscheduler.obj
 0001:000ae4f4       ?_Schedule_chore@details@Concurrency@@YAHPEAU_Threadpool_chore@12@@Z 00000001400af4f4 f   libcpmt:taskscheduler.obj
 0001:000ae614       _Cnd_register_at_thread_exit 00000001400af614 f   libcpmt:xnotify.obj
 0001:000ae6d4       _Cnd_unregister_at_thread_exit 00000001400af6d4 f   libcpmt:xnotify.obj
 0001:000ae740       ??1GlobalCore@details@Concurrency@@QEAA@XZ 00000001400af740 f i libcpmt:cond.obj
 0001:000ae750       ?destroy@stl_condition_variable_concrt@details@Concurrency@@UEAAXXZ 00000001400af750 f i libcpmt:cond.obj
 0001:000ae844       ?notify_all@stl_condition_variable_concrt@details@Concurrency@@UEAAXXZ 00000001400af844 f i libcpmt:cond.obj
 0001:000ae850       ?notify_all@stl_condition_variable_vista@details@Concurrency@@UEAAXXZ 00000001400af850 f i libcpmt:cond.obj
 0001:000ae850       ?notify_all@stl_condition_variable_win7@details@Concurrency@@UEAAXXZ 00000001400af850 f i libcpmt:cond.obj
 0001:000ae85c       ?notify_one@stl_condition_variable_concrt@details@Concurrency@@UEAAXXZ 00000001400af85c f i libcpmt:cond.obj
 0001:000ae868       ?notify_one@stl_condition_variable_vista@details@Concurrency@@UEAAXXZ 00000001400af868 f i libcpmt:cond.obj
 0001:000ae868       ?notify_one@stl_condition_variable_win7@details@Concurrency@@UEAAXXZ 00000001400af868 f i libcpmt:cond.obj
 0001:000ae874       ?wait@stl_condition_variable_concrt@details@Concurrency@@UEAAXPEAVstl_critical_section_interface@23@@Z 00000001400af874 f i libcpmt:cond.obj
 0001:000ae884       ?wait@stl_condition_variable_vista@details@Concurrency@@UEAAXPEAVstl_critical_section_interface@23@@Z 00000001400af884 f i libcpmt:cond.obj
 0001:000ae8a8       ?wait@stl_condition_variable_win7@details@Concurrency@@UEAAXPEAVstl_critical_section_interface@23@@Z 00000001400af8a8 f i libcpmt:cond.obj
 0001:000ae8d0       ?wait_for@stl_condition_variable_concrt@details@Concurrency@@UEAA_NPEAVstl_critical_section_interface@23@I@Z 00000001400af8d0 f i libcpmt:cond.obj
 0001:000ae8e0       ?wait_for@stl_condition_variable_vista@details@Concurrency@@UEAA_NPEAVstl_critical_section_interface@23@I@Z 00000001400af8e0 f i libcpmt:cond.obj
 0001:000ae8fc       ?wait_for@stl_condition_variable_win7@details@Concurrency@@UEAA_NPEAVstl_critical_section_interface@23@I@Z 00000001400af8fc f i libcpmt:cond.obj
 0001:000ae91c       _Cnd_broadcast             00000001400af91c f   libcpmt:cond.obj
 0001:000ae934       _Cnd_destroy_in_situ       00000001400af934 f   libcpmt:cond.obj
 0001:000ae944       _Cnd_init_in_situ          00000001400af944 f   libcpmt:cond.obj
 0001:000ae99c       _Cnd_wait                  00000001400af99c f   libcpmt:cond.obj
 0001:000ae9a4       ??0future_error@std@@QEAA@AEBV01@@Z 00000001400af9a4 f i libcpmt:future.obj
 0001:000ae9f4       ??0future_error@std@@QEAA@Verror_code@1@@Z 00000001400af9f4 f i libcpmt:future.obj
 0001:000aea54       ?_Rethrow_future_exception@std@@YAXVexception_ptr@1@@Z 00000001400afa54 f   libcpmt:future.obj
 0001:000aea74       ?_Throw_future_error@std@@YAXAEBVerror_code@1@@Z 00000001400afa74 f   libcpmt:future.obj
 0001:000aeaa4       ?what@future_error@std@@UEBAPEBDXZ 00000001400afaa4 f i libcpmt:future.obj
 0001:000aeae0       ??0system_error@std@@QEAA@HAEBVerror_category@1@PEBD@Z 00000001400afae0 f i libcpmt:thread0.obj
 0001:000aebb0       ?_Throw_C_error@std@@YAXH@Z 00000001400afbb0 f   libcpmt:thread0.obj
 0001:000aebec       ?_Throw_Cpp_error@std@@YAXH@Z 00000001400afbec f   libcpmt:thread0.obj
 0001:000aec3c       ?create_stl_critical_section@details@Concurrency@@YAXPEAVstl_critical_section_interface@12@@Z 00000001400afc3c f i libcpmt:mutex.obj
 0001:000aeca8       ?destroy@stl_critical_section_concrt@details@Concurrency@@UEAAXXZ 00000001400afca8 f i libcpmt:mutex.obj
 0001:000aecb4       ?destroy@stl_critical_section_vista@details@Concurrency@@UEAAXXZ 00000001400afcb4 f i libcpmt:mutex.obj
 0001:000aecc0       ?lock@stl_critical_section_concrt@details@Concurrency@@UEAAXXZ 00000001400afcc0 f i libcpmt:mutex.obj
 0001:000aeccc       ?lock@stl_critical_section_vista@details@Concurrency@@UEAAXXZ 00000001400afccc f i libcpmt:mutex.obj
 0001:000aecd8       ?lock@stl_critical_section_win7@details@Concurrency@@UEAAXXZ 00000001400afcd8 f i libcpmt:mutex.obj
 0001:000aee50       ?try_lock@stl_critical_section_concrt@details@Concurrency@@UEAA_NXZ 00000001400afe50 f i libcpmt:mutex.obj
 0001:000aee5c       ?try_lock@stl_critical_section_vista@details@Concurrency@@UEAA_NXZ 00000001400afe5c f i libcpmt:mutex.obj
 0001:000aee5c       ?try_lock_for@stl_critical_section_vista@details@Concurrency@@UEAA_NI@Z 00000001400afe5c f i libcpmt:mutex.obj
 0001:000aee74       ?try_lock_for@stl_critical_section_win7@details@Concurrency@@UEAA_NI@Z 00000001400afe74 f i libcpmt:mutex.obj
 0001:000aee74       ?try_lock@stl_critical_section_win7@details@Concurrency@@UEAA_NXZ 00000001400afe74 f i libcpmt:mutex.obj
 0001:000aee8c       ?try_lock_for@stl_critical_section_concrt@details@Concurrency@@UEAA_NI@Z 00000001400afe8c f i libcpmt:mutex.obj
 0001:000aee98       ?unlock@stl_critical_section_concrt@details@Concurrency@@UEAAXXZ 00000001400afe98 f i libcpmt:mutex.obj
 0001:000aeea4       ?unlock@stl_critical_section_vista@details@Concurrency@@UEAAXXZ 00000001400afea4 f i libcpmt:mutex.obj
 0001:000aeeb0       ?unlock@stl_critical_section_win7@details@Concurrency@@UEAAXXZ 00000001400afeb0 f i libcpmt:mutex.obj
 0001:000aeebc       _Mtx_clear_owner           00000001400afebc f   libcpmt:mutex.obj
 0001:000aeec4       _Mtx_destroy_in_situ       00000001400afec4 f   libcpmt:mutex.obj
 0001:000aeed8       _Mtx_init_in_situ          00000001400afed8 f   libcpmt:mutex.obj
 0001:000aef08       _Mtx_lock                  00000001400aff08 f   libcpmt:mutex.obj
 0001:000aef10       _Mtx_reset_owner           00000001400aff10 f   libcpmt:mutex.obj
 0001:000aef2c       _Mtx_unlock                00000001400aff2c f   libcpmt:mutex.obj
 0001:000aef54       ??1_ReentrantBlockingLock@details@Concurrency@@QEAA@XZ 00000001400aff54 f   libconcrt:rtlocks.obj
 0001:000aef54       _Mtxdst                    00000001400aff54 f   libcpmt:xmtx.obj
 0001:000aef54       ??1_NonReentrantBlockingLock@details@Concurrency@@QEAA@XZ 00000001400aff54 f   libconcrt:rtlocks.obj
 0001:000aef5c       _Mtxinit                   00000001400aff5c f   libcpmt:xmtx.obj
 0001:000aef6c       _Mtxlock                   00000001400aff6c f   libcpmt:xmtx.obj
 0001:000aef6c       ?_Acquire@_ReentrantBlockingLock@details@Concurrency@@QEAAXXZ 00000001400aff6c f   libconcrt:rtlocks.obj
 0001:000aef6c       ?_Acquire@_NonReentrantBlockingLock@details@Concurrency@@QEAAXXZ 00000001400aff6c f   libconcrt:rtlocks.obj
 0001:000aef74       _Mtxunlock                 00000001400aff74 f   libcpmt:xmtx.obj
 0001:000aef74       ?_Release@_NonReentrantBlockingLock@details@Concurrency@@QEAAXXZ 00000001400aff74 f   libconcrt:rtlocks.obj
 0001:000aef74       ?_Release@_ReentrantBlockingLock@details@Concurrency@@QEAAXXZ 00000001400aff74 f   libconcrt:rtlocks.obj
 0001:000af334       __crtAcquireSRWLockExclusive 00000001400b0334 f   libcpmt:winapisupp.obj
 0001:000af344       __crtCloseThreadpoolTimer  00000001400b0344 f   libcpmt:winapisupp.obj
 0001:000af360       __crtCloseThreadpoolWait   00000001400b0360 f   libcpmt:winapisupp.obj
 0001:000af37c       __crtCloseThreadpoolWork   00000001400b037c f   libcpmt:winapisupp.obj
 0001:000af38c       __crtCreateEventExW        00000001400b038c f   libcpmt:winapisupp.obj
 0001:000af3c4       __crtCreateSemaphoreExW    00000001400b03c4 f   libcpmt:winapisupp.obj
 0001:000af408       __crtCreateThreadpoolTimer 00000001400b0408 f   libcpmt:winapisupp.obj
 0001:000af41c       __crtCreateThreadpoolWait  00000001400b041c f   libcpmt:winapisupp.obj
 0001:000af430       __crtCreateThreadpoolWork  00000001400b0430 f   libcpmt:winapisupp.obj
 0001:000af440       __crtFlushProcessWriteBuffers 00000001400b0440 f   libcpmt:winapisupp.obj
 0001:000af45c       __crtFreeLibraryWhenCallbackReturns 00000001400b045c f   libcpmt:winapisupp.obj
 0001:000af478       __crtGetCurrentProcessorNumber 00000001400b0478 f   libcpmt:winapisupp.obj
 0001:000af48c       __crtGetSystemTimePreciseAsFileTime 00000001400b048c f   libcpmt:winapisupp.obj
 0001:000af4a8       __crtGetTickCount64        00000001400b04a8 f   libcpmt:winapisupp.obj
 0001:000af4d0       __crtInitOnceExecuteOnce   00000001400b04d0 f   libcpmt:winapisupp.obj
 0001:000af598       __crtInitializeConditionVariable 00000001400b0598 f   libcpmt:winapisupp.obj
 0001:000af5a8       __crtInitializeCriticalSectionEx 00000001400b05a8 f   libcpmt:winapisupp.obj
 0001:000af5d4       __crtInitializeSRWLock     00000001400b05d4 f   libcpmt:winapisupp.obj
 0001:000af5e4       __crtReleaseSRWLockExclusive 00000001400b05e4 f   libcpmt:winapisupp.obj
 0001:000af5f4       __crtSetThreadpoolTimer    00000001400b05f4 f   libcpmt:winapisupp.obj
 0001:000af610       __crtSetThreadpoolWait     00000001400b0610 f   libcpmt:winapisupp.obj
 0001:000af62c       __crtSleepConditionVariableCS 00000001400b062c f   libcpmt:winapisupp.obj
 0001:000af63c       __crtSleepConditionVariableSRW 00000001400b063c f   libcpmt:winapisupp.obj
 0001:000af654       __crtSubmitThreadpoolWork  00000001400b0654 f   libcpmt:winapisupp.obj
 0001:000af664       __crtTryAcquireSRWLockExclusive 00000001400b0664 f   libcpmt:winapisupp.obj
 0001:000af674       __crtWaitForThreadpoolTimerCallbacks 00000001400b0674 f   libcpmt:winapisupp.obj
 0001:000af690       __crtWakeAllConditionVariable 00000001400b0690 f   libcpmt:winapisupp.obj
 0001:000af6a0       __crtWakeConditionVariable 00000001400b06a0 f   libcpmt:winapisupp.obj
 0001:000af6b0       ?_Atexit@@YAXP6AXXZ@Z      00000001400b06b0 f   libcpmt:iosptrs.obj
 0001:000af6ec       __crtLCMapStringA          00000001400b06ec f   libcpmt:StlLCMapStringA.obj
 0001:000af9a8       GetTableIndexFromLocaleName 00000001400b09a8 f   libcpmt:winapinls.obj
 0001:000afa38       __crtDownlevelLocaleNameToLCID 00000001400b0a38 f   libcpmt:winapinls.obj
 0001:000afa6c       __crtLCMapStringEx         00000001400b0a6c f   libcpmt:winapinls.obj
 0001:000afb00       __wcsnicmp_ascii           00000001400b0b00 f   libcpmt:winapinls.obj
 0001:000afb80       __security_check_cookie    00000001400b0b80 f   LIBCMT:amdsecgs.obj
 0001:000afba4       ??_V@YAXPEAX@Z             00000001400b0ba4 f   LIBCMT:delete_array.obj
 0001:000afba4       ??3@YAXPEAX_K@Z            00000001400b0ba4 f   LIBCMT:delete_scalar_size.obj
 0001:000afbac       ??2@YAPEAX_K@Z             00000001400b0bac f   LIBCMT:new_scalar.obj
 0001:000afbe8       ??_Gtype_info@@UEAAPEAXI@Z 00000001400b0be8 f i LIBCMT:std_type_info_static.obj
 0001:000afbe8       ??_Etype_info@@UEAAPEAXI@Z 00000001400b0be8 f i LIBCMT:std_type_info_static.obj
 0001:000afc14       ??_U@YAPEAX_K@Z            00000001400b0c14 f   LIBCMT:new_array.obj
 0001:000afc1c       __scrt_acquire_startup_lock 00000001400b0c1c f   LIBCMT:utility.obj
 0001:000afc58       __scrt_initialize_crt      00000001400b0c58 f   LIBCMT:utility.obj
 0001:000afca4       __scrt_initialize_onexit_tables 00000001400b0ca4 f   LIBCMT:utility.obj
 0001:000afd30       __scrt_is_nonwritable_in_current_image 00000001400b0d30 f   LIBCMT:utility.obj
 0001:000afdc8       __scrt_release_startup_lock 00000001400b0dc8 f   LIBCMT:utility.obj
 0001:000afdec       __scrt_uninitialize_crt    00000001400b0dec f   LIBCMT:utility.obj
 0001:000afe18       _onexit                    00000001400b0e18 f   LIBCMT:utility.obj
 0001:000afe54       atexit                     00000001400b0e54 f   LIBCMT:utility.obj
 0001:000aff64       _Init_thread_abort         00000001400b0f64 f   LIBCMT:thread_safe_statics.obj
 0001:000aff94       _Init_thread_footer        00000001400b0f94 f   LIBCMT:thread_safe_statics.obj
 0001:000afff4       _Init_thread_header        00000001400b0ff4 f   LIBCMT:thread_safe_statics.obj
 0001:000b005c       _Init_thread_notify        00000001400b105c f   LIBCMT:thread_safe_statics.obj
 0001:000b00a0       _Init_thread_wait          00000001400b10a0 f   LIBCMT:thread_safe_statics.obj
 0001:000b0104       ??_M@YAXPEAX_K1P6AX0@Z@Z   00000001400b1104 f   LIBCMT:ehvecdtr.obj
 0001:000b0170       ?__ArrayUnwind@@YAXPEAX_K1P6AX0@Z@Z 00000001400b1170 f   LIBCMT:ehvecdtr.obj
 0001:000b01d4       ??_L@YAXPEAX_K1P6AX0@Z2@Z  00000001400b11d4 f   LIBCMT:ehvecctr.obj
 0001:000b0244       __raise_securityfailure    00000001400b1244 f   LIBCMT:gs_report.obj
 0001:000b0278       __report_gsfailure         00000001400b1278 f   LIBCMT:gs_report.obj
 0001:000b034c       __report_rangecheckfailure 00000001400b134c f   LIBCMT:gs_report.obj
 0001:000b0360       __report_securityfailure   00000001400b1360 f   LIBCMT:gs_report.obj
 0001:000b0740       mainCRTStartup             00000001400b1740 f   LIBCMT:exe_main.obj
 0001:000b0754       __GSHandlerCheck           00000001400b1754 f   LIBCMT:gshandler.obj
 0001:000b0774       __GSHandlerCheckCommon     00000001400b1774 f   LIBCMT:gshandler.obj
 0001:000b07d0       __GSHandlerCheck_EH4       00000001400b17d0 f   LIBCMT:gshandlereh4.obj
 0001:000b0860       _alloca_probe              00000001400b1860 f   LIBCMT:chkstk.obj
 0001:000b0860       __chkstk                   00000001400b1860 f   LIBCMT:chkstk.obj
 0001:000b08b4       ??_V@YAXPEAX_K@Z           00000001400b18b4 f   LIBCMT:delete_array_size.obj
 0001:000b08bc       __isa_available_init       00000001400b18bc f   LIBCMT:cpu_disp.obj
 0001:000b0a60       __scrt_is_ucrt_dll_in_use  00000001400b1a60 f   LIBCMT:ucrt_detection.obj
 0001:000b0a6c       __crt_debugger_hook        00000001400b1a6c f   LIBCMT:utility_desktop.obj
 0001:000b0a74       __scrt_fastfail            00000001400b1a74 f   LIBCMT:utility_desktop.obj
 0001:000b0bc0       __scrt_initialize_mta      00000001400b1bc0 f   LIBCMT:utility_desktop.obj
 0001:000b0bc8       __scrt_is_managed_app      00000001400b1bc8 f   LIBCMT:utility_desktop.obj
 0001:000b0c1c       __scrt_set_unhandled_exception_filter 00000001400b1c1c f   LIBCMT:utility_desktop.obj
 0001:000b0c2c       __scrt_unhandled_exception_filter 00000001400b1c2c f   LIBCMT:utility_desktop.obj
 0001:000b0c88       __security_init_cookie     00000001400b1c88 f   LIBCMT:gs_support.obj
 0001:000b0d34       _get_startup_file_mode     00000001400b1d34 f   LIBCMT:file_mode.obj
 0001:000b0d3c       ?__scrt_initialize_type_info@@YAXXZ 00000001400b1d3c f   LIBCMT:tncleanup.obj
 0001:000b0d4c       __scrt_initialize_default_local_stdio_options 00000001400b1d4c f   LIBCMT:default_local_stdio_options.obj
 0001:000b0d68       __scrt_is_user_matherr_present 00000001400b1d68 f   LIBCMT:matherr_detection.obj
 0001:000b0d74       __scrt_get_dyn_tls_init_callback 00000001400b1d74 f   LIBCMT:dyn_tls_init.obj
 0001:000b0d7c       __scrt_get_dyn_tls_dtor_callback 00000001400b1d7c f   LIBCMT:dyn_tls_dtor.obj
 0001:000b0d84       _RTC_Initialize            00000001400b1d84 f   LIBCMT:initsect.obj
 0001:000b0dc0       _RTC_Terminate             00000001400b1dc0 f   LIBCMT:initsect.obj
 0001:000b0e00       IsProcessorFeaturePresent  00000001400b1e00 f   kernel32:KERNEL32.dll
 0001:000b0e08       ??0MultiWaitBlock@details@Concurrency@@QEAA@_K_N1@Z 00000001400b1e08 f i libconcrt:event.obj
 0001:000b0ea0       ??0MultiWaitBlockHolder@details@Concurrency@@QEAA@_N_K00@Z 00000001400b1ea0 f   libconcrt:event.obj
 0001:000b0f84       ??0_Condition_variable@details@Concurrency@@QEAA@XZ 00000001400b1f84 f   libconcrt:event.obj
 0001:000b0fa8       ??0event@Concurrency@@QEAA@XZ 00000001400b1fa8 f   libconcrt:event.obj
 0001:000b0fd0       ??1?$_MallocaArrayHolder@PEAVContext@Concurrency@@@details@Concurrency@@UEAA@XZ 00000001400b1fd0 f i libconcrt:event.obj
 0001:000b1000       ??1MultiWaitBlockHolder@details@Concurrency@@QEAA@XZ 00000001400b2000 f   libconcrt:event.obj
 0001:000b1038       ??1_Condition_variable@details@Concurrency@@QEAA@XZ 00000001400b2038 f   libconcrt:event.obj
 0001:000b106c       ??1event@Concurrency@@QEAA@XZ 00000001400b206c f   libconcrt:event.obj
 0001:000b110c       ??_E?$_MallocaArrayHolder@PEAVContext@Concurrency@@@details@Concurrency@@UEAAPEAXI@Z 00000001400b210c f i libconcrt:event.obj
 0001:000b110c       ??_G?$_MallocaArrayHolder@PEAVContext@Concurrency@@@details@Concurrency@@UEAAPEAXI@Z 00000001400b210c f i libconcrt:event.obj
 0001:000b1160       ?Reset@WaitAnyBlock@details@Concurrency@@UEAA_NXZ 00000001400b2160 f   libconcrt:event.obj
 0001:000b1160       ?SweepResetNode@SingleWaitBlock@details@Concurrency@@UEAA_NXZ 00000001400b2160 f   libconcrt:event.obj
 0001:000b1160       ?Reset@SingleWaitBlock@details@Concurrency@@UEAA_NXZ 00000001400b2160 f   libconcrt:event.obj
 0001:000b1160       ?SweepResetNode@WaitAnyBlock@details@Concurrency@@UEAA_NXZ 00000001400b2160 f   libconcrt:event.obj
 0001:000b1160       ?Destroy@SingleWaitBlock@details@Concurrency@@UEAAXXZ 00000001400b2160 f   libconcrt:event.obj
 0001:000b1164       ?Destroy@TimedSingleWaitBlock@details@Concurrency@@UEAAXXZ 00000001400b2164 f   libconcrt:event.obj
 0001:000b1188       ?Destroy@WaitAllBlock@details@Concurrency@@UEAAXXZ 00000001400b2188 f   libconcrt:event.obj
 0001:000b1190       ?DispatchEventTimer@MultiWaitBlock@details@Concurrency@@SAXPEAU_TP_CALLBACK_INSTANCE@@PEAXPEAU_TP_TIMER@@@Z 00000001400b2190 f   libconcrt:event.obj
 0001:000b1210       ?DispatchEventTimer@TimedSingleWaitBlock@details@Concurrency@@SAXPEAU_TP_CALLBACK_INSTANCE@@PEAXPEAU_TP_TIMER@@@Z 00000001400b2210 f   libconcrt:event.obj
 0001:000b1254       ?DispatchEventTimerXP@MultiWaitBlock@details@Concurrency@@SAXPEAXE@Z 00000001400b2254 f   libconcrt:event.obj
 0001:000b12c8       ?DispatchEventTimerXP@TimedSingleWaitBlock@details@Concurrency@@SAXPEAXE@Z 00000001400b22c8 f   libconcrt:event.obj
 0001:000b12dc       ?GetSharedTimerQueue@details@Concurrency@@YAPEAXXZ 00000001400b22dc f   libconcrt:event.obj
 0001:000b1390       ?NotifyCompletedNode@MultiWaitBlock@details@Concurrency@@QEAAXXZ 00000001400b2390 f   libconcrt:event.obj
 0001:000b13b8       ?Reset@WaitAllBlock@details@Concurrency@@UEAA_NXZ 00000001400b23b8 f   libconcrt:event.obj
 0001:000b13e8       ?Satisfy@SingleWaitBlock@details@Concurrency@@UEAA_NPEAPEAVContext@3@PEAVEventWaitNode@23@@Z 00000001400b23e8 f   libconcrt:event.obj
 0001:000b143c       ?Satisfy@TimedSingleWaitBlock@details@Concurrency@@UEAA_NPEAPEAVContext@3@PEAVEventWaitNode@23@@Z 00000001400b243c f   libconcrt:event.obj
 0001:000b14f0       ?Satisfy@WaitAllBlock@details@Concurrency@@UEAA_NPEAPEAVContext@3@PEAVEventWaitNode@23@@Z 00000001400b24f0 f   libconcrt:event.obj
 0001:000b153c       ?Satisfy@WaitAnyBlock@details@Concurrency@@UEAA_NPEAPEAVContext@3@PEAVEventWaitNode@23@@Z 00000001400b253c f   libconcrt:event.obj
 0001:000b1584       ?Set@StructuredEvent@details@Concurrency@@QEAAXXZ 00000001400b2584 f   libconcrt:event.obj
 0001:000b15d4       ?SingleSatisfy@MultiWaitBlock@details@Concurrency@@MEAAXPEAPEAVContext@3@PEAVEventWaitNode@23@@Z 00000001400b25d4 f   libconcrt:event.obj
 0001:000b16bc       ?Sweep@details@Concurrency@@YAPEAVEventWaitNode@12@PEAV312@_N@Z 00000001400b26bc f   libconcrt:event.obj
 0001:000b1728       ?SweepResetNode@WaitAllBlock@details@Concurrency@@UEAA_NXZ 00000001400b2728 f   libconcrt:event.obj
 0001:000b1764       ?SweepWaitNode@TimedSingleWaitBlock@details@Concurrency@@UEAA_NXZ 00000001400b2764 f   libconcrt:event.obj
 0001:000b1788       ?SweepWaitNode@WaitAllBlock@details@Concurrency@@UEAA_NXZ 00000001400b2788 f   libconcrt:event.obj
 0001:000b17cc       ?SweepWaitNode@WaitAnyBlock@details@Concurrency@@UEAA_NXZ 00000001400b27cc f   libconcrt:event.obj
 0001:000b1804       ?_SpinOnce@?$_SpinWait@$00@details@Concurrency@@QEAA_NXZ 00000001400b2804 f i libconcrt:event.obj
 0001:000b18bc       ?_SpinOnce@?$_SpinWait@$0A@@details@Concurrency@@QEAA_NXZ 00000001400b28bc f i libconcrt:event.obj
 0001:000b196c       ?createTimer@TimedSingleWaitBlock@details@Concurrency@@QEAA_NI@Z 00000001400b296c f i libconcrt:event.obj
 0001:000b19f8       ?notify_all@_Condition_variable@details@Concurrency@@QEAAXXZ 00000001400b29f8 f   libconcrt:event.obj
 0001:000b1a8c       ?notify_one@_Condition_variable@details@Concurrency@@QEAAXXZ 00000001400b2a8c f   libconcrt:event.obj
 0001:000b1b40       ?set@event@Concurrency@@QEAAXXZ 00000001400b2b40 f   libconcrt:event.obj
 0001:000b1d18       ?wait@_Condition_variable@details@Concurrency@@QEAAXAEAVcritical_section@3@@Z 00000001400b2d18 f   libconcrt:event.obj
 0001:000b1dc8       ?wait@event@Concurrency@@QEAA_KI@Z 00000001400b2dc8 f   libconcrt:event.obj
 0001:000b1ee4       ?wait_for@_Condition_variable@details@Concurrency@@QEAA_NAEAVcritical_section@3@I@Z 00000001400b2ee4 f   libconcrt:event.obj
 0001:000b2020       ?wait_for_multiple@event@Concurrency@@SA_KPEAPEAV12@_K_NI@Z 00000001400b3020 f   libconcrt:event.obj
 0001:000b23a8       ??0LockQueueNode@details@Concurrency@@QEAA@I@Z 00000001400b33a8 f i libconcrt:rtlocks.obj
 0001:000b24ac       ??0_NonReentrantBlockingLock@details@Concurrency@@QEAA@XZ 00000001400b34ac f   libconcrt:rtlocks.obj
 0001:000b24ac       ??0_ReentrantBlockingLock@details@Concurrency@@QEAA@XZ 00000001400b34ac f   libconcrt:rtlocks.obj
 0001:000b24cc       ??0_ReaderWriterLock@details@Concurrency@@QEAA@XZ 00000001400b34cc f   libconcrt:rtlocks.obj
 0001:000b24e0       ??0critical_section@Concurrency@@QEAA@XZ 00000001400b34e0 f   libconcrt:rtlocks.obj
 0001:000b2508       ??0improper_lock@Concurrency@@QEAA@AEBV01@@Z 00000001400b3508 f i libconcrt:rtlocks.obj
 0001:000b2544       ??0scoped_lock@critical_section@Concurrency@@QEAA@AEAV12@@Z 00000001400b3544 f   libconcrt:rtlocks.obj
 0001:000b25b8       ??1scoped_lock@critical_section@Concurrency@@QEAA@XZ 00000001400b35b8 f   libconcrt:rtlocks.obj
 0001:000b25cc       ?Block@LockQueueNode@details@Concurrency@@QEAAXI@Z 00000001400b35cc f i libconcrt:rtlocks.obj
 0001:000b267c       ?DispatchNodeTimeoutTimer@LockQueueNode@details@Concurrency@@SAXPEAU_TP_CALLBACK_INSTANCE@@PEAXPEAU_TP_TIMER@@@Z 00000001400b367c f i libconcrt:rtlocks.obj
 0001:000b26e8       ?DispatchNodeTimeoutTimerXP@LockQueueNode@details@Concurrency@@SAXPEAXE@Z 00000001400b36e8 f i libconcrt:rtlocks.obj
 0001:000b275c       ?UpdateQueuePosition@LockQueueNode@details@Concurrency@@QEAAXPEAV123@@Z 00000001400b375c f i libconcrt:rtlocks.obj
 0001:000b27c8       ?_AcquireRead@_ReaderWriterLock@details@Concurrency@@QEAAXXZ 00000001400b37c8 f   libconcrt:rtlocks.obj
 0001:000b2808       ?_AcquireWrite@_ReaderWriterLock@details@Concurrency@@QEAAXXZ 00000001400b3808 f   libconcrt:rtlocks.obj
 0001:000b2844       ?_Acquire_lock@critical_section@Concurrency@@QEAA_NPEAX_N@Z 00000001400b3844 f   libconcrt:rtlocks.obj
 0001:000b2958       ?_FlushWriteOwners@_ReaderWriterLock@details@Concurrency@@QEAAXXZ 00000001400b3958 f   libconcrt:rtlocks.obj
 0001:000b2978       ?_Flush_current_owner@critical_section@Concurrency@@QEAAXXZ 00000001400b3978 f   libconcrt:rtlocks.obj
 0001:000b29a0       ?_Initialize@_SpinCount@details@Concurrency@@SAXXZ 00000001400b39a0 f   libconcrt:rtlocks.obj
 0001:000b29c4       ?_ReleaseRead@_ReaderWriterLock@details@Concurrency@@QEAAXXZ 00000001400b39c4 f   libconcrt:rtlocks.obj
 0001:000b29c8       ?_ReleaseWrite@_ReaderWriterLock@details@Concurrency@@QEAAXXZ 00000001400b39c8 f   libconcrt:rtlocks.obj
 0001:000b29d4       ?_Switch_to_active@critical_section@Concurrency@@AEAAXPEAX@Z 00000001400b39d4 f   libconcrt:rtlocks.obj
 0001:000b2a5c       ?_TryAcquireWrite@_ReaderWriterLock@details@Concurrency@@QEAA_NXZ 00000001400b3a5c f   libconcrt:rtlocks.obj
 0001:000b2a74       ?_Value@_SpinCount@details@Concurrency@@SAIXZ 00000001400b3a74 f   libconcrt:rtlocks.obj
 0001:000b2a7c       ?_WaitEquals@_ReaderWriterLock@details@Concurrency@@CAXAEDJJJ@Z 00000001400b3a7c f   libconcrt:rtlocks.obj
 0001:000b2af0       ?lock@critical_section@Concurrency@@QEAAXXZ 00000001400b3af0 f   libconcrt:rtlocks.obj
 0001:000b2b68       ?try_lock@critical_section@Concurrency@@QEAA_NXZ 00000001400b3b68 f   libconcrt:rtlocks.obj
 0001:000b2c08       ?try_lock_for@critical_section@Concurrency@@QEAA_NI@Z 00000001400b3c08 f   libconcrt:rtlocks.obj
 0001:000b2cbc       ?unlock@critical_section@Concurrency@@QEAAXXZ 00000001400b3cbc f   libconcrt:rtlocks.obj
 0001:000b2de0       ??0scheduler_resource_allocation_error@Concurrency@@QEAA@AEBV01@@Z 00000001400b3de0 f i libconcrt:Platform.obj
 0001:000b2e2c       ??1DefaultWaiterPool@platform@details@Concurrency@@QEAA@XZ 00000001400b3e2c f i libconcrt:Platform.obj
 0001:000b2e94       ??_Escheduler_worker_creation_error@Concurrency@@UEAAPEAXI@Z 00000001400b3e94 f i libconcrt:Exceptions.obj
 0001:000b2e94       ??_Gscheduler_resource_allocation_error@Concurrency@@UEAAPEAXI@Z 00000001400b3e94 f i libconcrt:Platform.obj
 0001:000b2e94       ??_Gscheduler_worker_creation_error@Concurrency@@UEAAPEAXI@Z 00000001400b3e94 f i libconcrt:Exceptions.obj
 0001:000b2e94       ??_Escheduler_resource_allocation_error@Concurrency@@UEAAPEAXI@Z 00000001400b3e94 f i libconcrt:Platform.obj
 0001:000b2ed8       ?InitializeSystemFunctionPointers@platform@details@Concurrency@@YAXXZ 00000001400b3ed8 f   libconcrt:Platform.obj
 0001:000b2fdc       ?__ChangeTimerQueueTimer@platform@details@Concurrency@@YAHPEAX0KK@Z 00000001400b3fdc f   libconcrt:Platform.obj
 0001:000b2fe4       ?__CloseThreadHandle@platform@details@Concurrency@@YAXPEAX@Z 00000001400b3fe4 f   libconcrt:Platform.obj
 0001:000b2fec       ?__CreateAutoResetEvent@platform@details@Concurrency@@YAPEAX_N@Z 00000001400b3fec f   libconcrt:Platform.obj
 0001:000b3040       ?__CreateThread@platform@details@Concurrency@@YAPEAXPEAU_SECURITY_ATTRIBUTES@@_KP6AKPEAX@Z2KPEAK@Z 00000001400b4040 f   libconcrt:Platform.obj
 0001:000b3048       ?__CreateTimerQueueTimer@platform@details@Concurrency@@YAHPEAPEAXPEAXP6AX1E@Z1KKK@Z 00000001400b4048 f   libconcrt:Platform.obj
 0001:000b3050       ?__DeleteTimerQueueTimer@platform@details@Concurrency@@YAXPEAX00@Z 00000001400b4050 f   libconcrt:Platform.obj
 0001:000b30b0       ?__GetCurrentProcessorNumberEx@platform@details@Concurrency@@YAXPEAU_PROCESSOR_NUMBER@@@Z 00000001400b40b0 f   libconcrt:Platform.obj
 0001:000b30d4       ?__GetLogicalProcessorInformation@platform@details@Concurrency@@YAPEAU_SYSTEM_LOGICAL_PROCESSOR_INFORMATION@@PEAK@Z 00000001400b40d4 f   libconcrt:Platform.obj
 0001:000b31a0       ?__GetLogicalProcessorInformationEx@platform@details@Concurrency@@YAPEAU_SYSTEM_LOGICAL_PROCESSOR_INFORMATION_EX@@W4_LOGICAL_PROCESSOR_RELATIONSHIP@@PEAK@Z 00000001400b41a0 f   libconcrt:Platform.obj
 0001:000b32e8       ?__GetNumaHighestNodeNumber@platform@details@Concurrency@@YAKXZ 00000001400b42e8 f   libconcrt:Platform.obj
 0001:000b3334       ?__GetThreadGroupAffinity@platform@details@Concurrency@@YAHPEAXPEAU_GROUP_AFFINITY@@@Z 00000001400b4334 f   libconcrt:Platform.obj
 0001:000b33a0       ?__GetThreadPriority@platform@details@Concurrency@@YAHPEAX@Z 00000001400b43a0 f   libconcrt:Platform.obj
 0001:000b33a8       ?__GetTickCount64@platform@details@Concurrency@@YA_KXZ 00000001400b43a8 f   libconcrt:Platform.obj
 0001:000b33b0       ?__InitializeCriticalSectionEx@platform@details@Concurrency@@YAHPEAU_RTL_CRITICAL_SECTION@@K@Z 00000001400b43b0 f   libconcrt:Platform.obj
 0001:000b33b8       ?__RegisterWaitForSingleObject@platform@details@Concurrency@@YAPEAXPEAXP6AX0E@Z0@Z 00000001400b43b8 f   libconcrt:Platform.obj
 0001:000b341c       ?__SetThreadGroupAffinity@platform@details@Concurrency@@YAHPEAXPEBU_GROUP_AFFINITY@@@Z 00000001400b441c f   libconcrt:Platform.obj
 0001:000b3470       ?__SetThreadPriority@platform@details@Concurrency@@YAXPEAXH@Z 00000001400b4470 f   libconcrt:Platform.obj
 0001:000b34b4       ?__SignalObjectAndWait@platform@details@Concurrency@@YAKPEAX0KH@Z 00000001400b44b4 f   libconcrt:Platform.obj
 0001:000b34bc       ?__Sleep@platform@details@Concurrency@@YAXK@Z 00000001400b44bc f   libconcrt:Platform.obj
 0001:000b34c4       ?__SwitchToThread@platform@details@Concurrency@@YAXXZ 00000001400b44c4 f   libconcrt:Platform.obj
 0001:000b34cc       ?__TlsAlloc@platform@details@Concurrency@@YAKXZ 00000001400b44cc f   libconcrt:Platform.obj
 0001:000b3510       ?__TlsFree@platform@details@Concurrency@@YAXK@Z 00000001400b4510 f   libconcrt:Platform.obj
 0001:000b3518       ?__TlsGetValue@platform@details@Concurrency@@YAPEAXK@Z 00000001400b4518 f   libconcrt:Platform.obj
 0001:000b3520       ?__TlsSetValue@platform@details@Concurrency@@YAXKPEAX@Z 00000001400b4520 f   libconcrt:Platform.obj
 0001:000b3564       ?__UnregisterWait@platform@details@Concurrency@@YAXPEAX@Z 00000001400b4564 f   libconcrt:Platform.obj
 0001:000b356c       ?__WaitForThread@platform@details@Concurrency@@YAKPEAXK@Z 00000001400b456c f   libconcrt:Platform.obj
 0001:000b3578       _concrt_static_cleanup     00000001400b4578 f   libconcrt:utils.obj
 0001:000b3590       ?EncodePointer@Security@details@Concurrency@@SAPEAXPEAX@Z 00000001400b4590 f   libconcrt:utils.obj
 0001:000b3590       ?DecodePointer@Security@details@Concurrency@@SAPEAXPEAX@Z 00000001400b4590 f   libconcrt:utils.obj
 0001:000b359c       ?DeleteAsyncTimerAndUnloadLibrary@details@Concurrency@@YAXPEAU_TP_TIMER@@@Z 00000001400b459c f   libconcrt:utils.obj
 0001:000b35e4       ?FreeLibraryAndDestroyThread@details@Concurrency@@YAXK@Z 00000001400b45e4 f   libconcrt:utils.obj
 0001:000b361c       ?InitializeCookie@Security@details@Concurrency@@SA_KXZ 00000001400b461c f   libconcrt:utils.obj
 0001:000b3680       ?LoadLibraryAndCreateThread@details@Concurrency@@YAPEAXPEAU_SECURITY_ATTRIBUTES@@_KP6AKPEAX@Z2KPEAK@Z 00000001400b4680 f   libconcrt:utils.obj
 0001:000b36d0       ?ReferenceLoadLibrary@details@Concurrency@@YAXXZ 00000001400b46d0 f   libconcrt:utils.obj
 0001:000b3778       ?RegisterAsyncTimerAndLoadLibrary@details@Concurrency@@YAPEAU_TP_TIMER@@KP6AXPEAU_TP_CALLBACK_INSTANCE@@PEAXPEAU3@@Z1_N@Z 00000001400b4778 f   libconcrt:utils.obj
 0001:000b37ec       ?RegisterAsyncWaitAndLoadLibrary@details@Concurrency@@YAPEAU_TP_WAIT@@PEAXP6AXPEAU_TP_CALLBACK_INSTANCE@@0PEAU3@K@Z0@Z 00000001400b47ec f   libconcrt:utils.obj
 0001:000b3840       ?UnRegisterAsyncTimerAndUnloadLibrary@details@Concurrency@@YAXPEAU_TP_CALLBACK_INSTANCE@@PEAU_TP_TIMER@@@Z 00000001400b4840 f   libconcrt:utils.obj
 0001:000b388c       ?UnRegisterAsyncWaitAndUnloadLibrary@details@Concurrency@@YAXPEAU_TP_CALLBACK_INSTANCE@@PEAU_TP_WAIT@@@Z 00000001400b488c f   libconcrt:utils.obj
 0001:000b38d8       ?_Acquire@_CriticalNonReentrantLock@details@Concurrency@@QEAAXXZ 00000001400b48d8 f   libconcrt:utils.obj
 0001:000b38d8       ?_Acquire@_HyperNonReentrantLock@details@Concurrency@@QEAAXXZ 00000001400b48d8 f   libconcrt:utils.obj
 0001:000b3920       ?_Release@_CriticalNonReentrantLock@details@Concurrency@@QEAAXXZ 00000001400b4920 f   libconcrt:utils.obj
 0001:000b3920       ?_Release@_HyperNonReentrantLock@details@Concurrency@@QEAAXXZ 00000001400b4920 f   libconcrt:utils.obj
 0001:000b392c       ?_Sleep0@details@Concurrency@@YAXXZ 00000001400b492c f   libconcrt:utils.obj
 0001:000b3934       ?_TryAcquire@_CriticalNonReentrantLock@details@Concurrency@@QEAA_NXZ 00000001400b4934 f   libconcrt:utils.obj
 0001:000b396c       ?_UnderlyingYield@details@Concurrency@@YAXXZ 00000001400b496c f   libconcrt:utils.obj
 0001:000b399c       fwprintf                   00000001400b499c f i libconcrt:utils.obj
 0001:000b39e0       ?Block@Context@Concurrency@@SAXXZ 00000001400b49e0 f   libconcrt:Context.obj
 0001:000b3a20       ?CurrentContext@Context@Concurrency@@SAPEAV12@XZ 00000001400b4a20 f   libconcrt:Context.obj
 0001:000b3a4c       ??0HardwareAffinity@details@Concurrency@@QEAA@PEAX@Z 00000001400b4a4c f   libconcrt:ResourceManager.obj
 0001:000b3a74       ??0ResourceManager@details@Concurrency@@AEAA@XZ 00000001400b4a74 f   libconcrt:ResourceManager.obj
 0001:000b3b8c       ??0invalid_operation@Concurrency@@QEAA@XZ 00000001400b4b8c f i libconcrt:ResourceManager.obj
 0001:000b3ba4       ??0unsupported_os@Concurrency@@QEAA@AEBV01@@Z 00000001400b4ba4 f i libconcrt:ResourceManager.obj
 0001:000b3be0       ??1GlobalNode@details@Concurrency@@QEAA@XZ 00000001400b4be0 f i libconcrt:ResourceManager.obj
 0001:000b3bf0       ??1ResourceManager@details@Concurrency@@AEAA@XZ 00000001400b4bf0 f   libconcrt:ResourceManager.obj
 0001:000b3d14       ??1_Scoped_lock@_NonReentrantBlockingLock@details@Concurrency@@QEAA@XZ 00000001400b4d14 f i libconcrt:ResourceManager.obj
 0001:000b3d14       ??1_Scoped_lock@_ReentrantBlockingLock@details@Concurrency@@QEAA@XZ 00000001400b4d14 f i libconcrt:SchedulerProxy.obj
 0001:000b3d28       ??1_Scoped_lock@_NonReentrantLock@details@Concurrency@@QEAA@XZ 00000001400b4d28 f i libconcrt:ResourceManager.obj
 0001:000b3d34       ?AdjustDynamicAllocation@ResourceManager@details@Concurrency@@AEAAIIII@Z 00000001400b4d34 f   libconcrt:ResourceManager.obj
 0001:000b3e08       ?ApplyAffinityRestrictions@ResourceManager@details@Concurrency@@CAXPEAU_GROUP_AFFINITY@@@Z 00000001400b4e08 f   libconcrt:ResourceManager.obj
 0001:000b3ed0       ?ApplyAffinityRestrictions@ResourceManager@details@Concurrency@@CAXPEA_K@Z 00000001400b4ed0 f   libconcrt:ResourceManager.obj
 0001:000b3f04       ?ApplyTo@HardwareAffinity@details@Concurrency@@QEAAXPEAX@Z 00000001400b4f04 f   libconcrt:ResourceManager.obj
 0001:000b3f14       ?CaptureProcessAffinity@ResourceManager@details@Concurrency@@CAXXZ 00000001400b4f14 f   libconcrt:ResourceManager.obj
 0001:000b409c       ?CleanupTopologyInformation@ResourceManager@details@Concurrency@@CAXXZ 00000001400b509c f   libconcrt:ResourceManager.obj
 0001:000b40c0       ?CommitStolenCores@ResourceManager@details@Concurrency@@AEAAXPEAVSchedulerProxy@23@@Z 00000001400b50c0 f   libconcrt:ResourceManager.obj
 0001:000b41e4       ?CreateAllocatedNodeData@ResourceManager@details@Concurrency@@QEAAPEAUSchedulerNode@23@XZ 00000001400b51e4 f   libconcrt:ResourceManager.obj
 0001:000b4344       ?CreateDynamicRMWorker@ResourceManager@details@Concurrency@@AEAAXXZ 00000001400b5344 f   libconcrt:ResourceManager.obj
 0001:000b43bc       ?CreateResourceManager@Concurrency@@YAPEAUIResourceManager@1@XZ 00000001400b53bc f   libconcrt:ResourceManager.obj
 0001:000b43c4       ?CreateSchedulerProxy@ResourceManager@details@Concurrency@@AEAAPEAVSchedulerProxy@23@PEAUIScheduler@3@@Z 00000001400b53c4 f   libconcrt:ResourceManager.obj
 0001:000b4438       ?CreateSingleton@ResourceManager@details@Concurrency@@SAPEAV123@XZ 00000001400b5438 f   libconcrt:ResourceManager.obj
 0001:000b4518       ?CurrentSubscriptionLevel@ResourceManager@details@Concurrency@@QEAAIII@Z 00000001400b5518 f   libconcrt:ResourceManager.obj
 0001:000b45b8       ?DestroyAllocatedNodeData@ResourceManager@details@Concurrency@@QEAAXPEAUSchedulerNode@23@@Z 00000001400b55b8 f   libconcrt:ResourceManager.obj
 0001:000b4604       ?DetermineTopology@ResourceManager@details@Concurrency@@AEAAXXZ 00000001400b5604 f   libconcrt:ResourceManager.obj
 0001:000b49e0       ?DiscardExistingSchedulerStatistics@ResourceManager@details@Concurrency@@AEAAXXZ 00000001400b59e0 f   libconcrt:ResourceManager.obj
 0001:000b4a60       ?DistributeCoresToSurvivingScheduler@ResourceManager@details@Concurrency@@AEAA_NXZ 00000001400b5a60 f   libconcrt:ResourceManager.obj
 0001:000b4c68       ?DistributeExclusiveCores@ResourceManager@details@Concurrency@@AEAAXIIIII@Z 00000001400b5c68 f   libconcrt:ResourceManager.obj
 0001:000b4e04       ?DistributeIdleCores@ResourceManager@details@Concurrency@@AEAAXII@Z 00000001400b5e04 f   libconcrt:ResourceManager.obj
 0001:000b4fdc       ?DoCoreMigration@ResourceManager@details@Concurrency@@AEAAXXZ 00000001400b5fdc f   libconcrt:ResourceManager.obj
 0001:000b525c       ?DynamicAssignCores@ResourceManager@details@Concurrency@@AEAAXPEAVSchedulerProxy@23@II_N@Z 00000001400b625c f   libconcrt:ResourceManager.obj
 0001:000b5308       ?DynamicMigrateCores@ResourceManager@details@Concurrency@@AEAAXPEAUDynamicAllocationData@23@PEAVSchedulerProxy@23@II@Z 00000001400b6308 f   libconcrt:ResourceManager.obj
 0001:000b54dc       ?DynamicRMThreadProc@ResourceManager@details@Concurrency@@CAKPEAX@Z 00000001400b64dc f   libconcrt:ResourceManager.obj
 0001:000b54f4       ?DynamicResourceManager@ResourceManager@details@Concurrency@@AEAAXXZ 00000001400b64f4 f   libconcrt:ResourceManager.obj
 0001:000b5604       ?FindBestFitExclusiveAllocation@ResourceManager@details@Concurrency@@AEAAIAEAI0PEAUDynamicAllocationData@23@II@Z 00000001400b6604 f   libconcrt:ResourceManager.obj
 0001:000b59d0       ?FindBestFitIdleAllocation@ResourceManager@details@Concurrency@@AEAAIIPEAUDynamicAllocationData@23@I@Z 00000001400b69d0 f   libconcrt:ResourceManager.obj
 0001:000b5af4       ?FindCoreForPartiallyFilledNode@ResourceManager@details@Concurrency@@AEAA_NAEAI0PEAUDynamicAllocationData@23@I@Z 00000001400b6af4 f   libconcrt:ResourceManager.obj
 0001:000b5c4c       ?FlushStoreBuffers@ResourceManager@details@Concurrency@@QEAAXXZ 00000001400b6c4c f   libconcrt:ResourceManager.obj
 0001:000b5c88       ?GetNumberOfVirtualProcessors@SchedulerBase@details@Concurrency@@UEBAIXZ 00000001400b6c88 f i libconcrt:SchedulerBase.obj
 0001:000b5c88       ?GetAvailableNodeCount@ResourceManager@details@Concurrency@@UEBAIXZ 00000001400b6c88 f i libconcrt:ResourceManager.obj
 0001:000b5c8c       ?GetCoreCount@ResourceManager@details@Concurrency@@SAIXZ 00000001400b6c8c f   libconcrt:ResourceManager.obj
 0001:000b5d08       ?GetCurrentNodeAndCore@ResourceManager@details@Concurrency@@QEAAIPEAI@Z 00000001400b6d08 f   libconcrt:ResourceManager.obj
 0001:000b5e4c       ?GetExecutionResourceCount@TopologyObject@GlobalNode@details@Concurrency@@UEBAIXZ 00000001400b6e4c f i libconcrt:ResourceManager.obj
 0001:000b5e54       ?GetFirstExecutionResource@TopologyObject@GlobalNode@details@Concurrency@@UEBAPEAUITopologyExecutionResource@4@XZ 00000001400b6e54 f i libconcrt:ResourceManager.obj
 0001:000b5e64       ?GetFirstNode@ResourceManager@details@Concurrency@@UEBAPEAUITopologyNode@3@XZ 00000001400b6e64 f i libconcrt:ResourceManager.obj
 0001:000b5e70       ?GetId@TopologyObject@GlobalCore@details@Concurrency@@UEBAIXZ 00000001400b6e70 f i libconcrt:ResourceManager.obj
 0001:000b5e78       ?GetId@TopologyObject@GlobalNode@details@Concurrency@@UEBAIXZ 00000001400b6e78 f i libconcrt:ResourceManager.obj
 0001:000b5e80       ?GetNext@TopologyObject@GlobalCore@details@Concurrency@@UEBAPEAUITopologyExecutionResource@4@XZ 00000001400b6e80 f   libconcrt:ResourceManager.obj
 0001:000b5ec8       ?GetNext@TopologyObject@GlobalNode@details@Concurrency@@UEBAPEAUITopologyNode@4@XZ 00000001400b6ec8 f   libconcrt:ResourceManager.obj
 0001:000b5ef8       ?GetNodeCount@ResourceManager@details@Concurrency@@SAIXZ 00000001400b6ef8 f   libconcrt:ResourceManager.obj
 0001:000b5f74       ?GetNumaNode@TopologyObject@GlobalNode@details@Concurrency@@UEBAKXZ 00000001400b6f74 f i libconcrt:ResourceManager.obj
 0001:000b5f7c       ?GetOSVersion@Concurrency@@YA?AW4OSVersion@IResourceManager@1@XZ 00000001400b6f7c f   libconcrt:ResourceManager.obj
 0001:000b5f84       ?GetProcessorCount@Concurrency@@YAIXZ 00000001400b6f84 f   libconcrt:ResourceManager.obj
 0001:000b5f8c       ?GetProcessorNodeCount@Concurrency@@YAIXZ 00000001400b6f8c f   libconcrt:ResourceManager.obj
 0001:000b5f94       ?GetSchedulerId@Concurrency@@YAIXZ 00000001400b6f94 f   libconcrt:ResourceManager.obj
 0001:000b5fa4       ?GetTopologyInformation@ResourceManager@details@Concurrency@@CAXW4_LOGICAL_PROCESSOR_RELATIONSHIP@@@Z 00000001400b6fa4 f   libconcrt:ResourceManager.obj
 0001:000b5fd8       ?HandleBorrowedCores@ResourceManager@details@Concurrency@@AEAAXPEAVSchedulerProxy@23@PEAUAllocationData@23@@Z 00000001400b6fd8 f   libconcrt:ResourceManager.obj
 0001:000b6124       ?HandleSharedCores@ResourceManager@details@Concurrency@@AEAAXPEAVSchedulerProxy@23@PEAUDynamicAllocationData@23@@Z 00000001400b7124 f   libconcrt:ResourceManager.obj
 0001:000b6278       ?IncreaseFullyLoadedSchedulerAllocations@ResourceManager@details@Concurrency@@AEAAXXZ 00000001400b7278 f   libconcrt:ResourceManager.obj
 0001:000b62dc       ?Initialize@GlobalNode@details@Concurrency@@QEAAXPEAVResourceManager@23@GG_KII@Z 00000001400b72dc f i libconcrt:ResourceManager.obj
 0001:000b64c0       ?InitializeRMBuffers@ResourceManager@details@Concurrency@@AEAAXXZ 00000001400b74c0 f   libconcrt:ResourceManager.obj
 0001:000b65c0       ?InitializeSystemInformation@ResourceManager@details@Concurrency@@CAX_N@Z 00000001400b75c0 f   libconcrt:ResourceManager.obj
 0001:000b68c4       ?PerformAllocation@ResourceManager@details@Concurrency@@QEAAPEAVExecutionResource@23@PEAVSchedulerProxy@23@_N1@Z 00000001400b78c4 f   libconcrt:ResourceManager.obj
 0001:000b6ac0       ?PopulateCommonAllocationData@ResourceManager@details@Concurrency@@AEAAXIPEAVSchedulerProxy@23@PEAUAllocationData@23@@Z 00000001400b7ac0 f   libconcrt:ResourceManager.obj
 0001:000b6bec       ?PopulateDynamicAllocationData@ResourceManager@details@Concurrency@@AEAAXXZ 00000001400b7bec f   libconcrt:ResourceManager.obj
 0001:000b6d54       ?PreProcessDynamicAllocationData@ResourceManager@details@Concurrency@@AEAAXXZ 00000001400b7d54 f   libconcrt:ResourceManager.obj
 0001:000b6e60       ?PreProcessStaticAllocationData@ResourceManager@details@Concurrency@@AEAAXXZ 00000001400b7e60 f   libconcrt:ResourceManager.obj
 0001:000b6ea4       ?PrepareReceiversForCoreTransfer@ResourceManager@details@Concurrency@@AEAAII@Z 00000001400b7ea4 f   libconcrt:ResourceManager.obj
 0001:000b7130       ?RedistributeCoresAmongAll@ResourceManager@details@Concurrency@@AEAAIPEAVSchedulerProxy@23@III@Z 00000001400b8130 f   libconcrt:ResourceManager.obj
 0001:000b74fc       ?Reference@ResourceManager@details@Concurrency@@UEAAIXZ 00000001400b84fc f   libconcrt:ResourceManager.obj
 0001:000b750c       ?RegisterScheduler@ResourceManager@details@Concurrency@@UEAAPEAUISchedulerProxy@3@PEAUIScheduler@3@I@Z 00000001400b850c f   libconcrt:ResourceManager.obj
 0001:000b7570       ?Release@ResourceManager@details@Concurrency@@UEAAIXZ 00000001400b8570 f   libconcrt:ResourceManager.obj
 0001:000b765c       ?ReleaseCoresOnExistingSchedulers@ResourceManager@details@Concurrency@@AEAAIPEAVSchedulerProxy@23@II@Z 00000001400b865c f   libconcrt:ResourceManager.obj
 0001:000b7700       ?ReleaseSchedulerResources@ResourceManager@details@Concurrency@@AEAA_NPEAVSchedulerProxy@23@0I@Z 00000001400b8700 f   libconcrt:ResourceManager.obj
 0001:000b781c       ?RemoveExecutionResource@ResourceManager@details@Concurrency@@QEAAXPEAVExecutionResource@23@@Z 00000001400b881c f   libconcrt:ResourceManager.obj
 0001:000b78bc       ?RequestInitialVirtualProcessors@ResourceManager@details@Concurrency@@QEAAPEAUIExecutionResource@3@PEAVSchedulerProxy@23@_N@Z 00000001400b88bc f   libconcrt:ResourceManager.obj
 0001:000b7a54       ?ReserveAtHigherUseCounts@ResourceManager@details@Concurrency@@AEAAIPEAVSchedulerProxy@23@I@Z 00000001400b8a54 f   libconcrt:ResourceManager.obj
 0001:000b7ab8       ?ReserveCores@ResourceManager@details@Concurrency@@AEAAIPEAVSchedulerProxy@23@II@Z 00000001400b8ab8 f   libconcrt:ResourceManager.obj
 0001:000b7cb4       ?ResetGlobalAllocationData@ResourceManager@details@Concurrency@@AEAAXXZ 00000001400b8cb4 f   libconcrt:ResourceManager.obj
 0001:000b7d08       ?RetrieveSystemVersionInformation@ResourceManager@details@Concurrency@@CAXXZ 00000001400b8d08 f   libconcrt:ResourceManager.obj
 0001:000b7e20       ?RoundUpScaledAllocations@ResourceManager@details@Concurrency@@CAXPEAPEAUAllocationData@23@II@Z 00000001400b8e20 f   libconcrt:ResourceManager.obj
 0001:000b7fe0       ?SendResourceNotifications@ResourceManager@details@Concurrency@@QEAAXPEAVSchedulerProxy@23@@Z 00000001400b8fe0 f   libconcrt:ResourceManager.obj
 0001:000b81a4       ?SetupStaticAllocationData@ResourceManager@details@Concurrency@@AEAAXPEAVSchedulerProxy@23@_N@Z 00000001400b91a4 f   libconcrt:ResourceManager.obj
 0001:000b82c4       ?Shutdown@ResourceManager@details@Concurrency@@QEAAXPEAVSchedulerProxy@23@@Z 00000001400b92c4 f   libconcrt:ResourceManager.obj
 0001:000b83dc       ?SubscribeCurrentThread@ResourceManager@details@Concurrency@@QEAAPEAVExecutionResource@23@PEAVSchedulerProxy@23@@Z 00000001400b93dc f   libconcrt:ResourceManager.obj
 0001:000b844c       ?ToggleRMIdleState@ResourceManager@details@Concurrency@@AEAAXPEAUSchedulerNode@23@PEAUSchedulerCore@23@PEAUGlobalNode@23@PEAUGlobalCore@23@PEAUAllocationData@23@@Z 00000001400b944c f   libconcrt:ResourceManager.obj
 0001:000b84b4       ?Version@ResourceManager@details@Concurrency@@SA?AW4OSVersion@IResourceManager@3@XZ 00000001400b94b4 f   libconcrt:ResourceManager.obj
 0001:000b852c       ??0?$ListArray@VScheduleGroupSegmentBase@details@Concurrency@@@details@Concurrency@@QEAA@PEAVSchedulerBase@12@HH@Z 00000001400b952c f i libconcrt:SchedulingRing.obj
 0001:000b852c       ??0?$ListArray@VWorkQueue@details@Concurrency@@@details@Concurrency@@QEAA@PEAVSchedulerBase@12@HH@Z 00000001400b952c f i libconcrt:ScheduleGroupBase.obj
 0001:000b852c       ??0?$ListArray@VExternalStatistics@details@Concurrency@@@details@Concurrency@@QEAA@PEAVSchedulerBase@12@HH@Z 00000001400b952c f i libconcrt:SchedulerBase.obj
 0001:000b852c       ??0?$ListArray@U?$ListArrayInlineLink@VWorkQueue@details@Concurrency@@@details@Concurrency@@@details@Concurrency@@QEAA@PEAVSchedulerBase@12@HH@Z 00000001400b952c f i libconcrt:ScheduleGroupBase.obj
 0001:000b852c       ??0?$ListArray@VScheduleGroupBase@details@Concurrency@@@details@Concurrency@@QEAA@PEAVSchedulerBase@12@HH@Z 00000001400b952c f i libconcrt:SchedulerBase.obj
 0001:000b852c       ??0?$ListArray@VVirtualProcessor@details@Concurrency@@@details@Concurrency@@QEAA@PEAVSchedulerBase@12@HH@Z 00000001400b952c f i libconcrt:SchedulingNode.obj
 0001:000b865c       ??0NumaInformation@SchedulerBase@details@Concurrency@@QEAA@XZ 00000001400b965c f i libconcrt:SchedulerBase.obj
 0001:000b8670       ??0SchedulerBase@details@Concurrency@@QEAA@AEBVSchedulerPolicy@2@@Z 00000001400b9670 f   libconcrt:SchedulerBase.obj
 0001:000b8a48       ??0improper_scheduler_attach@Concurrency@@QEAA@AEBV01@@Z 00000001400b9a48 f i libconcrt:SchedulerBase.obj
 0001:000b8a84       ??0improper_scheduler_reference@Concurrency@@QEAA@AEBV01@@Z 00000001400b9a84 f i libconcrt:SchedulerBase.obj
 0001:000b8ac0       ??1?$Hash@II@details@Concurrency@@QEAA@XZ 00000001400b9ac0 f i libconcrt:SchedulerBase.obj
 0001:000b8adc       ??1?$ListArray@VExternalStatistics@details@Concurrency@@@details@Concurrency@@QEAA@XZ 00000001400b9adc f i libconcrt:SchedulerBase.obj
 0001:000b8bd0       ??1?$ListArray@VScheduleGroupBase@details@Concurrency@@@details@Concurrency@@QEAA@XZ 00000001400b9bd0 f i libconcrt:SchedulerBase.obj
 0001:000b8cf4       ??1NumaInformation@SchedulerBase@details@Concurrency@@QEAA@XZ 00000001400b9cf4 f i libconcrt:SchedulerBase.obj
 0001:000b8d14       ??1QuickBitSet@details@Concurrency@@QEAA@XZ 00000001400b9d14 f i libconcrt:SchedulerBase.obj
 0001:000b8d20       ??1ReferenceCountedQuickBitSet@details@Concurrency@@QEAA@XZ 00000001400b9d20 f i libconcrt:SchedulerBase.obj
 0001:000b8d40       ??1ScheduleGroup@Concurrency@@MEAA@XZ 00000001400b9d40 f i libconcrt:SchedulerBase.obj
 0001:000b8d4c       ??1Scheduler@Concurrency@@MEAA@XZ 00000001400b9d4c f i libconcrt:SchedulerBase.obj
 0001:000b8d58       ??1SchedulerBase@details@Concurrency@@UEAA@XZ 00000001400b9d58 f   libconcrt:SchedulerBase.obj
 0001:000b8e30       ??1_Scoped_lock@_HyperNonReentrantLock@details@Concurrency@@QEAA@XZ 00000001400b9e30 f i libconcrt:SchedulerBase.obj
 0001:000b8e30       ??1_Scoped_lock@_CriticalNonReentrantLock@details@Concurrency@@QEAA@XZ 00000001400b9e30 f i libconcrt:ContextBase.obj
 0001:000b8e44       ??_GCacheLocalScheduleGroup@details@Concurrency@@UEAAPEAXI@Z 00000001400b9e44 f i libconcrt:SchedulerBase.obj
 0001:000b8e44       ??_GScheduleGroupBase@details@Concurrency@@UEAAPEAXI@Z 00000001400b9e44 f i libconcrt:ScheduleGroupBase.obj
 0001:000b8e44       ??_ECacheLocalScheduleGroup@details@Concurrency@@UEAAPEAXI@Z 00000001400b9e44 f i libconcrt:SchedulerBase.obj
 0001:000b8e44       ??_EScheduleGroupBase@details@Concurrency@@UEAAPEAXI@Z 00000001400b9e44 f i libconcrt:ScheduleGroupBase.obj
 0001:000b8e70       ??_GCacheLocalScheduleGroupSegment@details@Concurrency@@UEAAPEAXI@Z 00000001400b9e70 f i libconcrt:SchedulerBase.obj
 0001:000b8e70       ??_EFairScheduleGroupSegment@details@Concurrency@@UEAAPEAXI@Z 00000001400b9e70 f i libconcrt:SchedulerBase.obj
 0001:000b8e70       ??_ECacheLocalScheduleGroupSegment@details@Concurrency@@UEAAPEAXI@Z 00000001400b9e70 f i libconcrt:SchedulerBase.obj
 0001:000b8e70       ??_GFairScheduleGroupSegment@details@Concurrency@@UEAAPEAXI@Z 00000001400b9e70 f i libconcrt:SchedulerBase.obj
 0001:000b8ea4       ??_GFairScheduleGroup@details@Concurrency@@UEAAPEAXI@Z 00000001400b9ea4 f i libconcrt:SchedulerBase.obj
 0001:000b8ea4       ??_EFairScheduleGroup@details@Concurrency@@UEAAPEAXI@Z 00000001400b9ea4 f i libconcrt:SchedulerBase.obj
 0001:000b8ed0       ??_ERealizedChore@details@Concurrency@@UEAAPEAXI@Z 00000001400b9ed0 f i libconcrt:SchedulerBase.obj
 0001:000b8ed0       ??_GRealizedChore@details@Concurrency@@UEAAPEAXI@Z 00000001400b9ed0 f i libconcrt:SchedulerBase.obj
 0001:000b8efc       ??_GScheduleGroup@Concurrency@@MEAAPEAXI@Z 00000001400b9efc f i libconcrt:SchedulerBase.obj
 0001:000b8efc       ??_EScheduleGroup@Concurrency@@MEAAPEAXI@Z 00000001400b9efc f i libconcrt:SchedulerBase.obj
 0001:000b8f28       ??_GScheduler@Concurrency@@MEAAPEAXI@Z 00000001400b9f28 f i libconcrt:SchedulerBase.obj
 0001:000b8f28       ??_EScheduler@Concurrency@@MEAAPEAXI@Z 00000001400b9f28 f i libconcrt:SchedulerBase.obj
 0001:000b8f54       ??_ESchedulerBase@details@Concurrency@@UEAAPEAXI@Z 00000001400b9f54 f i libconcrt:SchedulerBase.obj
 0001:000b8f54       ??_GSchedulerBase@details@Concurrency@@UEAAPEAXI@Z 00000001400b9f54 f i libconcrt:SchedulerBase.obj
 0001:000b8f88       ??_G_Chore@details@Concurrency@@MEAAPEAXI@Z 00000001400b9f88 f i libconcrt:SchedulerBase.obj
 0001:000b8f88       ??_E_Chore@details@Concurrency@@MEAAPEAXI@Z 00000001400b9f88 f i libconcrt:SchedulerBase.obj
 0001:000b8fb4       ?Add@?$ListArray@VScheduleGroupBase@details@Concurrency@@@details@Concurrency@@QEAAHPEAVScheduleGroupBase@23@@Z 00000001400b9fb4 f i libconcrt:SchedulerBase.obj
 0001:000b9134       ?AddContext@SchedulerBase@details@Concurrency@@QEAAXPEAVInternalContextBase@23@@Z 00000001400ba134 f   libconcrt:SchedulerBase.obj
 0001:000b918c       ?AddTail@?$SafeRWList@VWaitNode@SchedulerBase@details@Concurrency@@VNoCount@CollectionTypes@34@V_ReaderWriterLock@34@@details@Concurrency@@QEAAXPEAVWaitNode@SchedulerBase@23@@Z 00000001400ba18c f i libconcrt:SchedulerBase.obj
 0001:000b91f8       ?AddVirtualProcessors@SchedulerBase@details@Concurrency@@IEAAXPEAPEAUIVirtualProcessorRoot@3@I@Z 00000001400ba1f8 f   libconcrt:SchedulerBase.obj
 0001:000b92e0       ?AllocateSegment@CacheLocalScheduleGroup@details@Concurrency@@MEAAPEAVScheduleGroupSegmentBase@23@PEAVSchedulingRing@23@PEAVlocation@3@@Z 00000001400ba2e0 f i libconcrt:SchedulerBase.obj
 0001:000b9364       ?AllocateSegment@FairScheduleGroup@details@Concurrency@@MEAAPEAVScheduleGroupSegmentBase@23@PEAVSchedulingRing@23@PEAVlocation@3@@Z 00000001400ba364 f i libconcrt:SchedulerBase.obj
 0001:000b93ec       ?Attach@SchedulerBase@details@Concurrency@@UEAAXXZ 00000001400ba3ec f   libconcrt:SchedulerBase.obj
 0001:000b9454       ?AttachExternalContext@SchedulerBase@details@Concurrency@@AEAAPEAVExternalContextBase@23@_N@Z 00000001400ba454 f   libconcrt:SchedulerBase.obj
 0001:000b94fc       ?AttemptSchedulerSweep@SchedulerBase@details@Concurrency@@IEAAXXZ 00000001400ba4fc f   libconcrt:SchedulerBase.obj
 0001:000b9520       ?CancelAllContexts@SchedulerBase@details@Concurrency@@MEAAXXZ 00000001400ba520 f   libconcrt:SchedulerBase.obj
 0001:000b9564       ?ChangeThrottlingTimer@SchedulerBase@details@Concurrency@@AEAAXK@Z 00000001400ba564 f   libconcrt:SchedulerBase.obj
 0001:000b95c4       ?CheckForDeletion@?$ListArray@VScheduleGroupBase@details@Concurrency@@@details@Concurrency@@AEAAXXZ 00000001400ba5c4 f i libconcrt:SchedulerBase.obj
 0001:000b9630       ?CheckForDeletionBridge@?$ListArray@VExternalStatistics@details@Concurrency@@@details@Concurrency@@CAXPEAV123@@Z 00000001400ba630 f i libconcrt:SchedulerBase.obj
 0001:000b968c       ?CheckForDeletionBridge@?$ListArray@VScheduleGroupBase@details@Concurrency@@@details@Concurrency@@CAXPEAV123@@Z 00000001400ba68c f i libconcrt:SchedulerBase.obj
 0001:000b9694       ?CheckOneShotStaticDestruction@SchedulerBase@details@Concurrency@@SAXXZ 00000001400ba694 f   libconcrt:SchedulerBase.obj
 0001:000b96d4       ?CheckStaticConstruction@SchedulerBase@details@Concurrency@@CAXXZ 00000001400ba6d4 f   libconcrt:SchedulerBase.obj
 0001:000b977c       ?Cleanup@SchedulerBase@details@Concurrency@@AEAAXXZ 00000001400ba77c f   libconcrt:SchedulerBase.obj
 0001:000b9890       ?CommitSafePoints@SchedulerBase@details@Concurrency@@QEAAXXZ 00000001400ba890 f   libconcrt:SchedulerBase.obj
 0001:000b98f8       ?CommitToVersion@SchedulerBase@details@Concurrency@@AEAAXK@Z 00000001400ba8f8 f   libconcrt:SchedulerBase.obj
 0001:000b99cc       ?ComputeSafePointCommitVersion@SchedulerBase@details@Concurrency@@AEAAKXZ 00000001400ba9cc f   libconcrt:SchedulerBase.obj
 0001:000b9ae0       ?CopyFrom@QuickBitSet@details@Concurrency@@IEAAXAEBV123@@Z 00000001400baae0 f i libconcrt:SchedulerBase.obj
 0001:000b9b68       ?CreateContextFromDefaultScheduler@SchedulerBase@details@Concurrency@@SAPEAVContextBase@23@XZ 00000001400bab68 f   libconcrt:SchedulerBase.obj
 0001:000b9ba8       ?CreateScheduleGroup@SchedulerBase@details@Concurrency@@UEAAPEAVScheduleGroup@3@AEAVlocation@3@@Z 00000001400baba8 f i libconcrt:SchedulerBase.obj
 0001:000b9bb0       ?CreateScheduleGroup@SchedulerBase@details@Concurrency@@UEAAPEAVScheduleGroup@3@XZ 00000001400babb0 f i libconcrt:SchedulerBase.obj
 0001:000b9bd8       ?CreateWithoutInitializing@SchedulerBase@details@Concurrency@@SAPEAV123@AEBVSchedulerPolicy@3@@Z 00000001400babd8 f   libconcrt:SchedulerBase.obj
 0001:000b9c08       ?DecrementInternalContextCount@SchedulerBase@details@Concurrency@@QEAAXXZ 00000001400bac08 f   libconcrt:SchedulerBase.obj
 0001:000b9c28       ?DeferredGetInternalContext@SchedulerBase@details@Concurrency@@QEAAXXZ 00000001400bac28 f   libconcrt:SchedulerBase.obj
 0001:000b9c54       ?DestroySchedulerEventHandlers@SchedulerBase@details@Concurrency@@MEAAXXZ 00000001400bac54 f   libconcrt:SchedulerBase.obj
 0001:000b9cc4       ?DetachExternalContext@SchedulerBase@details@Concurrency@@AEAAXPEAVExternalContextBase@23@_N@Z 00000001400bacc4 f   libconcrt:SchedulerBase.obj
 0001:000b9d34       ?FastCurrentContext@SchedulerBase@details@Concurrency@@SAPEAVContextBase@23@XZ 00000001400bad34 f   libconcrt:SchedulerBase.obj
 0001:000b9d40       ?FastCurrentScheduler@SchedulerBase@details@Concurrency@@SAPEAV123@XZ 00000001400bad40 f   libconcrt:SchedulerBase.obj
 0001:000b9d64       ?Fill@QuickBitSet@details@Concurrency@@QEAAXXZ 00000001400bad64 f i libconcrt:SchedulerBase.obj
 0001:000b9e00       ?Finalize@SchedulerBase@details@Concurrency@@AEAAXXZ 00000001400bae00 f   libconcrt:SchedulerBase.obj
 0001:000b9f94       ?Find@?$Hash@II@details@Concurrency@@QEAAPEAUListNode@123@AEBIPEAI@Z 00000001400baf94 f i libconcrt:SchedulerBase.obj
 0001:000ba010       ?FindCurrentNode@SchedulerBase@details@Concurrency@@QEAAPEAVSchedulingNode@23@XZ 00000001400bb010 f   libconcrt:SchedulerBase.obj
 0001:000ba074       ?FindNodeByLocation@SchedulerBase@details@Concurrency@@QEAAPEAVSchedulingNode@23@PEAVlocation@3@@Z 00000001400bb074 f   libconcrt:SchedulerBase.obj
 0001:000ba0dc       ?FindScheduleGroupSegment@SchedulingRing@details@Concurrency@@AEAAPEAVScheduleGroupSegmentBase@23@HHPEAHPEAV?$ListArray@VScheduleGroupSegmentBase@details@Concurrency@@@23@@Z 00000001400bb0dc f i libconcrt:SchedulerBase.obj
 0001:000ba160       ?FindVirtualProcessor@SchedulingNode@details@Concurrency@@QEAAPEAVVirtualProcessor@23@HHPEAH@Z 00000001400bb160 f i libconcrt:SchedulerBase.obj
 0001:000ba1ec       ?FoundAvailableVirtualProcessor@SchedulerBase@details@Concurrency@@QEAA_NAEAVClaimTicket@VirtualProcessor@23@Vlocation@3@K@Z 00000001400bb1ec f   libconcrt:SchedulerBase.obj
 0001:000ba358       ?FoundBlockedContexts@SchedulerBase@details@Concurrency@@AEAA_NXZ 00000001400bb358 f   libconcrt:SchedulerBase.obj
 0001:000ba38c       ?FoundUnstartedChores@SchedulerBase@details@Concurrency@@AEAA_NXZ 00000001400bb38c f   libconcrt:SchedulerBase.obj
 0001:000ba544       ?GetAnonymousScheduleGroupSegment@SchedulerBase@details@Concurrency@@QEAAPEAVScheduleGroupSegmentBase@23@XZ 00000001400bb544 f   libconcrt:SchedulerBase.obj
 0001:000ba558       ?GetBitSet@SchedulerBase@details@Concurrency@@QEAA?AVQuickBitSet@23@PEBVlocation@3@@Z 00000001400bb558 f   libconcrt:SchedulerBase.obj
 0001:000ba658       ?GetDefaultScheduler@SchedulerBase@details@Concurrency@@CAPEAV123@XZ 00000001400bb658 f   libconcrt:SchedulerBase.obj
 0001:000ba728       ?GetExternalContext@SchedulerBase@details@Concurrency@@AEAAPEAVExternalContextBase@23@_N@Z 00000001400bb728 f   libconcrt:SchedulerBase.obj
 0001:000ba7a0       ?GetInternalContext@SchedulerBase@details@Concurrency@@QEAAPEAVInternalContextBase@23@_N@Z 00000001400bb7a0 f   libconcrt:SchedulerBase.obj
 0001:000ba8d4       ?GetNewContextId@SchedulerBase@details@Concurrency@@QEAAIXZ 00000001400bb8d4 f   libconcrt:SchedulerBase.obj
 0001:000ba8e4       ?GetNewScheduleGroupId@SchedulerBase@details@Concurrency@@QEAAIXZ 00000001400bb8e4 f   libconcrt:SchedulerBase.obj
 0001:000ba8f4       ?GetNewWorkQueueId@SchedulerBase@details@Concurrency@@SAIXZ 00000001400bb8f4 f   libconcrt:SchedulerBase.obj
 0001:000ba904       ?GetNextPriorityObject@SchedulerBase@details@Concurrency@@QEAAPEAUBoostedObject@23@XZ 00000001400bb904 f   libconcrt:SchedulerBase.obj
 0001:000ba988       ?GetNextScheduleGroupSegment@SchedulingRing@details@Concurrency@@AEAAPEAVScheduleGroupSegmentBase@23@PEAHHPEAV?$ListArray@VScheduleGroupSegmentBase@details@Concurrency@@@23@@Z 00000001400bb988 f i libconcrt:SchedulerBase.obj
 0001:000baa00       ?GetNextSchedulingRing@SchedulerBase@details@Concurrency@@QEAAPEAVSchedulingRing@23@PEBV423@PEAV423@@Z 00000001400bba00 f   libconcrt:SchedulerBase.obj
 0001:000baa4c       ?GetNextSchedulingRing@SchedulerBase@details@Concurrency@@QEAAPEAVSchedulingRing@23@XZ 00000001400bba4c f   libconcrt:SchedulerBase.obj
 0001:000baa88       ?GetPolicy@SchedulerBase@details@Concurrency@@UEBA?AVSchedulerPolicy@3@XZ 00000001400bba88 f   libconcrt:SchedulerBase.obj
 0001:000baaa8       ?GetRealizedChore@SchedulerBase@details@Concurrency@@QEAAPEAVRealizedChore@23@P6AXPEAX@Z0@Z 00000001400bbaa8 f   libconcrt:SchedulerBase.obj
 0001:000bab0c       ?GetRunnableContext@FairScheduleGroupSegment@details@Concurrency@@EEAAPEAVInternalContextBase@23@XZ 00000001400bbb0c f i libconcrt:SchedulerBase.obj
 0001:000bab0c       ?GetRunnableContext@CacheLocalScheduleGroupSegment@details@Concurrency@@EEAAPEAVInternalContextBase@23@XZ 00000001400bbb0c f i libconcrt:SchedulerBase.obj
 0001:000bab74       ?GetSubAllocator@SchedulerBase@details@Concurrency@@SAPEAVSubAllocator@23@_N@Z 00000001400bbb74 f   libconcrt:SchedulerBase.obj
 0001:000bac0c       ?GetValidSchedulingRingIndex@SchedulerBase@details@Concurrency@@AEAAHH@Z 00000001400bbc0c f   libconcrt:SchedulerBase.obj
 0001:000bac44       ?Grow@QuickBitSet@details@Concurrency@@QEAAXI@Z 00000001400bbc44 f i libconcrt:SchedulerBase.obj
 0001:000bacec       ?Grow@ReferenceCountedQuickBitSet@details@Concurrency@@QEAAXI@Z 00000001400bbcec f i libconcrt:SchedulerBase.obj
 0001:000bad90       ?HasCompletedShutdown@SchedulerBase@details@Concurrency@@QEAA_NXZ 00000001400bbd90 f   libconcrt:SchedulerBase.obj
 0001:000bada4       ?Id@ScheduleGroupBase@details@Concurrency@@UEBAIXZ 00000001400bbda4 f i libconcrt:SchedulerBase.obj
 0001:000bada4       ?GetId@InternalContextBase@details@Concurrency@@UEBAIXZ 00000001400bbda4 f i libconcrt:InternalContextBase.obj
 0001:000bada8       ?Id@SchedulerBase@details@Concurrency@@UEBAIXZ 00000001400bbda8 f i libconcrt:SchedulerBase.obj
 0001:000badb0       ?Initialize@SchedulerBase@details@Concurrency@@AEAAXXZ 00000001400bbdb0 f   libconcrt:SchedulerBase.obj
 0001:000bb31c       ?InitializeSchedulerEventHandlers@SchedulerBase@details@Concurrency@@MEAAXXZ 00000001400bc31c f   libconcrt:SchedulerBase.obj
 0001:000bb324       ?Insert@?$Hash@II@details@Concurrency@@QEAAPEAUListNode@123@AEBI0@Z 00000001400bc324 f i libconcrt:SchedulerBase.obj
 0001:000bb3fc       ?InternalCreateScheduleGroup@SchedulerBase@details@Concurrency@@AEAAPEAVScheduleGroup@3@PEAVlocation@3@@Z 00000001400bc3fc f   libconcrt:SchedulerBase.obj
 0001:000bb504       ?InvokeAtNextSafePoint@SafePointInvocation@details@Concurrency@@QEAAXP6AXPEAX@Z0PEAVSchedulerBase@23@@Z 00000001400bc504 f   libconcrt:SchedulerBase.obj
 0001:000bb530       ?InvokeOnSafePoint@SchedulerBase@details@Concurrency@@AEAAXPEAVSafePointInvocation@23@@Z 00000001400bc530 f   libconcrt:SchedulerBase.obj
 0001:000bb5a8       ?IsAvailableLocation@SchedulerBase@details@Concurrency@@UEBA_NAEBVlocation@3@@Z 00000001400bc5a8 f   libconcrt:SchedulerBase.obj
 0001:000bb60c       ?MailChore@FairScheduleGroup@details@Concurrency@@UEAA?AVSlot@?$Mailbox@V_UnrealizedChore@details@Concurrency@@@23@PEAV_UnrealizedChore@23@PEAVlocation@3@PEAPEAVScheduleGroupSegmentBase@23@@Z 00000001400bc60c f i libconcrt:SchedulerBase.obj
 0001:000bb618       ?MarkSafePoint@SchedulerBase@details@Concurrency@@QEAA_NPEAVSafePointMarker@23@@Z 00000001400bc618 f   libconcrt:SchedulerBase.obj
 0001:000bb630       ?NotifyThrottledContext@SchedulerBase@details@Concurrency@@AEAA_NPEAVInternalContextBase@23@@Z 00000001400bc630 f   libconcrt:SchedulerBase.obj
 0001:000bb6d4       ?PerformServiceScan@SchedulerBase@details@Concurrency@@AEAAX_K@Z 00000001400bc6d4 f   libconcrt:SchedulerBase.obj
 0001:000bb9ac       ?PhaseOneShutdown@SchedulerBase@details@Concurrency@@AEAAXXZ 00000001400bc9ac f   libconcrt:SchedulerBase.obj
 0001:000bba88       ?PhaseTwoShutdown@SchedulerBase@details@Concurrency@@AEAAXXZ 00000001400bca88 f   libconcrt:SchedulerBase.obj
 0001:000bbb60       ?PushRunnableToInactive@SchedulerBase@details@Concurrency@@UEAA_NPEAVInternalContextBase@23@Vlocation@3@@Z 00000001400bcb60 f   libconcrt:SchedulerBase.obj
 0001:000bbc10       ?Reference@ScheduleGroupBase@details@Concurrency@@UEAAIXZ 00000001400bcc10 f i libconcrt:SchedulerBase.obj
 0001:000bbc28       ?Reference@SchedulerBase@details@Concurrency@@UEAAIXZ 00000001400bcc28 f   libconcrt:SchedulerBase.obj
 0001:000bbcb4       ?RegisterShutdownEvent@SchedulerBase@details@Concurrency@@UEAAXPEAX@Z 00000001400bccb4 f   libconcrt:SchedulerBase.obj
 0001:000bbd9c       ?Release@ScheduleGroupBase@details@Concurrency@@UEAAIXZ 00000001400bcd9c f i libconcrt:SchedulerBase.obj
 0001:000bbdf4       ?Release@SchedulerBase@details@Concurrency@@UEAAIXZ 00000001400bcdf4 f   libconcrt:SchedulerBase.obj
 0001:000bbe18       ?ReleaseExternalContext@SchedulerBase@details@Concurrency@@AEAAXPEAVExternalContextBase@23@@Z 00000001400bce18 f   libconcrt:SchedulerBase.obj
 0001:000bbe8c       ?ReleaseInternalContext@SchedulerBase@details@Concurrency@@QEAAXPEAVInternalContextBase@23@_N@Z 00000001400bce8c f   libconcrt:SchedulerBase.obj
 0001:000bbed8       ?ReleaseRealizedChore@SchedulerBase@details@Concurrency@@QEAAXPEAVRealizedChore@23@@Z 00000001400bced8 f   libconcrt:SchedulerBase.obj
 0001:000bbf44       ?ReleaseReservedContexts@SchedulerBase@details@Concurrency@@QEAAXXZ 00000001400bcf44 f   libconcrt:SchedulerBase.obj
 0001:000bbfd8       ?Remove@?$ListArray@VExternalStatistics@details@Concurrency@@@details@Concurrency@@QEAA_NPEAVExternalStatistics@23@H_N@Z 00000001400bcfd8 f i libconcrt:SchedulerBase.obj
 0001:000bc16c       ?Remove@?$ListArray@VScheduleGroupBase@details@Concurrency@@@details@Concurrency@@QEAA_NPEAVScheduleGroupBase@23@H_N@Z 00000001400bd16c f i libconcrt:SchedulerBase.obj
 0001:000bc2c8       ?RemoveHead@?$SafeRWList@VWaitNode@SchedulerBase@details@Concurrency@@VNoCount@CollectionTypes@34@V_ReaderWriterLock@34@@details@Concurrency@@QEAAPEAVWaitNode@SchedulerBase@23@XZ 00000001400bd2c8 f i libconcrt:SchedulerBase.obj
 0001:000bc32c       ?RemovePrioritizedObject@SchedulerBase@details@Concurrency@@QEAAXPEAUBoostedObject@23@@Z 00000001400bd32c f   libconcrt:SchedulerBase.obj
 0001:000bc3ac       ?RemoveScheduleGroup@SchedulerBase@details@Concurrency@@QEAAXPEAVScheduleGroupBase@23@@Z 00000001400bd3ac f   libconcrt:SchedulerBase.obj
 0001:000bc3c0       ?RemoveSegments@FairScheduleGroup@details@Concurrency@@MEAAXXZ 00000001400bd3c0 f i libconcrt:SchedulerBase.obj
 0001:000bc3dc       ?RemoveVirtualProcessors@SchedulerBase@details@Concurrency@@IEAAXPEAPEAUIVirtualProcessorRoot@3@I@Z 00000001400bd3dc f   libconcrt:SchedulerBase.obj
 0001:000bc4f0       ?Resurrect@SchedulerBase@details@Concurrency@@AEAAXXZ 00000001400bd4f0 f   libconcrt:SchedulerBase.obj
 0001:000bc560       ?ReturnSubAllocator@SchedulerBase@details@Concurrency@@SAXPEAVSubAllocator@23@@Z 00000001400bd560 f   libconcrt:SchedulerBase.obj
 0001:000bc5d0       ?SafeFastCurrentContext@SchedulerBase@details@Concurrency@@SAPEAVContextBase@23@XZ 00000001400bd5d0 f   libconcrt:SchedulerBase.obj
 0001:000bc5ec       ?SafeReference@SchedulerBase@details@Concurrency@@AEAA_NXZ 00000001400bd5ec f   libconcrt:SchedulerBase.obj
 0001:000bc610       ?ScheduleTask@SchedulerBase@details@Concurrency@@UEAAXP6AXPEAX@Z0@Z 00000001400bd610 f   libconcrt:SchedulerBase.obj
 0001:000bc688       ?ScheduleTask@SchedulerBase@details@Concurrency@@UEAAXP6AXPEAX@Z0AEAVlocation@3@@Z 00000001400bd688 f   libconcrt:SchedulerBase.obj
 0001:000bc70c       ?SetNextSchedulingRing@SchedulerBase@details@Concurrency@@QEAAXPEAVSchedulingRing@23@@Z 00000001400bd70c f   libconcrt:SchedulerBase.obj
 0001:000bc740       ?StartupNewVirtualProcessor@SchedulerBase@details@Concurrency@@UEAAXPEAVScheduleGroupSegmentBase@23@Vlocation@3@@Z 00000001400bd740 f i libconcrt:SchedulerBase.obj
 0001:000bc77c       ?StartupVirtualProcessor@SchedulerBase@details@Concurrency@@QEAA_NPEAVScheduleGroupSegmentBase@23@Vlocation@3@K@Z 00000001400bd77c f   libconcrt:SchedulerBase.obj
 0001:000bc814       ?StaticDestruction@SchedulerBase@details@Concurrency@@CAXXZ 00000001400bd814 f   libconcrt:SchedulerBase.obj
 0001:000bc8bc       ?Statistics@SchedulerBase@details@Concurrency@@IEAAXPEAI00@Z 00000001400bd8bc f   libconcrt:SchedulerBase.obj
 0001:000bcb00       ?SweepSchedulerForFinalize@SchedulerBase@details@Concurrency@@AEAAXXZ 00000001400bdb00 f   libconcrt:SchedulerBase.obj
 0001:000bcbd4       ?ThrottlerDispatch@SchedulerBase@details@Concurrency@@AEAAXXZ 00000001400bdbd4 f   libconcrt:SchedulerBase.obj
 0001:000bcd0c       ?ThrottlerDispatchBridge@SchedulerBase@details@Concurrency@@CAXPEAU_TP_CALLBACK_INSTANCE@@PEAXPEAU_TP_TIMER@@@Z 00000001400bdd0c f i libconcrt:SchedulerBase.obj
 0001:000bcd14       ?ThrottlerDispatchBridgeXP@SchedulerBase@details@Concurrency@@CAXPEAXE@Z 00000001400bdd14 f i libconcrt:SchedulerBase.obj
 0001:000bcd1c       ?ThrottlerTrampoline@SchedulerBase@details@Concurrency@@CAXPEAXE@Z 00000001400bdd1c f   libconcrt:SchedulerBase.obj
 0001:000bcd64       ?ThrottlingTime@SchedulerBase@details@Concurrency@@QEAAKK@Z 00000001400bdd64 f   libconcrt:SchedulerBase.obj
 0001:000bce34       ?ThrowSchedulerEvent@SchedulerBase@details@Concurrency@@CAXW4ConcRT_EventType@3@EI@Z 00000001400bde34 f   libconcrt:SchedulerBase.obj
 0001:000bcea8       ?TriggerCommitSafePoints@SchedulerBase@details@Concurrency@@QEAAXPEAVSafePointMarker@23@@Z 00000001400bdea8 f   libconcrt:SchedulerBase.obj
 0001:000bcf08       ?TypeOfWorkPending@SchedulerBase@details@Concurrency@@MEAA?AW4PendingWorkType@123@XZ 00000001400bdf08 f   libconcrt:SchedulerBase.obj
 0001:000bcf50       ?UpdateCommitVersion@SchedulerBase@details@Concurrency@@AEAAKK@Z 00000001400bdf50 f   libconcrt:SchedulerBase.obj
 0001:000bcf9c       ?UpdatePendingVersion@SchedulerBase@details@Concurrency@@AEAAKXZ 00000001400bdf9c f   libconcrt:SchedulerBase.obj
 0001:000bcfe0       ?VirtualProcessorActive@SchedulerBase@details@Concurrency@@QEAA_N_N@Z 00000001400bdfe0 f   libconcrt:SchedulerBase.obj
 0001:000bd0cc       ?VirtualProcessorIdle@SchedulerBase@details@Concurrency@@QEAAX_N@Z 00000001400be0cc f   libconcrt:SchedulerBase.obj
 0001:000bd140       ?Wipe@?$Hash@II@details@Concurrency@@QEAAXXZ 00000001400be140 f i libconcrt:SchedulerBase.obj
 0001:000bd1c0       ??0context_self_unblock@Concurrency@@QEAA@XZ 00000001400be1c0 f   libconcrt:Exceptions.obj
 0001:000bd1d8       ??0context_unblock_unbalanced@Concurrency@@QEAA@XZ 00000001400be1d8 f   libconcrt:Exceptions.obj
 0001:000bd1f0       ??0improper_lock@Concurrency@@QEAA@PEBD@Z 00000001400be1f0 f   libconcrt:Exceptions.obj
 0001:000bd238       ??0improper_scheduler_attach@Concurrency@@QEAA@XZ 00000001400be238 f   libconcrt:Exceptions.obj
 0001:000bd250       ??0improper_scheduler_reference@Concurrency@@QEAA@XZ 00000001400be250 f   libconcrt:Exceptions.obj
 0001:000bd268       ??0invalid_oversubscribe_operation@Concurrency@@QEAA@XZ 00000001400be268 f   libconcrt:Exceptions.obj
 0001:000bd280       ??0invalid_scheduler_policy_key@Concurrency@@QEAA@PEBD@Z 00000001400be280 f   libconcrt:Exceptions.obj
 0001:000bd2c8       ??0invalid_scheduler_policy_thread_specification@Concurrency@@QEAA@XZ 00000001400be2c8 f   libconcrt:Exceptions.obj
 0001:000bd2e0       ??0invalid_scheduler_policy_value@Concurrency@@QEAA@PEBD@Z 00000001400be2e0 f   libconcrt:Exceptions.obj
 0001:000bd328       ??0missing_wait@Concurrency@@QEAA@XZ 00000001400be328 f   libconcrt:Exceptions.obj
 0001:000bd340       ??0nested_scheduler_missing_detach@Concurrency@@QEAA@XZ 00000001400be340 f   libconcrt:Exceptions.obj
 0001:000bd358       ??0scheduler_resource_allocation_error@Concurrency@@QEAA@J@Z 00000001400be358 f   libconcrt:Exceptions.obj
 0001:000bd370       ??0scheduler_worker_creation_error@Concurrency@@QEAA@J@Z 00000001400be370 f   libconcrt:Exceptions.obj
 0001:000bd388       ??0unsupported_os@Concurrency@@QEAA@XZ 00000001400be388 f   libconcrt:Exceptions.obj
 0001:000bd3a0       ??0ContextBase@details@Concurrency@@QEAA@PEAVSchedulerBase@12@_N@Z 00000001400be3a0 f   libconcrt:ContextBase.obj
 0001:000bd4e4       ??1?$Hash@PEAV_TaskCollection@details@Concurrency@@PEAV123@@details@Concurrency@@QEAA@XZ 00000001400be4e4 f i libconcrt:ContextBase.obj
 0001:000bd500       ??1?$StructuredWorkStealingQueue@V_UnrealizedChore@details@Concurrency@@V_CriticalNonReentrantLock@23@@details@Concurrency@@QEAA@XZ 00000001400be500 f i libconcrt:ContextBase.obj
 0001:000bd520       ??1?$WorkStealingQueue@V_UnrealizedChore@details@Concurrency@@V_CriticalNonReentrantLock@23@@details@Concurrency@@QEAA@XZ 00000001400be520 f i libconcrt:ContextBase.obj
 0001:000bd540       ??1CancellationBeaconStack@ContextBase@details@Concurrency@@QEAA@XZ 00000001400be540 f i libconcrt:ContextBase.obj
 0001:000bd5a0       ??1Context@Concurrency@@MEAA@XZ 00000001400be5a0 f i libconcrt:ContextBase.obj
 0001:000bd5ac       ??1ContextBase@details@Concurrency@@UEAA@XZ 00000001400be5ac f i libconcrt:ContextBase.obj
 0001:000bd638       ??1_Scoped_lock_read@?$SafeRWList@UListEntry@details@Concurrency@@VNoCount@CollectionTypes@23@V_ReaderWriterLock@23@@details@Concurrency@@QEAA@XZ 00000001400be638 f i libconcrt:ContextBase.obj
 0001:000bd650       ??_GContext@Concurrency@@MEAAPEAXI@Z 00000001400be650 f i libconcrt:ContextBase.obj
 0001:000bd650       ??_EContext@Concurrency@@MEAAPEAXI@Z 00000001400be650 f i libconcrt:ContextBase.obj
 0001:000bd67c       ??_EContextBase@details@Concurrency@@UEAAPEAXI@Z 00000001400be67c f i libconcrt:ContextBase.obj
 0001:000bd67c       ??_GContextBase@details@Concurrency@@UEAAPEAXI@Z 00000001400be67c f i libconcrt:ContextBase.obj
 0001:000bd6b0       ?Add@?$ListArray@VWorkQueue@details@Concurrency@@@details@Concurrency@@QEAAHPEAVWorkQueue@23@@Z 00000001400be6b0 f i libconcrt:ContextBase.obj
 0001:000bd834       ?AddStealer@ContextBase@details@Concurrency@@QEAAXPEAV123@_N@Z 00000001400be834 f   libconcrt:ContextBase.obj
 0001:000bd884       ?AddTail@?$SafeRWList@UListEntry@details@Concurrency@@VNoCount@CollectionTypes@23@V_ReaderWriterLock@23@@details@Concurrency@@QEAAXPEAUListEntry@23@@Z 00000001400be884 f i libconcrt:ContextBase.obj
 0001:000bd8f0       ?CancelCollection@ContextBase@details@Concurrency@@QEAAXH@Z 00000001400be8f0 f   libconcrt:ContextBase.obj
 0001:000bd960       ?CancelCollectionComplete@ContextBase@details@Concurrency@@QEAA_NH@Z 00000001400be960 f   libconcrt:ContextBase.obj
 0001:000bd99c       ?CancelStealers@ContextBase@details@Concurrency@@QEAAXPEAV_TaskCollectionBase@23@@Z 00000001400be99c f   libconcrt:ContextBase.obj
 0001:000bdaa8       ?CheckForDeletion@?$ListArray@VWorkQueue@details@Concurrency@@@details@Concurrency@@AEAAXXZ 00000001400beaa8 f i libconcrt:ContextBase.obj
 0001:000bdb38       ?CheckForDeletionBridge@?$ListArray@VWorkQueue@details@Concurrency@@@details@Concurrency@@CAXPEAV123@@Z 00000001400beb38 f i libconcrt:ContextBase.obj
 0001:000bdb40       ?Claim@Slot@?$Mailbox@V_UnrealizedChore@details@Concurrency@@@details@Concurrency@@QEAA_NPEAPEAV_UnrealizedChore@34@@Z 00000001400beb40 f i libconcrt:ContextBase.obj
 0001:000bdbb0       ?Cleanup@ContextBase@details@Concurrency@@QEAAXXZ 00000001400bebb0 f   libconcrt:ContextBase.obj
 0001:000bdc0c       ?ClearAliasTable@ContextBase@details@Concurrency@@QEAAXXZ 00000001400bec0c f   libconcrt:ContextBase.obj
 0001:000bdcc8       ?ClearContextTls@ContextBase@details@Concurrency@@AEAAXXZ 00000001400becc8 f   libconcrt:ContextBase.obj
 0001:000bdcd8       ?CreateWorkQueue@ContextBase@details@Concurrency@@QEAAXXZ 00000001400becd8 f   libconcrt:ContextBase.obj
 0001:000bdd7c       ?DetachStealers@ContextBase@details@Concurrency@@QEAAXXZ 00000001400bed7c f   libconcrt:ContextBase.obj
 0001:000bdf50       ?EnterCriticalRegionHelper@ContextBase@details@Concurrency@@UEAAHXZ 00000001400bef50 f i libconcrt:ContextBase.obj
 0001:000bdf5c       ?EnterHyperCriticalRegionHelper@ContextBase@details@Concurrency@@UEAAHXZ 00000001400bef5c f i libconcrt:ContextBase.obj
 0001:000bdf68       ?ExitCriticalRegionHelper@ContextBase@details@Concurrency@@UEAAHXZ 00000001400bef68 f i libconcrt:ContextBase.obj
 0001:000bdf74       ?ExitHyperCriticalRegionHelper@ContextBase@details@Concurrency@@UEAAHXZ 00000001400bef74 f i libconcrt:ContextBase.obj
 0001:000bdf80       ?FindAndDelete@?$Hash@PEAV_TaskCollection@details@Concurrency@@PEAV123@@details@Concurrency@@QEAA_NAEBQEAV_TaskCollection@23@PEAPEAV423@@Z 00000001400bef80 f i libconcrt:ContextBase.obj
 0001:000be030       ?FlagCancellationBeacons@ContextBase@details@Concurrency@@QEAAXH@Z 00000001400bf030 f   libconcrt:ContextBase.obj
 0001:000be0a8       ?GetCriticalRegionType@ContextBase@details@Concurrency@@UEBA?AW4CriticalRegionType@3@XZ 00000001400bf0a8 f i libconcrt:ContextBase.obj
 0001:000be0bc       ?GetId@ContextBase@details@Concurrency@@UEBAIXZ 00000001400bf0bc f   libconcrt:ContextBase.obj
 0001:000be0c0       ?GetIndirectAlias@ContextBase@details@Concurrency@@QEBAPEAV_TaskCollection@23@XZ 00000001400bf0c0 f   libconcrt:ContextBase.obj
 0001:000be0c8       ?GetScheduleGroup@ContextBase@details@Concurrency@@QEBAPEAVScheduleGroupBase@23@XZ 00000001400bf0c8 f   libconcrt:ContextBase.obj
 0001:000be0dc       ?GetScheduleGroupId@ContextBase@details@Concurrency@@UEBAIXZ 00000001400bf0dc f   libconcrt:ContextBase.obj
 0001:000be100       ?GetScheduleGroupSegment@ContextBase@details@Concurrency@@QEBAPEAVScheduleGroupSegmentBase@23@XZ 00000001400bf100 f   libconcrt:ContextBase.obj
 0001:000be108       ?GetScheduler@ContextBase@details@Concurrency@@QEBAPEAVSchedulerBase@23@XZ 00000001400bf108 f   libconcrt:ContextBase.obj
 0001:000be110       ?IsCanceledAtDepth@ContextBase@details@Concurrency@@AEAA_NPEAV_TaskCollectionBase@23@H@Z 00000001400bf110 f   libconcrt:ContextBase.obj
 0001:000be220       ?Pop@?$WorkStealingQueue@V_UnrealizedChore@details@Concurrency@@V_CriticalNonReentrantLock@23@@details@Concurrency@@QEAAPEAV_UnrealizedChore@23@XZ 00000001400bf220 f i libconcrt:ContextBase.obj
 0001:000be2d4       ?PopContextFromTls@ContextBase@details@Concurrency@@AEAAPEAV123@XZ 00000001400bf2d4 f   libconcrt:ContextBase.obj
 0001:000be308       ?PushContextToTls@ContextBase@details@Concurrency@@AEAAXPEAV123@@Z 00000001400bf308 f   libconcrt:ContextBase.obj
 0001:000be31c       ?RecomputeMaximumCancellationDepth@ContextBase@details@Concurrency@@AEAAXXZ 00000001400bf31c f   libconcrt:ContextBase.obj
 0001:000be3c0       ?ReferenceForCancellation@ContextBase@details@Concurrency@@QEAAXXZ 00000001400bf3c0 f   libconcrt:ContextBase.obj
 0001:000be3c8       ?ReleaseWorkQueue@ContextBase@details@Concurrency@@IEAAXXZ 00000001400bf3c8 f   libconcrt:ContextBase.obj
 0001:000be488       ?Remove@?$ListArray@VWorkQueue@details@Concurrency@@@details@Concurrency@@QEAA_NPEAVWorkQueue@23@H_N@Z 00000001400bf488 f i libconcrt:ContextBase.obj
 0001:000be5c8       ?RemoveStealer@ContextBase@details@Concurrency@@QEAAXPEAV123@@Z 00000001400bf5c8 f   libconcrt:ContextBase.obj
 0001:000be640       ?SetAsCurrentTls@ContextBase@details@Concurrency@@IEAAXXZ 00000001400bf640 f   libconcrt:ContextBase.obj
 0001:000be650       ?StaticDelete@Segment@?$Mailbox@VInternalContextBase@details@Concurrency@@@details@Concurrency@@SAXPEAU1234@@Z 00000001400bf650 f i libconcrt:VirtualProcessor.obj
 0001:000be650       ?StaticDelete@Segment@?$Mailbox@V_UnrealizedChore@details@Concurrency@@@details@Concurrency@@SAXPEAU1234@@Z 00000001400bf650 f i libconcrt:ContextBase.obj
 0001:000be684       ?StaticExitHyperCriticalRegion@ContextBase@details@Concurrency@@SAXXZ 00000001400bf684 f   libconcrt:ContextBase.obj
 0001:000be684       ?StaticExitCriticalRegion@ContextBase@details@Concurrency@@SAXXZ 00000001400bf684 f   libconcrt:ContextBase.obj
 0001:000be684       ?StaticEnterCriticalRegion@ContextBase@details@Concurrency@@SAXXZ 00000001400bf684 f   libconcrt:ContextBase.obj
 0001:000be684       ?StaticEnterHyperCriticalRegion@ContextBase@details@Concurrency@@SAXXZ 00000001400bf684 f   libconcrt:ContextBase.obj
 0001:000be68c       ?SweepAliasTable@ContextBase@details@Concurrency@@QEAAXXZ 00000001400bf68c f   libconcrt:ContextBase.obj
 0001:000be790       ?SweepUnstructured@ContextBase@details@Concurrency@@QEAAXP6A_NPEAV_UnrealizedChore@23@PEAX@Z12@Z 00000001400bf790 f   libconcrt:ContextBase.obj
 0001:000be79c       ?SyncPop@?$WorkStealingQueue@V_UnrealizedChore@details@Concurrency@@V_CriticalNonReentrantLock@23@@details@Concurrency@@AEAAPEAV_UnrealizedChore@23@XZ 00000001400bf79c f i libconcrt:ContextBase.obj
 0001:000be888       ?ThrowContextEvent@ContextBase@details@Concurrency@@KAXW4ConcRT_EventType@3@EKK@Z 00000001400bf888 f   libconcrt:ContextBase.obj
 0001:000be900       ?TryPop@?$WorkStealingQueue@V_UnrealizedChore@details@Concurrency@@V_CriticalNonReentrantLock@23@@details@Concurrency@@QEAAPEAV_UnrealizedChore@23@H@Z 00000001400bf900 f i libconcrt:ContextBase.obj
 0001:000be9c4       ?TryPopUnstructured@ContextBase@details@Concurrency@@QEAAPEAV_UnrealizedChore@23@H@Z 00000001400bf9c4 f   libconcrt:ContextBase.obj
 0001:000be9d4       ?Wipe@?$Hash@PEAV_TaskCollection@details@Concurrency@@PEAV123@@details@Concurrency@@QEAAXXZ 00000001400bf9d4 f i libconcrt:ContextBase.obj
 0001:000bea54       ??0CancellationTokenRegistration_TaskProc@details@Concurrency@@QEAA@P6AXPEAX@Z0H@Z 00000001400bfa54 f i libconcrt:TaskCollection.obj
 0001:000beadc       ??0_Interruption_exception@details@Concurrency@@QEAA@AEBV012@@Z 00000001400bfadc f i libconcrt:TaskCollection.obj
 0001:000beb18       ??0_Interruption_exception@details@Concurrency@@QEAA@XZ 00000001400bfb18 f i libconcrt:TaskCollection.obj
 0001:000beb30       ??0_TaskCollection@details@Concurrency@@AEAA@PEAV012@_N@Z 00000001400bfb30 f   libconcrt:TaskCollection.obj
 0001:000becac       ??0missing_wait@Concurrency@@QEAA@AEBV01@@Z 00000001400bfcac f i libconcrt:TaskCollection.obj
 0001:000bece8       ??1?$_MallocaArrayHolder@PEAVevent@Concurrency@@@details@Concurrency@@UEAA@XZ 00000001400bfce8 f i libconcrt:TaskCollection.obj
 0001:000bed18       ??1_TaskCollection@details@Concurrency@@QEAA@XZ 00000001400bfd18 f   libconcrt:TaskCollection.obj
 0001:000bee24       ??_G?$_MallocaArrayHolder@PEAVevent@Concurrency@@@details@Concurrency@@UEAAPEAXI@Z 00000001400bfe24 f i libconcrt:TaskCollection.obj
 0001:000bee24       ??_E?$_MallocaArrayHolder@PEAVevent@Concurrency@@@details@Concurrency@@UEAAPEAXI@Z 00000001400bfe24 f i libconcrt:TaskCollection.obj
 0001:000bee78       ??_GCancellationTokenRegistration_TaskProc@details@Concurrency@@UEAAPEAXI@Z 00000001400bfe78 f i libconcrt:TaskCollection.obj
 0001:000bee78       ??_ECancellationTokenRegistration_TaskProc@details@Concurrency@@UEAAPEAXI@Z 00000001400bfe78 f i libconcrt:TaskCollection.obj
 0001:000beed0       ?Find@?$Hash@PEAV_TaskCollection@details@Concurrency@@PEAV123@@details@Concurrency@@QEAAPEAUListNode@123@AEBQEAV_TaskCollection@23@PEAPEAV523@@Z 00000001400bfed0 f i libconcrt:TaskCollection.obj
 0001:000bef50       ?GetArbitraryAlias@ContextBase@details@Concurrency@@QEAAPEAV_TaskCollection@23@PEAV423@@Z 00000001400bff50 f i libconcrt:TaskCollection.obj
 0001:000befd4       ?Insert@?$Hash@PEAV_TaskCollection@details@Concurrency@@PEAV123@@details@Concurrency@@QEAAPEAUListNode@123@AEBQEAV_TaskCollection@23@0@Z 00000001400bffd4 f i libconcrt:TaskCollection.obj
 0001:000bf0b0       ?_Abort@_TaskCollection@details@Concurrency@@AEAAX_N@Z 00000001400c00b0 f   libconcrt:TaskCollection.obj
 0001:000bf25c       ?_AbortiveSweep@_TaskCollection@details@Concurrency@@AEAAXPEAX@Z 00000001400c025c f   libconcrt:TaskCollection.obj
 0001:000bf2b8       ?_Alias@_TaskCollection@details@Concurrency@@AEAAPEAV123@XZ 00000001400c02b8 f   libconcrt:TaskCollection.obj
 0001:000bf3a8       ?_Cancel@_StructuredTaskCollection@details@Concurrency@@QEAAXXZ 00000001400c03a8 f   libconcrt:TaskCollection.obj
 0001:000bf430       ?_Cancel@_TaskCollection@details@Concurrency@@AEAAX_NPEAV123@@Z 00000001400c0430 f   libconcrt:TaskCollection.obj
 0001:000bf518       ?_CancelDirectAliases@_TaskCollection@details@Concurrency@@AEAAX_NPEAV123@@Z 00000001400c0518 f   libconcrt:TaskCollection.obj
 0001:000bf550       ?_CancelFromArbitraryThread@_TaskCollection@details@Concurrency@@AEAAX_N@Z 00000001400c0550 f   libconcrt:TaskCollection.obj
 0001:000bf614       ?_CancelStolenContexts@_TaskCollection@details@Concurrency@@AEAAX_N0@Z 00000001400c0614 f   libconcrt:TaskCollection.obj
 0001:000bf6c8       ?_CollectionMatchPredicate@_TaskCollection@details@Concurrency@@CA_NPEAV_UnrealizedChore@23@PEAX@Z 00000001400c06c8 f   libconcrt:TaskCollection.obj
 0001:000bf6d4       ?_CountUp@_StructuredTaskCollection@details@Concurrency@@AEAAXXZ 00000001400c06d4 f   libconcrt:TaskCollection.obj
 0001:000bf704       ?_Exec@CancellationTokenRegistration_TaskProc@details@Concurrency@@MEAAXXZ 00000001400c0704 f i libconcrt:TaskCollection.obj
 0001:000bf71c       ?_FullAliasWait@_TaskCollection@details@Concurrency@@AEAAXPEAV123@@Z 00000001400c071c f   libconcrt:TaskCollection.obj
 0001:000bf8a4       ?_GetStealTrackingList@_TaskCollection@details@Concurrency@@AEBAPEAXXZ 00000001400c08a4 f   libconcrt:TaskCollection.obj
 0001:000bf8ac       ?_Initialize@_StructuredTaskCollection@details@Concurrency@@AEAAXXZ 00000001400c08ac f   libconcrt:TaskCollection.obj
 0001:000bf908       ?_IsMarkedForAbnormalExit@_TaskCollection@details@Concurrency@@QEBA_NXZ 00000001400c0908 f   libconcrt:TaskCollection.obj
 0001:000bf918       ?_IsStaleAlias@_TaskCollection@details@Concurrency@@AEBA_NXZ 00000001400c0918 f   libconcrt:TaskCollection.obj
 0001:000bf924       ?_NotifyCompletedChoreAndFree@_TaskCollection@details@Concurrency@@AEAAXPEAV_UnrealizedChore@23@@Z 00000001400c0924 f   libconcrt:TaskCollection.obj
 0001:000bf98c       ?_OriginalCollection@_TaskCollection@details@Concurrency@@QEBAPEAV123@XZ 00000001400c098c f   libconcrt:TaskCollection.obj
 0001:000bf994       ?_RegisterCallback@_CancellationTokenState@details@Concurrency@@QEAAPEAV_CancellationTokenRegistration@23@P6AXPEAX@Z0H@Z 00000001400c0994 f i libconcrt:TaskCollection.obj
 0001:000bfa0c       ?_ReleaseAlias@_TaskCollection@details@Concurrency@@AEAAXXZ 00000001400c0a0c f   libconcrt:TaskCollection.obj
 0001:000bfa48       ?_Reset@_TaskCollection@details@Concurrency@@AEAAXPEAV123@@Z 00000001400c0a48 f   libconcrt:TaskCollection.obj
 0001:000bfb78       ?_SetCancelState@_TaskCollection@details@Concurrency@@AEAA_NJ@Z 00000001400c0b78 f   libconcrt:TaskCollection.obj
 0001:000bfba4       ?_SweepAbortedChore@_TaskCollection@details@Concurrency@@CA_NPEAV_UnrealizedChore@23@PEAX@Z 00000001400c0ba4 f   libconcrt:TaskCollection.obj
 0001:000bfbc4       ?_TaskCleanup@_TaskCollection@details@Concurrency@@AEAA_N_N@Z 00000001400c0bc4 f   libconcrt:TaskCollection.obj
 0001:000bfc60       ??0SchedulerPolicy@Concurrency@@QEAA@AEBV01@@Z 00000001400c0c60 f   libconcrt:SchedulerPolicyBase.obj
 0001:000bfca8       ??0SchedulerPolicy@Concurrency@@QEAA@_KZZ 00000001400c0ca8 f   libconcrt:SchedulerPolicyBase.obj
 0001:000bfcdc       ??0invalid_scheduler_policy_key@Concurrency@@QEAA@AEBV01@@Z 00000001400c0cdc f i libconcrt:SchedulerPolicyBase.obj
 0001:000bfd18       ??0invalid_scheduler_policy_thread_specification@Concurrency@@QEAA@AEBV01@@Z 00000001400c0d18 f i libconcrt:SchedulerPolicyBase.obj
 0001:000bfd54       ??0invalid_scheduler_policy_value@Concurrency@@QEAA@AEBV01@@Z 00000001400c0d54 f i libconcrt:SchedulerPolicyBase.obj
 0001:000bfd90       ??1SchedulerPolicy@Concurrency@@QEAA@XZ 00000001400c0d90 f   libconcrt:SchedulerPolicyBase.obj
 0001:000bfda0       ??4SchedulerPolicy@Concurrency@@QEAAAEAV01@AEBV01@@Z 00000001400c0da0 f   libconcrt:SchedulerPolicyBase.obj
 0001:000bfdc4       ?GetPolicyValue@SchedulerPolicy@Concurrency@@QEBAIW4PolicyElementKey@2@@Z 00000001400c0dc4 f   libconcrt:SchedulerPolicyBase.obj
 0001:000bfe04       ?_Initialize@SchedulerPolicy@Concurrency@@AEAAX_KPEAPEAD@Z 00000001400c0e04 f   libconcrt:SchedulerPolicyBase.obj
 0001:000bff38       ?_ResolvePolicyValues@SchedulerPolicy@Concurrency@@AEAAXXZ 00000001400c0f38 f   libconcrt:SchedulerPolicyBase.obj
 0001:000bff9c       ?_StringFromPolicyKey@SchedulerPolicy@Concurrency@@CAPEBDI@Z 00000001400c0f9c f   libconcrt:SchedulerPolicyBase.obj
 0001:000bffb4       ?_ValidPolicyValue@SchedulerPolicy@Concurrency@@CA_NW4PolicyElementKey@2@I@Z 00000001400c0fb4 f   libconcrt:SchedulerPolicyBase.obj
 0001:000c0060       ?_ValidateConcRTPolicy@SchedulerPolicy@Concurrency@@QEBAXXZ 00000001400c1060 f   libconcrt:SchedulerPolicyBase.obj
 0001:000c00cc       ??0ExecutionResource@details@Concurrency@@QEAA@PEAVSchedulerProxy@12@PEAUSchedulerNode@12@I@Z 00000001400c10cc f   libconcrt:ExecutionResource.obj
 0001:000c0130       ??0ExecutionResource@details@Concurrency@@QEAA@PEAVSchedulerProxy@12@PEAV012@@Z 00000001400c1130 f   libconcrt:ExecutionResource.obj
 0001:000c017c       ?CurrentSubscriptionLevel@ExecutionResource@details@Concurrency@@UEBAIXZ 00000001400c117c f   libconcrt:ExecutionResource.obj
 0001:000c0190       ?DecrementUseCounts@ExecutionResource@details@Concurrency@@QEAAXXZ 00000001400c1190 f   libconcrt:ExecutionResource.obj
 0001:000c021c       ?GetExecutionResourceId@ExecutionResource@details@Concurrency@@UEBAIXZ 00000001400c121c f i libconcrt:ExecutionResource.obj
 0001:000c0220       ?GetNodeId@ExecutionResource@details@Concurrency@@UEBAIXZ 00000001400c1220 f i libconcrt:ExecutionResource.obj
 0001:000c0224       ?IncrementUseCounts@ExecutionResource@details@Concurrency@@QEAAXXZ 00000001400c1224 f   libconcrt:ExecutionResource.obj
 0001:000c031c       ?Remove@ExecutionResource@details@Concurrency@@UEAAXPEAUIScheduler@3@@Z 00000001400c131c f   libconcrt:ExecutionResource.obj
 0001:000c03bc       ?ResetCurrent@ExecutionResource@details@Concurrency@@QEAAXXZ 00000001400c13bc f   libconcrt:ExecutionResource.obj
 0001:000c03e8       ?SetAsCurrent@ExecutionResource@details@Concurrency@@QEAAXXZ 00000001400c13e8 f   libconcrt:ExecutionResource.obj
 0001:000c0424       ??$sign@N@details@Concurrency@@YANN@Z 00000001400c1424 f i libconcrt:HillClimbing.obj
 0001:000c044c       ??0HillClimbing@details@Concurrency@@QEAA@IIPEAVSchedulerProxy@12@@Z 00000001400c144c f   libconcrt:HillClimbing.obj
 0001:000c04c0       ?CalculateThroughputSlope@HillClimbing@details@Concurrency@@AEAANHH@Z 00000001400c14c0 f   libconcrt:HillClimbing.obj
 0001:000c0630       ?CoefficientOfVariationMean@MeasuredHistory@HillClimbing@details@Concurrency@@QEAANXZ 00000001400c1630 f   libconcrt:HillClimbing.obj
 0001:000c0690       ?EstablishControlSetting@HillClimbing@details@Concurrency@@AEAAXI@Z 00000001400c1690 f   libconcrt:HillClimbing.obj
 0001:000c06d4       ?FlushHistories@HillClimbing@details@Concurrency@@AEAAXXZ 00000001400c16d4 f   libconcrt:HillClimbing.obj
 0001:000c071c       ?IsStableHistory@HillClimbing@details@Concurrency@@AEAA_NPEAVMeasuredHistory@123@@Z 00000001400c171c f   libconcrt:HillClimbing.obj
 0001:000c0750       ?RecommendControlSetting@HillClimbing@details@Concurrency@@AEAAII@Z 00000001400c1750 f   libconcrt:HillClimbing.obj
 0001:000c07dc       ?Update@HillClimbing@details@Concurrency@@QEAAIIIII@Z 00000001400c17dc f   libconcrt:HillClimbing.obj
 0001:000c0a38       ?Variance@MeasuredHistory@HillClimbing@details@Concurrency@@QEAANXZ 00000001400c1a38 f   libconcrt:HillClimbing.obj
 0001:000c0a8c       ??0SchedulerProxy@details@Concurrency@@QEAA@PEAUIScheduler@2@PEAVResourceManager@12@AEBVSchedulerPolicy@2@@Z 00000001400c1a8c f   libconcrt:SchedulerProxy.obj
 0001:000c0d14       ??1SchedulerProxy@details@Concurrency@@IEAA@XZ 00000001400c1d14 f   libconcrt:SchedulerProxy.obj
 0001:000c0d54       ?AddCore@SchedulerProxy@details@Concurrency@@QEAAXPEAUSchedulerNode@23@I_N@Z 00000001400c1d54 f   libconcrt:SchedulerProxy.obj
 0001:000c0e60       ?AddExecutionResource@SchedulerProxy@details@Concurrency@@QEAAXPEAVExecutionResource@23@@Z 00000001400c1e60 f   libconcrt:SchedulerProxy.obj
 0001:000c0ef8       ?AddThreadSubscription@SchedulerProxy@details@Concurrency@@QEAAXPEAVExecutionResource@23@@Z 00000001400c1ef8 f   libconcrt:SchedulerProxy.obj
 0001:000c0f50       ?AddVirtualProcessorRoots@SchedulerProxy@details@Concurrency@@QEAAXPEAPEAUIVirtualProcessorRoot@3@I@Z 00000001400c1f50 f   libconcrt:SchedulerProxy.obj
 0001:000c1048       ?AdjustAllocationIncrease@SchedulerProxy@details@Concurrency@@QEBAII@Z 00000001400c2048 f   libconcrt:SchedulerProxy.obj
 0001:000c10d0       ?BindContext@SchedulerProxy@details@Concurrency@@UEAAXPEAUIExecutionContext@3@@Z 00000001400c20d0 f   libconcrt:SchedulerProxy.obj
 0001:000c113c       ?Cleanup@SchedulerProxy@details@Concurrency@@IEAAXXZ 00000001400c213c f   libconcrt:SchedulerProxy.obj
 0001:000c120c       ?CreateExternalThreadResource@SchedulerProxy@details@Concurrency@@QEAAPEAVExecutionResource@23@PEAUSchedulerNode@23@I@Z 00000001400c220c f   libconcrt:SchedulerProxy.obj
 0001:000c1274       ?CreateOversubscriber@SchedulerProxy@details@Concurrency@@UEAAPEAUIVirtualProcessorRoot@3@PEAUIExecutionResource@3@@Z 00000001400c2274 f   libconcrt:SchedulerProxy.obj
 0001:000c1398       ?CreateVirtualProcessorRoot@SchedulerProxy@details@Concurrency@@UEAAPEAVVirtualProcessorRoot@23@PEAUSchedulerNode@23@I@Z 00000001400c2398 f   libconcrt:SchedulerProxy.obj
 0001:000c13e8       ?DecrementCoreSubscription@SchedulerProxy@details@Concurrency@@QEAAXPEAVExecutionResource@23@@Z 00000001400c23e8 f   libconcrt:SchedulerProxy.obj
 0001:000c1440       ?DecrementFixedCoreCount@SchedulerProxy@details@Concurrency@@QEAAXII_N@Z 00000001400c2440 f   libconcrt:SchedulerProxy.obj
 0001:000c14ec       ?DeleteThis@SchedulerProxy@details@Concurrency@@MEAAXXZ 00000001400c24ec f i libconcrt:SchedulerProxy.obj
 0001:000c1514       ?DestroyExecutionResource@SchedulerProxy@details@Concurrency@@QEAAXPEAVExecutionResource@23@@Z 00000001400c2514 f   libconcrt:SchedulerProxy.obj
 0001:000c160c       ?DestroyVirtualProcessorRoot@SchedulerProxy@details@Concurrency@@QEAAXPEAVVirtualProcessorRoot@23@@Z 00000001400c260c f   libconcrt:SchedulerProxy.obj
 0001:000c16d8       ?FinalShutdown@SchedulerProxy@details@Concurrency@@UEAAXXZ 00000001400c26d8 f   libconcrt:SchedulerProxy.obj
 0001:000c16fc       ?GetCurrentThreadExecutionResource@SchedulerProxy@details@Concurrency@@QEAAPEAVExecutionResource@23@XZ 00000001400c26fc f   libconcrt:SchedulerProxy.obj
 0001:000c1728       ?GetNewThreadProxy@SchedulerProxy@details@Concurrency@@UEAAPEAUIThreadProxy@3@PEAUIExecutionContext@3@@Z 00000001400c2728 f   libconcrt:SchedulerProxy.obj
 0001:000c1790       ?GetResourceForNewSubscription@SchedulerProxy@details@Concurrency@@QEAAPEAVExecutionResource@23@PEAV423@@Z 00000001400c2790 f   libconcrt:SchedulerProxy.obj
 0001:000c17f4       ?GrantAllocation@SchedulerProxy@details@Concurrency@@QEAAPEAVExecutionResource@23@I_N0@Z 00000001400c27f4 f   libconcrt:SchedulerProxy.obj
 0001:000c1c04       ?IncrementCoreSubscription@SchedulerProxy@details@Concurrency@@QEAAXPEAVExecutionResource@23@@Z 00000001400c2c04 f   libconcrt:SchedulerProxy.obj
 0001:000c1c60       ?IncrementFixedCoreCount@SchedulerProxy@details@Concurrency@@QEAAXII_N@Z 00000001400c2c60 f   libconcrt:SchedulerProxy.obj
 0001:000c1d10       ?ReferenceCurrentThreadExecutionResource@SchedulerProxy@details@Concurrency@@QEAAPEAVExecutionResource@23@XZ 00000001400c2d10 f   libconcrt:SchedulerProxy.obj
 0001:000c1de8       ?RemoveCore@SchedulerProxy@details@Concurrency@@QEAAXPEAUSchedulerNode@23@I@Z 00000001400c2de8 f   libconcrt:SchedulerProxy.obj
 0001:000c1ee0       ?RemoveThreadSubscription@SchedulerProxy@details@Concurrency@@QEAAXPEAVExecutionResource@23@@Z 00000001400c2ee0 f   libconcrt:SchedulerProxy.obj
 0001:000c1f3c       ?RequestInitialVirtualProcessors@SchedulerProxy@details@Concurrency@@UEAAPEAUIExecutionResource@3@_N@Z 00000001400c2f3c f   libconcrt:SchedulerProxy.obj
 0001:000c1f4c       ?SendCoreNotification@SchedulerProxy@details@Concurrency@@QEAAXPEAUSchedulerCore@23@_N@Z 00000001400c2f4c f   libconcrt:SchedulerProxy.obj
 0001:000c2054       ?Shutdown@SchedulerProxy@details@Concurrency@@UEAAXXZ 00000001400c3054 f   libconcrt:SchedulerProxy.obj
 0001:000c2060       ?SubscribeCurrentThread@SchedulerProxy@details@Concurrency@@UEAAPEAUIExecutionResource@3@XZ 00000001400c3060 f   libconcrt:SchedulerProxy.obj
 0001:000c206c       ?ToggleBorrowedState@SchedulerProxy@details@Concurrency@@QEAAXPEAUSchedulerNode@23@I@Z 00000001400c306c f   libconcrt:SchedulerProxy.obj
 0001:000c20ac       ?UnbindContext@SchedulerProxy@details@Concurrency@@UEAAXPEAUIExecutionContext@3@@Z 00000001400c30ac f   libconcrt:SchedulerProxy.obj
 0001:000c20f4       ?Initialize@UMS@details@Concurrency@@SAXXZ 00000001400c30f4 f   libconcrt:UMSWrapper.obj
 0001:000c2770       ?Initialize@WinRT@details@Concurrency@@SAXXZ 00000001400c3770 f   libconcrt:WinRTWrapper.obj
 0001:000c289c       ?RoInitialize@WinRT@details@Concurrency@@SAJW4RO_INIT_TYPE@@@Z 00000001400c389c f   libconcrt:WinRTWrapper.obj
 0001:000c28c0       ?RoUninitialize@WinRT@details@Concurrency@@SAXXZ 00000001400c38c0 f   libconcrt:WinRTWrapper.obj
 0001:000c28dc       ??0?$ThreadProxyFactory@VFreeThreadProxy@details@Concurrency@@@details@Concurrency@@IEAA@PEAVThreadProxyFactoryManager@12@@Z 00000001400c38dc f i libconcrt:ThreadProxyFactoryManager.obj
 0001:000c2930       ??0ThreadProxyFactoryManager@details@Concurrency@@QEAA@XZ 00000001400c3930 f   libconcrt:ThreadProxyFactoryManager.obj
 0001:000c2964       ??1IThreadProxyFactory@details@Concurrency@@UEAA@XZ 00000001400c3964 f i libconcrt:ThreadProxyFactoryManager.obj
 0001:000c2970       ??1ThreadProxyFactoryManager@details@Concurrency@@QEAA@XZ 00000001400c3970 f   libconcrt:ThreadProxyFactoryManager.obj
 0001:000c29bc       ??_G?$ThreadProxyFactory@VFreeThreadProxy@details@Concurrency@@@details@Concurrency@@UEAAPEAXI@Z 00000001400c39bc f i libconcrt:ThreadProxyFactoryManager.obj
 0001:000c29bc       ??_E?$ThreadProxyFactory@VFreeThreadProxy@details@Concurrency@@@details@Concurrency@@UEAAPEAXI@Z 00000001400c39bc f i libconcrt:ThreadProxyFactoryManager.obj
 0001:000c29e8       ??_GFreeThreadProxy@details@Concurrency@@UEAAPEAXI@Z 00000001400c39e8 f i libconcrt:ThreadProxyFactoryManager.obj
 0001:000c29e8       ??_EFreeThreadProxy@details@Concurrency@@UEAAPEAXI@Z 00000001400c39e8 f i libconcrt:ThreadProxyFactoryManager.obj
 0001:000c2a28       ??_EFreeThreadProxyFactory@details@Concurrency@@UEAAPEAXI@Z 00000001400c3a28 f i libconcrt:ThreadProxyFactoryManager.obj
 0001:000c2a28       ??_GFreeThreadProxyFactory@details@Concurrency@@UEAAPEAXI@Z 00000001400c3a28 f i libconcrt:ThreadProxyFactoryManager.obj
 0001:000c2a54       ??_GIThreadProxyFactory@details@Concurrency@@UEAAPEAXI@Z 00000001400c3a54 f i libconcrt:ThreadProxyFactoryManager.obj
 0001:000c2a54       ??_EIThreadProxyFactory@details@Concurrency@@UEAAPEAXI@Z 00000001400c3a54 f i libconcrt:ThreadProxyFactoryManager.obj
 0001:000c2a80       ?Create@FreeThreadProxyFactory@details@Concurrency@@EEAAPEAVFreeThreadProxy@23@I@Z 00000001400c3a80 f i libconcrt:ThreadProxyFactoryManager.obj
 0001:000c2af8       ?CreateFactory@FreeThreadProxyFactory@details@Concurrency@@SAPEAV123@PEAVThreadProxyFactoryManager@23@@Z 00000001400c3af8 f i libconcrt:ThreadProxyFactoryManager.obj
 0001:000c2b68       ?GetExecutionResourceTls@?$ThreadProxyFactory@VFreeThreadProxy@details@Concurrency@@@details@Concurrency@@UEAAKXZ 00000001400c3b68 f i libconcrt:ThreadProxyFactoryManager.obj
 0001:000c2b6c       ?GetFreeThreadProxyFactory@ThreadProxyFactoryManager@details@Concurrency@@QEAAPEAVFreeThreadProxyFactory@23@XZ 00000001400c3b6c f   libconcrt:ThreadProxyFactoryManager.obj
 0001:000c2bbc       ?Prepare@?$ThreadProxyFactory@VFreeThreadProxy@details@Concurrency@@@details@Concurrency@@MEAAXPEAVFreeThreadProxy@23@H@Z 00000001400c3bbc f i libconcrt:ThreadProxyFactoryManager.obj
 0001:000c2bdc       ?ReclaimProxy@?$ThreadProxyFactory@VFreeThreadProxy@details@Concurrency@@@details@Concurrency@@UEAAXPEAUIThreadProxy@3@@Z 00000001400c3bdc f i libconcrt:ThreadProxyFactoryManager.obj
 0001:000c2c6c       ?ReclaimProxy@FreeThreadProxyFactory@details@Concurrency@@UEAAXPEAUIThreadProxy@3@@Z 00000001400c3c6c f i libconcrt:ThreadProxyFactoryManager.obj
 0001:000c2d48       ?Reference@FreeThreadProxyFactory@details@Concurrency@@UEAAJXZ 00000001400c3d48 f i libconcrt:ThreadProxyFactoryManager.obj
 0001:000c2d58       ?Release@FreeThreadProxyFactory@details@Concurrency@@UEAAJXZ 00000001400c3d58 f i libconcrt:ThreadProxyFactoryManager.obj
 0001:000c2d88       ?RequestProxy@?$ThreadProxyFactory@VFreeThreadProxy@details@Concurrency@@@details@Concurrency@@UEAAPEAUIThreadProxy@3@IH@Z 00000001400c3d88 f i libconcrt:ThreadProxyFactoryManager.obj
 0001:000c2e38       ?Retire@FreeThreadProxyFactory@details@Concurrency@@EEAAXPEAVFreeThreadProxy@23@@Z 00000001400c3e38 f i libconcrt:ThreadProxyFactoryManager.obj
 0001:000c2e40       ?RetireThreadProxies@?$ThreadProxyFactory@VFreeThreadProxy@details@Concurrency@@@details@Concurrency@@QEAAXXZ 00000001400c3e40 f i libconcrt:ThreadProxyFactoryManager.obj
 0001:000c2ebc       ?ShutdownFactory@FreeThreadProxyFactory@details@Concurrency@@UEAAXXZ 00000001400c3ebc f i libconcrt:ThreadProxyFactoryManager.obj
 0001:000c2ee4       ?YieldToSystem@FreeThreadProxy@details@Concurrency@@UEAAXXZ 00000001400c3ee4 f i libconcrt:ThreadProxyFactoryManager.obj
 0001:000c2eec       ??0Etw@details@Concurrency@@AEAA@XZ 00000001400c3eec f   libconcrt:Trace.obj
 0001:000c2ff4       ?ControlCallback@details@Concurrency@@YAKW4WMIDPREQUESTCODE@@PEAXPEAK1@Z 00000001400c3ff4 f   libconcrt:Trace.obj
 0001:000c30bc       ?GetEnableFlags@Etw@details@Concurrency@@QEAAK_K@Z 00000001400c40bc f   libconcrt:Trace.obj
 0001:000c3108       ?GetEnableLevel@Etw@details@Concurrency@@QEAAE_K@Z 00000001400c4108 f   libconcrt:Trace.obj
 0001:000c3154       ?GetLoggerHandle@Etw@details@Concurrency@@QEAA_KPEAX@Z 00000001400c4154 f   libconcrt:Trace.obj
 0001:000c31a0       ?RegisterGuids@Etw@details@Concurrency@@QEAAKP6AKW4WMIDPREQUESTCODE@@PEAXPEAK1@ZPEBU_GUID@@KPEAU_TRACE_GUID_REGISTRATION@@PEA_K@Z 00000001400c41a0 f   libconcrt:Trace.obj
 0001:000c3228       ?Trace@Etw@details@Concurrency@@QEAAK_KPEAU_EVENT_TRACE_HEADER@@@Z 00000001400c4228 f   libconcrt:Trace.obj
 0001:000c327c       ?UnregisterGuids@Etw@details@Concurrency@@QEAAK_K@Z 00000001400c427c f   libconcrt:Trace.obj
 0001:000c32c0       ?_RegisterConcRTEventTracing@details@Concurrency@@YAXXZ 00000001400c42c0 f   libconcrt:Trace.obj
 0001:000c3378       ?_UnregisterConcRTEventTracing@details@Concurrency@@YAXXZ 00000001400c4378 f   libconcrt:Trace.obj
 0001:000c33c4       ??0?$StructuredWorkStealingQueue@V_UnrealizedChore@details@Concurrency@@V_CriticalNonReentrantLock@23@@details@Concurrency@@QEAA@PEAV_CriticalNonReentrantLock@12@@Z 00000001400c43c4 f i libconcrt:WorkQueue.obj
 0001:000c33c4       ??0?$StructuredWorkStealingQueue@VInternalContextBase@details@Concurrency@@V_HyperNonReentrantLock@23@@details@Concurrency@@QEAA@PEAV_HyperNonReentrantLock@12@@Z 00000001400c43c4 f i libconcrt:VirtualProcessor.obj
 0001:000c3440       ??0VirtualProcessor@details@Concurrency@@QEAA@XZ 00000001400c4440 f   libconcrt:VirtualProcessor.obj
 0001:000c34b4       ??1VirtualProcessor@details@Concurrency@@UEAA@XZ 00000001400c44b4 f   libconcrt:VirtualProcessor.obj
 0001:000c3504       ??_EVirtualProcessor@details@Concurrency@@UEAAPEAXI@Z 00000001400c4504 f i libconcrt:VirtualProcessor.obj
 0001:000c3504       ??_GVirtualProcessor@details@Concurrency@@UEAAPEAXI@Z 00000001400c4504 f i libconcrt:VirtualProcessor.obj
 0001:000c3538       ?Affinitize@VirtualProcessor@details@Concurrency@@MEAAXPEAVInternalContextBase@23@@Z 00000001400c4538 f   libconcrt:VirtualProcessor.obj
 0001:000c3598       ?CheckAffinityNotification@VirtualProcessor@details@Concurrency@@QEAA_NXZ 00000001400c4598 f   libconcrt:VirtualProcessor.obj
 0001:000c35f0       ?CheckForDeletion@?$ListArray@VVirtualProcessor@details@Concurrency@@@details@Concurrency@@AEAAXXZ 00000001400c45f0 f i libconcrt:VirtualProcessor.obj
 0001:000c3654       ?CheckForDeletionBridge@?$ListArray@VVirtualProcessor@details@Concurrency@@@details@Concurrency@@CAXPEAV123@@Z 00000001400c4654 f i libconcrt:VirtualProcessor.obj
 0001:000c365c       ?ClaimExclusiveOwnership@VirtualProcessor@details@Concurrency@@QEAA_NAEAVClaimTicket@123@K_N@Z 00000001400c465c f   libconcrt:VirtualProcessor.obj
 0001:000c36dc       ?Deactivate@VirtualProcessor@details@Concurrency@@QEAA_NPEAUIExecutionContext@3@@Z 00000001400c46dc f   libconcrt:VirtualProcessor.obj
 0001:000c36f4       ?EnsureAllTasksVisible@VirtualProcessor@details@Concurrency@@QEAAXPEAUIExecutionContext@3@@Z 00000001400c46f4 f   libconcrt:VirtualProcessor.obj
 0001:000c370c       ?ExerciseClaim@VirtualProcessor@details@Concurrency@@AEAA_NW4AvailabilityType@123@PEAVScheduleGroupSegmentBase@23@PEAVInternalContextBase@23@@Z 00000001400c470c f   libconcrt:VirtualProcessor.obj
 0001:000c37dc       ?ExerciseWith@ClaimTicket@VirtualProcessor@details@Concurrency@@QEAA_NPEAVInternalContextBase@34@@Z 00000001400c47dc f   libconcrt:VirtualProcessor.obj
 0001:000c3810       ?GetCurrentSubAllocator@VirtualProcessor@details@Concurrency@@QEAAPEAVSubAllocator@23@XZ 00000001400c4810 f   libconcrt:VirtualProcessor.obj
 0001:000c383c       ?Initialize@VirtualProcessor@details@Concurrency@@MEAAXPEAVSchedulingNode@23@PEAUIVirtualProcessorRoot@3@@Z 00000001400c483c f   libconcrt:VirtualProcessor.obj
 0001:000c3a80       ?InterlockedClear@ReferenceCountedQuickBitSet@details@Concurrency@@QEAAII@Z 00000001400c4a80 f i libconcrt:VirtualProcessor.obj
 0001:000c3b1c       ?InterlockedSet@ReferenceCountedQuickBitSet@details@Concurrency@@QEAAII@Z 00000001400c4b1c f i libconcrt:VirtualProcessor.obj
 0001:000c3bb8       ?MakeAvailable@VirtualProcessor@details@Concurrency@@IEAAXW4AvailabilityType@123@_N@Z 00000001400c4bb8 f   libconcrt:VirtualProcessor.obj
 0001:000c3c38       ?MarkForRetirement@VirtualProcessor@details@Concurrency@@AEAAXXZ 00000001400c4c38 f   libconcrt:VirtualProcessor.obj
 0001:000c3d1c       ?Oversubscribe@VirtualProcessor@details@Concurrency@@EEAAPEAV123@XZ 00000001400c4d1c f   libconcrt:VirtualProcessor.obj
 0001:000c3d5c       ?Pop@?$StructuredWorkStealingQueue@VInternalContextBase@details@Concurrency@@V_HyperNonReentrantLock@23@@details@Concurrency@@QEAAPEAVInternalContextBase@23@XZ 00000001400c4d5c f i libconcrt:VirtualProcessor.obj
 0001:000c3e08       ?Remove@?$ListArray@VVirtualProcessor@details@Concurrency@@@details@Concurrency@@QEAA_NPEAVVirtualProcessor@23@H_N@Z 00000001400c4e08 f i libconcrt:VirtualProcessor.obj
 0001:000c3f48       ?Retire@VirtualProcessor@details@Concurrency@@MEAAXXZ 00000001400c4f48 f   libconcrt:VirtualProcessor.obj
 0001:000c4120       ?SafePoint@VirtualProcessor@details@Concurrency@@QEAA_NXZ 00000001400c5120 f   libconcrt:VirtualProcessor.obj
 0001:000c4134       ?StartupWorkerContext@VirtualProcessor@details@Concurrency@@EEAA_NPEAVScheduleGroupSegmentBase@23@PEAVInternalContextBase@23@@Z 00000001400c5134 f   libconcrt:VirtualProcessor.obj
 0001:000c4218       ?ThrowVirtualProcessorEvent@VirtualProcessor@details@Concurrency@@CAXW4ConcRT_EventType@3@EKK@Z 00000001400c5218 f   libconcrt:VirtualProcessor.obj
 0001:000c4290       ?UpdateWorkState@VirtualProcessor@details@Concurrency@@QEAAX_N0@Z 00000001400c5290 f   libconcrt:VirtualProcessor.obj
 0001:000c4344       ?Wipe@QuickBitSet@details@Concurrency@@QEAAXXZ 00000001400c5344 f i libconcrt:VirtualProcessor.obj
 0001:000c43e0       ??0SchedulingNode@details@Concurrency@@QEAA@AEBVQuickBitSet@12@KPEAVSchedulingRing@12@@Z 00000001400c53e0 f   libconcrt:SchedulingNode.obj
 0001:000c449c       ??1?$ListArray@VVirtualProcessor@details@Concurrency@@@details@Concurrency@@QEAA@XZ 00000001400c549c f i libconcrt:SchedulingNode.obj
 0001:000c45c4       ??1SchedulingNode@details@Concurrency@@QEAA@XZ 00000001400c55c4 f   libconcrt:SchedulingNode.obj
 0001:000c4600       ?Add@?$ListArray@VVirtualProcessor@details@Concurrency@@@details@Concurrency@@QEAAHPEAVVirtualProcessor@23@@Z 00000001400c5600 f i libconcrt:SchedulingNode.obj
 0001:000c4784       ?AddVirtualProcessor@SchedulingNode@details@Concurrency@@QEAAPEAVVirtualProcessor@23@PEAUIVirtualProcessorRoot@3@_N@Z 00000001400c5784 f   libconcrt:SchedulingNode.obj
 0001:000c48d8       ?DeferToAffineSearchers@Slot@?$Mailbox@V_UnrealizedChore@details@Concurrency@@@details@Concurrency@@QEBA_NXZ 00000001400c58d8 f i libconcrt:WorkQueue.obj
 0001:000c48d8       ?DeferToAffineSearchers@Slot@?$Mailbox@VInternalContextBase@details@Concurrency@@@details@Concurrency@@QEBA_NXZ 00000001400c58d8 f i libconcrt:SchedulingNode.obj
 0001:000c496c       ?FindMatchingVirtualProcessor@SchedulingNode@details@Concurrency@@QEAAPEAVVirtualProcessor@23@PEAUIVirtualProcessorRoot@3@@Z 00000001400c596c f   libconcrt:SchedulingNode.obj
 0001:000c4a04       ?FindVirtualProcessorByLocation@SchedulingNode@details@Concurrency@@QEAAPEAVVirtualProcessor@23@PEBVlocation@3@@Z 00000001400c5a04 f   libconcrt:SchedulingNode.obj
 0001:000c4ac0       ?FoundAvailableVirtualProcessor@SchedulingNode@details@Concurrency@@AEAA_NAEAVClaimTicket@VirtualProcessor@23@Vlocation@3@K@Z 00000001400c5ac0 f   libconcrt:SchedulingNode.obj
 0001:000c4bb4       ?GetLocation@SchedulingNode@details@Concurrency@@QEAA?AVlocation@3@XZ 00000001400c5bb4 f   libconcrt:SchedulingNode.obj
 0001:000c4bfc       ?UnlockedSteal@?$StructuredWorkStealingQueue@V_UnrealizedChore@details@Concurrency@@V_CriticalNonReentrantLock@23@@details@Concurrency@@QEAAPEAV_UnrealizedChore@23@_N@Z 00000001400c5bfc f i libconcrt:WorkQueue.obj
 0001:000c4bfc       ?UnlockedSteal@?$StructuredWorkStealingQueue@VInternalContextBase@details@Concurrency@@V_HyperNonReentrantLock@23@@details@Concurrency@@QEAAPEAVInternalContextBase@23@_N@Z 00000001400c5bfc f i libconcrt:SchedulingNode.obj
 0001:000c4d08       ??0AllocatorBucket@details@Concurrency@@QEAA@XZ 00000001400c5d08 f   libconcrt:SubAllocator.obj
 0001:000c4d28       ??1AllocatorBucket@details@Concurrency@@QEAA@XZ 00000001400c5d28 f   libconcrt:SubAllocator.obj
 0001:000c4d5c       ?Alloc@AllocatorBucket@details@Concurrency@@QEAAPEATAllocationEntry@23@XZ 00000001400c5d5c f   libconcrt:SubAllocator.obj
 0001:000c4d84       ?Alloc@SubAllocator@details@Concurrency@@QEAAPEAX_K@Z 00000001400c5d84 f   libconcrt:SubAllocator.obj
 0001:000c4df8       ?Free@AllocatorBucket@details@Concurrency@@QEAA_NPEATAllocationEntry@23@@Z 00000001400c5df8 f   libconcrt:SubAllocator.obj
 0001:000c4e28       ?Free@SubAllocator@details@Concurrency@@QEAAXPEAX@Z 00000001400c5e28 f   libconcrt:SubAllocator.obj
 0001:000c4e74       ?GetBucketIndex@SubAllocator@details@Concurrency@@SAH_K@Z 00000001400c5e74 f   libconcrt:SubAllocator.obj
 0001:000c4ec8       ?StaticAlloc@SubAllocator@details@Concurrency@@SAPEAX_K@Z 00000001400c5ec8 f   libconcrt:SubAllocator.obj
 0001:000c4f18       ??0InternalContextBase@details@Concurrency@@QEAA@PEAVSchedulerBase@12@@Z 00000001400c5f18 f   libconcrt:InternalContextBase.obj
 0001:000c4fa8       ??0context_self_unblock@Concurrency@@QEAA@AEBV01@@Z 00000001400c5fa8 f i libconcrt:InternalContextBase.obj
 0001:000c4fe4       ??0context_unblock_unbalanced@Concurrency@@QEAA@AEBV01@@Z 00000001400c5fe4 f i libconcrt:InternalContextBase.obj
 0001:000c5020       ??0invalid_oversubscribe_operation@Concurrency@@QEAA@AEBV01@@Z 00000001400c6020 f i libconcrt:InternalContextBase.obj
 0001:000c505c       ??0nested_scheduler_missing_detach@Concurrency@@QEAA@AEBV01@@Z 00000001400c605c f i libconcrt:InternalContextBase.obj
 0001:000c5098       ??1InternalContextBase@details@Concurrency@@UEAA@XZ 00000001400c6098 f   libconcrt:InternalContextBase.obj
 0001:000c50c8       ??1ScopedCriticalRegion@ContextBase@details@Concurrency@@QEAA@XZ 00000001400c60c8 f i libconcrt:InternalContextBase.obj
 0001:000c50dc       ??_EInternalContextBase@details@Concurrency@@WBA@EAAPEAXI@Z 00000001400c60dc f i libconcrt:InternalContextBase.obj
 0001:000c50e8       ??_GInternalContextBase@details@Concurrency@@UEAAPEAXI@Z 00000001400c60e8 f i libconcrt:InternalContextBase.obj
 0001:000c50e8       ??_EInternalContextBase@details@Concurrency@@UEAAPEAXI@Z 00000001400c60e8 f i libconcrt:InternalContextBase.obj
 0001:000c511c       ?AddToRunnables@InternalContextBase@details@Concurrency@@MEAAXVlocation@3@@Z 00000001400c611c f   libconcrt:InternalContextBase.obj
 0001:000c5344       ?Alloc@InternalContextBase@details@Concurrency@@UEAAPEAX_K@Z 00000001400c6344 f   libconcrt:InternalContextBase.obj
 0001:000c53ac       ?Block@InternalContextBase@details@Concurrency@@UEAAXXZ 00000001400c63ac f   libconcrt:InternalContextBase.obj
 0001:000c5570       ?Cancel@InternalContextBase@details@Concurrency@@MEAAXXZ 00000001400c6570 f   libconcrt:InternalContextBase.obj
 0001:000c5604       ?Cleanup@InternalContextBase@details@Concurrency@@IEAAXXZ 00000001400c6604 f   libconcrt:InternalContextBase.obj
 0001:000c5628       ?CleanupDispatchedContextOnCancel@InternalContextBase@details@Concurrency@@IEAAXXZ 00000001400c6628 f   libconcrt:InternalContextBase.obj
 0001:000c5650       ?Dispatch@InternalContextBase@details@Concurrency@@UEAAXPEAUDispatchState@3@@Z 00000001400c6650 f   libconcrt:InternalContextBase.obj
 0001:000c581c       ?ExecuteChoreInline@InternalContextBase@details@Concurrency@@IEAAXPEAVWorkItem@23@@Z 00000001400c681c f   libconcrt:InternalContextBase.obj
 0001:000c5874       ?ExecutedAssociatedChore@InternalContextBase@details@Concurrency@@IEAA_NXZ 00000001400c6874 f   libconcrt:InternalContextBase.obj
 0001:000c5904       ?FindWorkForBlockingOrNesting@InternalContextBase@details@Concurrency@@AEAAPEAV123@AEA_N0@Z 00000001400c6904 f   libconcrt:InternalContextBase.obj
 0001:000c5a84       ?Free@InternalContextBase@details@Concurrency@@UEAAXPEAX@Z 00000001400c6a84 f   libconcrt:InternalContextBase.obj
 0001:000c5ac4       ?GetAndResetOversubscribedVProc@InternalContextBase@details@Concurrency@@QEAAPEAVVirtualProcessor@23@PEAV423@@Z 00000001400c6ac4 f   libconcrt:InternalContextBase.obj
 0001:000c5aec       ?GetId@InternalContextBase@details@Concurrency@@WBA@EBAIXZ 00000001400c6aec f i libconcrt:InternalContextBase.obj
 0001:000c5af8       ?GetProxy@InternalContextBase@details@Concurrency@@UEAAPEAUIThreadProxy@3@XZ 00000001400c6af8 f   libconcrt:InternalContextBase.obj
 0001:000c5b00       ?GetScheduler@InternalContextBase@details@Concurrency@@UEAAPEAUIScheduler@3@XZ 00000001400c6b00 f   libconcrt:InternalContextBase.obj
 0001:000c5b14       ?GetVirtualProcessorId@InternalContextBase@details@Concurrency@@UEBAIXZ 00000001400c6b14 f   libconcrt:InternalContextBase.obj
 0001:000c5b5c       ?GrowAndPush@?$StructuredWorkStealingQueue@VInternalContextBase@details@Concurrency@@V_HyperNonReentrantLock@23@@details@Concurrency@@AEAAXPEAVInternalContextBase@23@VSlot@?$Mailbox@VInternalContextBase@details@Concurrency@@@23@@Z 00000001400c6b5c f i libconcrt:InternalContextBase.obj
 0001:000c5d0c       ?IsSynchronouslyBlocked@InternalContextBase@details@Concurrency@@UEBA_NXZ 00000001400c6d0c f i libconcrt:InternalContextBase.obj
 0001:000c5d18       ?IsVirtualProcessorRetired@InternalContextBase@details@Concurrency@@IEAA_NXZ 00000001400c6d18 f   libconcrt:InternalContextBase.obj
 0001:000c5d88       ?LeaveScheduler@InternalContextBase@details@Concurrency@@AEAAXXZ 00000001400c6d88 f   libconcrt:InternalContextBase.obj
 0001:000c5ec0       ?Oversubscribe@InternalContextBase@details@Concurrency@@UEAAX_N@Z 00000001400c6ec0 f   libconcrt:InternalContextBase.obj
 0001:000c5f5c       ?PrepareForUse@InternalContextBase@details@Concurrency@@QEAAXPEAVScheduleGroupSegmentBase@23@PEAU_Chore@23@_N@Z 00000001400c6f5c f   libconcrt:InternalContextBase.obj
 0001:000c5fb0       ?PrepareToRun@InternalContextBase@details@Concurrency@@MEAAXPEAVVirtualProcessor@23@@Z 00000001400c6fb0 f i libconcrt:InternalContextBase.obj
 0001:000c5fc0       ?ReclaimVirtualProcessor@InternalContextBase@details@Concurrency@@IEAAXXZ 00000001400c6fc0 f   libconcrt:InternalContextBase.obj
 0001:000c6028       ?RejoinScheduler@InternalContextBase@details@Concurrency@@AEAAXXZ 00000001400c7028 f   libconcrt:InternalContextBase.obj
 0001:000c6060       ?RemoveFromUse@InternalContextBase@details@Concurrency@@QEAAXXZ 00000001400c7060 f   libconcrt:InternalContextBase.obj
 0001:000c6094       ?SetProxy@InternalContextBase@details@Concurrency@@UEAAXPEAUIThreadProxy@3@@Z 00000001400c7094 f   libconcrt:InternalContextBase.obj
 0001:000c60cc       ?SpinUntilBlocked@InternalContextBase@details@Concurrency@@IEAAXXZ 00000001400c70cc f   libconcrt:InternalContextBase.obj
 0001:000c6104       ?SpinYield@InternalContextBase@details@Concurrency@@UEAAXXZ 00000001400c7104 f   libconcrt:InternalContextBase.obj
 0001:000c61fc       ?SwapScheduleGroupSegment@InternalContextBase@details@Concurrency@@QEAAXPEAVScheduleGroupSegmentBase@23@_N@Z 00000001400c71fc f   libconcrt:InternalContextBase.obj
 0001:000c62bc       ?SwitchOut@InternalContextBase@details@Concurrency@@IEAA_NW4ReasonForSwitch@123@@Z 00000001400c72bc f   libconcrt:InternalContextBase.obj
 0001:000c6438       ?SwitchTo@InternalContextBase@details@Concurrency@@IEAAXPEAV123@W4ReasonForSwitch@123@@Z 00000001400c7438 f   libconcrt:InternalContextBase.obj
 0001:000c65fc       ?Unblock@InternalContextBase@details@Concurrency@@UEAAXXZ 00000001400c75fc f   libconcrt:InternalContextBase.obj
 0001:000c6730       ?WaitForWork@InternalContextBase@details@Concurrency@@IEAAXXZ 00000001400c7730 f   libconcrt:InternalContextBase.obj
 0001:000c6884       ?WorkWasFound@InternalContextBase@details@Concurrency@@IEAA_NPEAVWorkItem@23@@Z 00000001400c7884 f   libconcrt:InternalContextBase.obj
 0001:000c68f8       ?Yield@InternalContextBase@details@Concurrency@@UEAAXXZ 00000001400c78f8 f   libconcrt:InternalContextBase.obj
 0001:000c6ae0       ??0SchedulingRing@details@Concurrency@@QEAA@PEAVSchedulerBase@12@H@Z 00000001400c7ae0 f   libconcrt:SchedulingRing.obj
 0001:000c6b98       ??1?$ListArray@VScheduleGroupSegmentBase@details@Concurrency@@@details@Concurrency@@QEAA@XZ 00000001400c7b98 f i libconcrt:SchedulingRing.obj
 0001:000c6cc0       ??1SchedulingRing@details@Concurrency@@QEAA@XZ 00000001400c7cc0 f   libconcrt:SchedulingRing.obj
 0001:000c6ce8       ?Activate@SchedulingRing@details@Concurrency@@QEAAXXZ 00000001400c7ce8 f   libconcrt:SchedulingRing.obj
 0001:000c6cf4       ?CheckForDeletion@?$ListArray@VScheduleGroupSegmentBase@details@Concurrency@@@details@Concurrency@@AEAAXXZ 00000001400c7cf4 f i libconcrt:SchedulingRing.obj
 0001:000c6d58       ?CheckForDeletionBridge@?$ListArray@VScheduleGroupSegmentBase@details@Concurrency@@@details@Concurrency@@CAXPEAV123@@Z 00000001400c7d58 f i libconcrt:SchedulingRing.obj
 0001:000c6d60       ?Remove@?$ListArray@VScheduleGroupSegmentBase@details@Concurrency@@@details@Concurrency@@QEAA_NPEAVScheduleGroupSegmentBase@23@H_N@Z 00000001400c7d60 f i libconcrt:SchedulingRing.obj
 0001:000c6ea0       ?RemoveScheduleGroupSegment@SchedulingRing@details@Concurrency@@AEAAXPEAVScheduleGroupSegmentBase@23@@Z 00000001400c7ea0 f   libconcrt:SchedulingRing.obj
 0001:000c6ed0       ??0?$Mailbox@V_UnrealizedChore@details@Concurrency@@@details@Concurrency@@QEAA@PEAVSchedulerBase@12@AEBVQuickBitSet@12@_NI@Z 00000001400c7ed0 f i libconcrt:ScheduleGroupBase.obj
 0001:000c6fa4       ??0ScheduleGroupBase@details@Concurrency@@QEAA@PEAVSchedulerBase@12@PEAVlocation@2@@Z 00000001400c7fa4 f   libconcrt:ScheduleGroupBase.obj
 0001:000c702c       ??0ScheduleGroupSegmentBase@details@Concurrency@@IEAA@PEAVScheduleGroupBase@12@PEAVSchedulingRing@12@PEAVlocation@2@@Z 00000001400c802c f   libconcrt:ScheduleGroupBase.obj
 0001:000c712c       ??0Segment@?$Mailbox@V_UnrealizedChore@details@Concurrency@@@details@Concurrency@@QEAA@PEAVSchedulerBase@23@AEBVQuickBitSet@23@II@Z 00000001400c812c f i libconcrt:ScheduleGroupBase.obj
 0001:000c71ac       ??1?$ListArray@U?$ListArrayInlineLink@VWorkQueue@details@Concurrency@@@details@Concurrency@@@details@Concurrency@@QEAA@XZ 00000001400c81ac f i libconcrt:ScheduleGroupBase.obj
 0001:000c72a0       ??1?$ListArray@VWorkQueue@details@Concurrency@@@details@Concurrency@@QEAA@XZ 00000001400c82a0 f i libconcrt:ScheduleGroupBase.obj
 0001:000c745c       ??1?$Mailbox@V_UnrealizedChore@details@Concurrency@@@details@Concurrency@@QEAA@XZ 00000001400c845c f i libconcrt:ScheduleGroupBase.obj
 0001:000c74c8       ??1ScheduleGroupSegmentBase@details@Concurrency@@UEAA@XZ 00000001400c84c8 f   libconcrt:ScheduleGroupBase.obj
 0001:000c754c       ??_EScheduleGroupSegmentBase@details@Concurrency@@UEAAPEAXI@Z 00000001400c854c f i libconcrt:ScheduleGroupBase.obj
 0001:000c754c       ??_GScheduleGroupSegmentBase@details@Concurrency@@UEAAPEAXI@Z 00000001400c854c f i libconcrt:ScheduleGroupBase.obj
 0001:000c7580       ?Add@?$ListArray@VExternalStatistics@details@Concurrency@@@details@Concurrency@@QEAAHPEAVExternalStatistics@23@@Z 00000001400c8580 f i libconcrt:ScheduleGroupBase.obj
 0001:000c7580       ?Add@?$ListArray@U?$ListArrayInlineLink@VWorkQueue@details@Concurrency@@@details@Concurrency@@@details@Concurrency@@QEAAHPEAU?$ListArrayInlineLink@VWorkQueue@details@Concurrency@@@23@@Z 00000001400c8580 f i libconcrt:ScheduleGroupBase.obj
 0001:000c7700       ?Add@?$ListArray@VScheduleGroupSegmentBase@details@Concurrency@@@details@Concurrency@@QEAAHPEAVScheduleGroupSegmentBase@23@@Z 00000001400c8700 f i libconcrt:ScheduleGroupBase.obj
 0001:000c7884       ?AddRunnableContext@ScheduleGroupSegmentBase@details@Concurrency@@IEAAXPEAVInternalContextBase@23@Vlocation@3@@Z 00000001400c8884 f   libconcrt:ScheduleGroupBase.obj
 0001:000c79c0       ?CheckForDeletionBridge@?$ListArray@U?$ListArrayInlineLink@VWorkQueue@details@Concurrency@@@details@Concurrency@@@details@Concurrency@@CAXPEAV123@@Z 00000001400c89c0 f i libconcrt:ScheduleGroupBase.obj
 0001:000c7a14       ?CreateSegment@ScheduleGroupBase@details@Concurrency@@IEAAPEAVScheduleGroupSegmentBase@23@PEAVlocation@3@PEAVSchedulingRing@23@@Z 00000001400c8a14 f   libconcrt:ScheduleGroupBase.obj
 0001:000c7b04       ?DemandInitialize@?$Mailbox@V_UnrealizedChore@details@Concurrency@@@details@Concurrency@@AEAAXXZ 00000001400c8b04 f i libconcrt:ScheduleGroupBase.obj
 0001:000c7b8c       ?Dequeue@?$Mailbox@V_UnrealizedChore@details@Concurrency@@@details@Concurrency@@QEAA_NPEAPEAV_UnrealizedChore@23@@Z 00000001400c8b8c f i libconcrt:ScheduleGroupBase.obj
 0001:000c7c7c       ?DetachActiveWorkQueue@ScheduleGroupSegmentBase@details@Concurrency@@IEAAXPEAVWorkQueue@23@@Z 00000001400c8c7c f   libconcrt:ScheduleGroupBase.obj
 0001:000c7d04       ?FindSegment@ScheduleGroupBase@details@Concurrency@@MEAAPEAVScheduleGroupSegmentBase@23@PEAVlocation@3@PEAVSchedulingRing@23@@Z 00000001400c8d04 f   libconcrt:ScheduleGroupBase.obj
 0001:000c7d7c       ?GetDetachedWorkQueue@ScheduleGroupSegmentBase@details@Concurrency@@IEAAPEAVWorkQueue@23@XZ 00000001400c8d7c f   libconcrt:ScheduleGroupBase.obj
 0001:000c7e88       ?GetInternalContext@ScheduleGroupSegmentBase@details@Concurrency@@IEAAPEAVInternalContextBase@23@PEAU_Chore@23@_N@Z 00000001400c8e88 f   libconcrt:ScheduleGroupBase.obj
 0001:000c7ee8       ?GetRealizedChore@ScheduleGroupSegmentBase@details@Concurrency@@IEAAPEAVRealizedChore@23@XZ 00000001400c8ee8 f   libconcrt:ScheduleGroupBase.obj
 0001:000c7f48       ?HasRealizedChores@ScheduleGroupSegmentBase@details@Concurrency@@IEBA_NXZ 00000001400c8f48 f   libconcrt:ScheduleGroupBase.obj
 0001:000c7f54       ?HasUnrealizedChores@ScheduleGroupSegmentBase@details@Concurrency@@IEAA_NXZ 00000001400c8f54 f   libconcrt:ScheduleGroupBase.obj
 0001:000c7f68       ?Initialize@ScheduleGroupBase@details@Concurrency@@QEAAXPEAVlocation@3@@Z 00000001400c8f68 f   libconcrt:ScheduleGroupBase.obj
 0001:000c7fa4       ?Initialize@ScheduleGroupSegmentBase@details@Concurrency@@IEAAXPEAVScheduleGroupBase@23@PEAVSchedulingRing@23@PEAVlocation@3@@Z 00000001400c8fa4 f   libconcrt:ScheduleGroupBase.obj
 0001:000c80c4       ?LocateMailboxSegment@?$Mailbox@V_UnrealizedChore@details@Concurrency@@@details@Concurrency@@AEAAPEAUSegment@123@I_N@Z 00000001400c90c4 f i libconcrt:ScheduleGroupBase.obj
 0001:000c8174       ?LocateSegment@ScheduleGroupBase@details@Concurrency@@UEAAPEAVScheduleGroupSegmentBase@23@PEAVlocation@3@_N@Z 00000001400c9174 f   libconcrt:ScheduleGroupBase.obj
 0001:000c82f4       ?LocateUnrealizedChores@ScheduleGroupSegmentBase@details@Concurrency@@IEAAPEAVWorkQueue@23@XZ 00000001400c92f4 f   libconcrt:ScheduleGroupBase.obj
 0001:000c83dc       ?RedetachQueue@ScheduleGroupSegmentBase@details@Concurrency@@QEAAXPEAVWorkQueue@23@@Z 00000001400c93dc f   libconcrt:ScheduleGroupBase.obj
 0001:000c83ec       ?ReleaseInternalContext@ScheduleGroupSegmentBase@details@Concurrency@@IEAAXPEAVInternalContextBase@23@@Z 00000001400c93ec f   libconcrt:ScheduleGroupBase.obj
 0001:000c8424       ?Remove@?$ListArray@U?$ListArrayInlineLink@VWorkQueue@details@Concurrency@@@details@Concurrency@@@details@Concurrency@@QEAA_NPEAU?$ListArrayInlineLink@VWorkQueue@details@Concurrency@@@23@H_N@Z 00000001400c9424 f i libconcrt:ScheduleGroupBase.obj
 0001:000c8564       ?Remove@ScheduleGroupSegmentBase@details@Concurrency@@IEAAXXZ 00000001400c9564 f   libconcrt:ScheduleGroupBase.obj
 0001:000c8598       ?RemoveSegments@ScheduleGroupBase@details@Concurrency@@MEAAXXZ 00000001400c9598 f   libconcrt:ScheduleGroupBase.obj
 0001:000c85f4       ?RetireDetachedQueue@ScheduleGroupSegmentBase@details@Concurrency@@QEAAXPEAVWorkQueue@23@@Z 00000001400c95f4 f   libconcrt:ScheduleGroupBase.obj
 0001:000c8650       ?SafelyDeleteDetachedWorkQueue@ScheduleGroupSegmentBase@details@Concurrency@@IEAA_NPEAVWorkQueue@23@@Z 00000001400c9650 f   libconcrt:ScheduleGroupBase.obj
 0001:000c86b0       ?ScheduleTask@ScheduleGroupBase@details@Concurrency@@QEAAXP6AXPEAX@Z0AEAVlocation@3@@Z 00000001400c96b0 f   libconcrt:ScheduleGroupBase.obj
 0001:000c86ec       ?ScheduleTask@ScheduleGroupBase@details@Concurrency@@UEAAXP6AXPEAX@Z0@Z 00000001400c96ec f   libconcrt:ScheduleGroupBase.obj
 0001:000c8728       ?ScheduleTask@ScheduleGroupSegmentBase@details@Concurrency@@QEAAXP6AXPEAX@Z0@Z 00000001400c9728 f   libconcrt:ScheduleGroupBase.obj
 0001:000c88c4       ?StealUnrealizedChore@ScheduleGroupSegmentBase@details@Concurrency@@IEAAPEAV_UnrealizedChore@23@_N@Z 00000001400c98c4 f   libconcrt:ScheduleGroupBase.obj
 0001:000c8c10       ??IQuickBitSet@details@Concurrency@@QEBA?AV012@AEBV012@@Z 00000001400c9c10 f i libconcrt:CacheLocalScheduleGroup.obj
 0001:000c8cb4       ?AddToRunnablesCollection@CacheLocalScheduleGroupSegment@details@Concurrency@@EEAAXPEAVInternalContextBase@23@@Z 00000001400c9cb4 f   libconcrt:CacheLocalScheduleGroup.obj
 0001:000c8cb4       ?AddToRunnablesCollection@FairScheduleGroupSegment@details@Concurrency@@EEAAXPEAVInternalContextBase@23@@Z 00000001400c9cb4 f   libconcrt:FairScheduleGroup.obj
 0001:000c8d10       ?Enqueue@?$Mailbox@V_UnrealizedChore@details@Concurrency@@@details@Concurrency@@QEAA?AVSlot@123@PEAV_UnrealizedChore@23@@Z 00000001400c9d10 f i libconcrt:CacheLocalScheduleGroup.obj
 0001:000c8da0       ?MailChore@CacheLocalScheduleGroup@details@Concurrency@@UEAA?AVSlot@?$Mailbox@V_UnrealizedChore@details@Concurrency@@@23@PEAV_UnrealizedChore@23@PEAVlocation@3@PEAPEAVScheduleGroupSegmentBase@23@@Z 00000001400c9da0 f   libconcrt:CacheLocalScheduleGroup.obj
 0001:000c8de8       ?NotifyAffinitizedWork@CacheLocalScheduleGroupSegment@details@Concurrency@@UEAAXXZ 00000001400c9de8 f   libconcrt:CacheLocalScheduleGroup.obj
 0001:000c8e4c       ?PostAffinityMessage@SchedulerBase@details@Concurrency@@QEAAXAEBVQuickBitSet@23@@Z 00000001400c9e4c f i libconcrt:CacheLocalScheduleGroup.obj
 0001:000c8ef4       ?FindSegment@FairScheduleGroup@details@Concurrency@@MEAAPEAVScheduleGroupSegmentBase@23@PEAVlocation@3@PEAVSchedulingRing@23@@Z 00000001400c9ef4 f   libconcrt:FairScheduleGroup.obj
 0001:000c8f28       ?LocateSegment@FairScheduleGroup@details@Concurrency@@UEAAPEAVScheduleGroupSegmentBase@23@PEAVlocation@3@_N@Z 00000001400c9f28 f   libconcrt:FairScheduleGroup.obj
 0001:000c8fc8       ??0ExternalContextBase@details@Concurrency@@QEAA@PEAVSchedulerBase@12@_N@Z 00000001400c9fc8 f   libconcrt:ExternalContextBase.obj
 0001:000c9080       ??1ExternalContextBase@details@Concurrency@@UEAA@XZ 00000001400ca080 f   libconcrt:ExternalContextBase.obj
 0001:000c90a8       ??_EExternalContextBase@details@Concurrency@@UEAAPEAXI@Z 00000001400ca0a8 f i libconcrt:ExternalContextBase.obj
 0001:000c90a8       ??_GExternalContextBase@details@Concurrency@@UEAAPEAXI@Z 00000001400ca0a8 f i libconcrt:ExternalContextBase.obj
 0001:000c90dc       ?Alloc@ExternalContextBase@details@Concurrency@@UEAAPEAX_K@Z 00000001400ca0dc f   libconcrt:ExternalContextBase.obj
 0001:000c912c       ?Block@ExternalContextBase@details@Concurrency@@UEAAXXZ 00000001400ca12c f   libconcrt:ExternalContextBase.obj
 0001:000c91a8       ?Cleanup@ExternalContextBase@details@Concurrency@@AEAAXXZ 00000001400ca1a8 f   libconcrt:ExternalContextBase.obj
 0001:000c9210       ?Free@ExternalContextBase@details@Concurrency@@UEAAXPEAX@Z 00000001400ca210 f   libconcrt:ExternalContextBase.obj
 0001:000c9260       ?GetVirtualProcessorId@ExternalContextBase@details@Concurrency@@UEBAIXZ 00000001400ca260 f i libconcrt:ExternalContextBase.obj
 0001:000c9264       ?ImplicitDetachHandler@ExternalContextBase@details@Concurrency@@CAXPEAU_TP_CALLBACK_INSTANCE@@PEAXPEAU_TP_WAIT@@K@Z 00000001400ca264 f   libconcrt:ExternalContextBase.obj
 0001:000c9298       ?ImplicitDetachHandlerXP@ExternalContextBase@details@Concurrency@@CAXPEAXE@Z 00000001400ca298 f   libconcrt:ExternalContextBase.obj
 0001:000c92c4       ?IsSynchronouslyBlocked@ExternalContextBase@details@Concurrency@@UEBA_NXZ 00000001400ca2c4 f i libconcrt:ExternalContextBase.obj
 0001:000c92d0       ?Oversubscribe@ExternalContextBase@details@Concurrency@@UEAAX_N@Z 00000001400ca2d0 f   libconcrt:ExternalContextBase.obj
 0001:000c930c       ?PrepareForUse@ExternalContextBase@details@Concurrency@@QEAAX_N@Z 00000001400ca30c f   libconcrt:ExternalContextBase.obj
 0001:000c943c       ?RemoveFromUse@ExternalContextBase@details@Concurrency@@QEAAXXZ 00000001400ca43c f   libconcrt:ExternalContextBase.obj
 0001:000c946c       ?SpinYield@ExternalContextBase@details@Concurrency@@UEAAXXZ 00000001400ca46c f i libconcrt:ExternalContextBase.obj
 0001:000c947c       ?Unblock@ExternalContextBase@details@Concurrency@@UEAAXXZ 00000001400ca47c f   libconcrt:ExternalContextBase.obj
 0001:000c9534       ?Yield@ExternalContextBase@details@Concurrency@@UEAAXXZ 00000001400ca534 f   libconcrt:ExternalContextBase.obj
 0001:000c9580       ??0ThreadScheduler@details@Concurrency@@QEAA@AEBVSchedulerPolicy@2@@Z 00000001400ca580 f   libconcrt:ThreadScheduler.obj
 0001:000c95c4       ??_EThreadInternalContext@details@Concurrency@@WBA@EAAPEAXI@Z 00000001400ca5c4 f i libconcrt:ThreadScheduler.obj
 0001:000c95d0       ??_EThreadScheduler@details@Concurrency@@WBA@EAAPEAXI@Z 00000001400ca5d0 f i libconcrt:ThreadScheduler.obj
 0001:000c95dc       ??_GThreadInternalContext@details@Concurrency@@UEAAPEAXI@Z 00000001400ca5dc f i libconcrt:ThreadScheduler.obj
 0001:000c95dc       ??_EThreadInternalContext@details@Concurrency@@UEAAPEAXI@Z 00000001400ca5dc f i libconcrt:ThreadScheduler.obj
 0001:000c9628       ??_GThreadScheduler@details@Concurrency@@UEAAPEAXI@Z 00000001400ca628 f i libconcrt:ThreadScheduler.obj
 0001:000c9628       ??_EThreadScheduler@details@Concurrency@@UEAAPEAXI@Z 00000001400ca628 f i libconcrt:ThreadScheduler.obj
 0001:000c9674       ?AddVirtualProcessors@ThreadScheduler@details@Concurrency@@UEAAXPEAPEAUIVirtualProcessorRoot@3@I@Z 00000001400ca674 f i libconcrt:ThreadScheduler.obj
 0001:000c9680       ?Create@ThreadScheduler@details@Concurrency@@SAPEAV123@AEBVSchedulerPolicy@3@@Z 00000001400ca680 f   libconcrt:ThreadScheduler.obj
 0001:000c96b4       ?CreateInternalContext@ThreadScheduler@details@Concurrency@@MEAAPEAVInternalContextBase@23@XZ 00000001400ca6b4 f   libconcrt:ThreadScheduler.obj
 0001:000c9714       ?CreateVirtualProcessor@ThreadScheduler@details@Concurrency@@UEAAPEAVVirtualProcessor@23@PEAVSchedulingNode@23@PEAUIVirtualProcessorRoot@3@@Z 00000001400ca714 f   libconcrt:ThreadScheduler.obj
 0001:000c9754       ?GetIScheduler@ThreadScheduler@details@Concurrency@@UEAAPEAUIScheduler@3@XZ 00000001400ca754 f i libconcrt:ThreadScheduler.obj
 0001:000c975c       ?GetId@ThreadScheduler@details@Concurrency@@UEBAIXZ 00000001400ca75c f i libconcrt:ThreadScheduler.obj
 0001:000c9770       ?GetPolicy@ThreadScheduler@details@Concurrency@@UEBA?AVSchedulerPolicy@3@XZ 00000001400ca770 f i libconcrt:ThreadScheduler.obj
 0001:000c978c       ?GetPolicy@ThreadScheduler@details@Concurrency@@WBA@EBA?AVSchedulerPolicy@3@XZ 00000001400ca78c f i libconcrt:ThreadScheduler.obj
 0001:000c9798       ?RemoveVirtualProcessors@ThreadScheduler@details@Concurrency@@UEAAXPEAPEAUIVirtualProcessorRoot@3@I@Z 00000001400ca798 f i libconcrt:ThreadScheduler.obj
 0001:000c97a4       ?Statistics@ThreadScheduler@details@Concurrency@@UEAAXPEAI00@Z 00000001400ca7a4 f i libconcrt:ThreadScheduler.obj
 0001:000c97b0       ?OneShotStaticConstruction@UMSThreadScheduler@details@Concurrency@@SAXXZ 00000001400ca7b0 f   libconcrt:UMSThreadScheduler.obj
 0001:000c97fc       ?OneShotStaticDestruction@UMSThreadScheduler@details@Concurrency@@SAXXZ 00000001400ca7fc f   libconcrt:UMSThreadScheduler.obj
 0001:000c9818       ?_FinishCancelState@_TaskCollectionBase@details@Concurrency@@IEAAX_K@Z 00000001400ca818 f   libconcrt:TaskCollectionBase.obj
 0001:000c9850       ?_GetTokenState@_TaskCollectionBase@details@Concurrency@@QEAAPEAV_CancellationTokenState@23@PEAPEAV_CancellationTokenRegistration@23@@Z 00000001400ca850 f   libconcrt:TaskCollectionBase.obj
 0001:000c987c       ?_MarkCancellation@_TaskCollectionBase@details@Concurrency@@IEAA_NXZ 00000001400ca87c f   libconcrt:TaskCollectionBase.obj
 0001:000c989c       ?_RaisedException@_TaskCollectionBase@details@Concurrency@@IEAAXXZ 00000001400ca89c f   libconcrt:TaskCollectionBase.obj
 0001:000c992c       ?_RethrowException@_TaskCollectionBase@details@Concurrency@@IEAAXXZ 00000001400ca92c f   libconcrt:TaskCollectionBase.obj
 0001:000c99a8       ??0?$WorkStealingQueue@V_UnrealizedChore@details@Concurrency@@V_CriticalNonReentrantLock@23@@details@Concurrency@@QEAA@PEAV_CriticalNonReentrantLock@12@@Z 00000001400ca9a8 f i libconcrt:WorkQueue.obj
 0001:000c9a20       ??0WorkQueue@details@Concurrency@@QEAA@XZ 00000001400caa20 f   libconcrt:WorkQueue.obj
 0001:000c9a90       ?RedetachFromScheduleGroupAtSafePoint@WorkQueue@details@Concurrency@@QEAAXPEAVScheduleGroupSegmentBase@23@@Z 00000001400caa90 f   libconcrt:WorkQueue.obj
 0001:000c9ab8       ?Reinitialize@WorkQueue@details@Concurrency@@AEAAXXZ 00000001400caab8 f   libconcrt:WorkQueue.obj
 0001:000c9b24       ?RetireAtSafePoint@WorkQueue@details@Concurrency@@QEAAXPEAVScheduleGroupSegmentBase@23@@Z 00000001400cab24 f   libconcrt:WorkQueue.obj
 0001:000c9b4c       ?StaticRedetachFromScheduleGroup@WorkQueue@details@Concurrency@@CAXPEAV123@@Z 00000001400cab4c f   libconcrt:WorkQueue.obj
 0001:000c9b5c       ?StaticRetire@WorkQueue@details@Concurrency@@CAXPEAV123@@Z 00000001400cab5c f   libconcrt:WorkQueue.obj
 0001:000c9b6c       ?Steal@WorkQueue@details@Concurrency@@QEAAPEAV_UnrealizedChore@23@_N@Z 00000001400cab6c f   libconcrt:WorkQueue.obj
 0001:000c9bc0       ?Sweep@?$WorkStealingQueue@V_UnrealizedChore@details@Concurrency@@V_CriticalNonReentrantLock@23@@details@Concurrency@@QEAAXP6A_NPEAV_UnrealizedChore@23@PEAX@Z12@Z 00000001400cabc0 f i libconcrt:WorkQueue.obj
 0001:000c9c88       ?SweepUnstructured@WorkQueue@details@Concurrency@@QEAAXP6A_NPEAV_UnrealizedChore@23@PEAX@Z12@Z 00000001400cac88 f   libconcrt:WorkQueue.obj
 0001:000c9c94       ?TryToSteal@WorkQueue@details@Concurrency@@QEAAPEAV_UnrealizedChore@23@_NAEA_N@Z 00000001400cac94 f   libconcrt:WorkQueue.obj
 0001:000c9d00       ?UnlockedSteal@?$WorkStealingQueue@V_UnrealizedChore@details@Concurrency@@V_CriticalNonReentrantLock@23@@details@Concurrency@@QEAAPEAV_UnrealizedChore@23@_N0@Z 00000001400cad00 f i libconcrt:WorkQueue.obj
 0001:000c9e24       ?UnlockedSteal@WorkQueue@details@Concurrency@@AEAAPEAV_UnrealizedChore@23@_N@Z 00000001400cae24 f   libconcrt:WorkQueue.obj
 0001:000c9f34       ?_CancelViaToken@_UnrealizedChore@details@Concurrency@@CAXPEAVContextBase@23@@Z 00000001400caf34 f   libconcrt:Chores.obj
 0001:000c9f64       ?_InternalFree@_UnrealizedChore@details@Concurrency@@CAXPEAV123@@Z 00000001400caf64 f   libconcrt:Chores.obj
 0001:000c9f78       ?_PrepareSteal@_UnrealizedChore@details@Concurrency@@QEAAXPEAVContextBase@23@@Z 00000001400caf78 f   libconcrt:Chores.obj
 0001:000c9f90       ?_PrepareStealStructured@_UnrealizedChore@details@Concurrency@@AEAAXPEAVContextBase@23@@Z 00000001400caf90 f   libconcrt:Chores.obj
 0001:000c9fd4       ?_PrepareStealUnstructured@_UnrealizedChore@details@Concurrency@@AEAAXPEAVContextBase@23@@Z 00000001400cafd4 f   libconcrt:Chores.obj
 0001:000ca08c       ?_SetDetached@_UnrealizedChore@details@Concurrency@@QEAAX_N@Z 00000001400cb08c f   libconcrt:Chores.obj
 0001:000ca090       ?_StructuredChoreWrapper@_UnrealizedChore@details@Concurrency@@CAXPEAV123@@Z 00000001400cb090 f   libconcrt:Chores.obj
 0001:000ca240       ??0VirtualProcessorRoot@details@Concurrency@@QEAA@PEAVSchedulerProxy@12@PEAUSchedulerNode@12@I@Z 00000001400cb240 f   libconcrt:VirtualProcessorRoot.obj
 0001:000ca290       ??_EVirtualProcessorRoot@details@Concurrency@@UEAAPEAXI@Z 00000001400cb290 f i libconcrt:VirtualProcessorRoot.obj
 0001:000ca290       ??_GVirtualProcessorRoot@details@Concurrency@@UEAAPEAXI@Z 00000001400cb290 f i libconcrt:VirtualProcessorRoot.obj
 0001:000ca2c8       ?CurrentSubscriptionLevel@VirtualProcessorRoot@details@Concurrency@@UEBAIXZ 00000001400cb2c8 f i libconcrt:VirtualProcessorRoot.obj
 0001:000ca2d4       ?GetExecutionResourceId@VirtualProcessorRoot@details@Concurrency@@UEBAIXZ 00000001400cb2d4 f i libconcrt:VirtualProcessorRoot.obj
 0001:000ca2d8       ?GetId@VirtualProcessorRoot@details@Concurrency@@UEBAIXZ 00000001400cb2d8 f i libconcrt:VirtualProcessorRoot.obj
 0001:000ca2dc       ?GetNodeId@VirtualProcessorRoot@details@Concurrency@@UEBAIXZ 00000001400cb2dc f i libconcrt:VirtualProcessorRoot.obj
 0001:000ca2e0       ?Remove@VirtualProcessorRoot@details@Concurrency@@UEAAXPEAUIScheduler@3@@Z 00000001400cb2e0 f   libconcrt:VirtualProcessorRoot.obj
 0001:000ca350       ?ResetSubscriptionLevel@VirtualProcessorRoot@details@Concurrency@@QEAAXXZ 00000001400cb350 f   libconcrt:VirtualProcessorRoot.obj
 0001:000ca374       ?Subscribe@VirtualProcessorRoot@details@Concurrency@@QEAAXXZ 00000001400cb374 f   libconcrt:VirtualProcessorRoot.obj
 0001:000ca384       ?Unsubscribe@VirtualProcessorRoot@details@Concurrency@@QEAAXXZ 00000001400cb384 f   libconcrt:VirtualProcessorRoot.obj
 0001:000ca394       ??0FreeVirtualProcessorRoot@details@Concurrency@@QEAA@PEAVSchedulerProxy@12@PEAUSchedulerNode@12@I@Z 00000001400cb394 f   libconcrt:FreeVirtualProcessorRoot.obj
 0001:000ca3cc       ??_EFreeVirtualProcessorRoot@details@Concurrency@@UEAAPEAXI@Z 00000001400cb3cc f i libconcrt:FreeVirtualProcessorRoot.obj
 0001:000ca3cc       ??_GFreeVirtualProcessorRoot@details@Concurrency@@UEAAPEAXI@Z 00000001400cb3cc f i libconcrt:FreeVirtualProcessorRoot.obj
 0001:000ca404       ?Activate@FreeVirtualProcessorRoot@details@Concurrency@@UEAAXPEAUIExecutionContext@3@@Z 00000001400cb404 f   libconcrt:FreeVirtualProcessorRoot.obj
 0001:000ca52c       ?Affinitize@FreeVirtualProcessorRoot@details@Concurrency@@QEAAXPEAVFreeThreadProxy@23@@Z 00000001400cb52c f   libconcrt:FreeVirtualProcessorRoot.obj
 0001:000ca5d4       ?Deactivate@FreeVirtualProcessorRoot@details@Concurrency@@UEAA_NPEAUIExecutionContext@3@@Z 00000001400cb5d4 f   libconcrt:FreeVirtualProcessorRoot.obj
 0001:000ca6e4       ?DeleteThis@FreeVirtualProcessorRoot@details@Concurrency@@UEAAXXZ 00000001400cb6e4 f   libconcrt:FreeVirtualProcessorRoot.obj
 0001:000ca77c       ?EnsureAllTasksVisible@FreeVirtualProcessorRoot@details@Concurrency@@UEAAXPEAUIExecutionContext@3@@Z 00000001400cb77c f   libconcrt:FreeVirtualProcessorRoot.obj
 0001:000ca820       ?ResetOnIdle@FreeVirtualProcessorRoot@details@Concurrency@@QEAAXW4SwitchingProxyState@3@@Z 00000001400cb820 f   libconcrt:FreeVirtualProcessorRoot.obj
 0001:000ca8e8       ?AssociateExecutionContext@FreeThreadProxy@details@Concurrency@@QEAAXPEAUIExecutionContext@3@@Z 00000001400cb8e8 f   libconcrt:FreeThreadProxy.obj
 0001:000ca904       ?Dispatch@FreeThreadProxy@details@Concurrency@@EEAAXXZ 00000001400cb904 f   libconcrt:FreeThreadProxy.obj
 0001:000ca9c8       ?ReturnIdleProxy@FreeThreadProxy@details@Concurrency@@QEAAXXZ 00000001400cb9c8 f   libconcrt:FreeThreadProxy.obj
 0001:000ca9e4       ?SwitchOut@FreeThreadProxy@details@Concurrency@@UEAAXW4SwitchingProxyState@3@@Z 00000001400cb9e4 f   libconcrt:FreeThreadProxy.obj
 0001:000caa3c       ?SwitchTo@FreeThreadProxy@details@Concurrency@@UEAAXPEAUIExecutionContext@3@W4SwitchingProxyState@3@@Z 00000001400cba3c f   libconcrt:FreeThreadProxy.obj
 0001:000cab28       ??0ThreadProxy@details@Concurrency@@QEAA@PEAUIThreadProxyFactory@12@I@Z 00000001400cbb28 f   libconcrt:ThreadProxy.obj
 0001:000cac0c       ??0scheduler_worker_creation_error@Concurrency@@QEAA@AEBV01@@Z 00000001400cbc0c f i libconcrt:ThreadProxy.obj
 0001:000cac64       ??1ThreadProxy@details@Concurrency@@UEAA@XZ 00000001400cbc64 f   libconcrt:ThreadProxy.obj
 0001:000caca4       ??_EThreadProxy@details@Concurrency@@UEAAPEAXI@Z 00000001400cbca4 f i libconcrt:ThreadProxy.obj
 0001:000caca4       ??_GThreadProxy@details@Concurrency@@UEAAPEAXI@Z 00000001400cbca4 f i libconcrt:ThreadProxy.obj
 0001:000cacd8       ?Cancel@ThreadProxy@details@Concurrency@@QEAAXXZ 00000001400cbcd8 f   libconcrt:ThreadProxy.obj
 0001:000cacec       ?GetId@ThreadProxy@details@Concurrency@@UEBAIXZ 00000001400cbcec f   libconcrt:ThreadProxy.obj
 0001:000cacf0       ?ResumeExecution@ThreadProxy@details@Concurrency@@QEAAXXZ 00000001400cbcf0 f   libconcrt:ThreadProxy.obj
 0001:000cacfc       ?SetPriority@ThreadProxy@details@Concurrency@@QEAAXH@Z 00000001400cbcfc f   libconcrt:ThreadProxy.obj
 0001:000cad08       ?SpinUntilBlocked@ThreadProxy@details@Concurrency@@QEAAXXZ 00000001400cbd08 f   libconcrt:ThreadProxy.obj
 0001:000cad40       ?SuspendExecution@ThreadProxy@details@Concurrency@@QEAAXXZ 00000001400cbd40 f   libconcrt:ThreadProxy.obj
 0001:000cad6c       ?ThreadProxyMain@ThreadProxy@details@Concurrency@@CAKPEAX@Z 00000001400cbd6c f   libconcrt:ThreadProxy.obj
 0001:000cadc0       ??0location@Concurrency@@QEAA@W4_Type@01@IIPEAX@Z 00000001400cbdc0 f   libconcrt:location.obj
 0001:000cade4       ?_FastNodeIntersects@location@Concurrency@@QEBA_NAEBV12@@Z 00000001400cbde4 f   libconcrt:location.obj
 0001:000cae84       ?_FastVPIntersects@location@Concurrency@@QEBA_NAEBV12@@Z 00000001400cbe84 f   libconcrt:location.obj
 0001:000caecc       ??0WorkItem@details@Concurrency@@QEAA@PEAVInternalContextBase@12@@Z 00000001400cbecc f   libconcrt:SearchAlgorithms.obj
 0001:000caf04       ?Bind@WorkItem@details@Concurrency@@QEAAPEAVInternalContextBase@23@XZ 00000001400cbf04 f   libconcrt:SearchAlgorithms.obj
 0001:000caf60       ?BindTo@WorkItem@details@Concurrency@@QEAAXPEAVInternalContextBase@23@@Z 00000001400cbf60 f   libconcrt:SearchAlgorithms.obj
 0001:000cafa8       ?GetLocalRunnable@WorkSearchContext@details@Concurrency@@AEAA_NPEAVWorkItem@23@PEAVVirtualProcessor@23@_N@Z 00000001400cbfa8 f   libconcrt:SearchAlgorithms.obj
 0001:000cb0c0       ?GetPseudoRRAffineScheduleGroupSegment@SchedulingRing@details@Concurrency@@QEAAPEAVScheduleGroupSegmentBase@23@PEAH@Z 00000001400cc0c0 f i libconcrt:SearchAlgorithms.obj
 0001:000cb12c       ?GetPseudoRRNonAffineScheduleGroupSegment@SchedulingRing@details@Concurrency@@QEAAPEAVScheduleGroupSegmentBase@23@PEAH@Z 00000001400cc12c f i libconcrt:SearchAlgorithms.obj
 0001:000cb19c       ?GetRealizedChore@WorkSearchContext@details@Concurrency@@AEAA_NPEAVWorkItem@23@PEAVScheduleGroupSegmentBase@23@_N@Z 00000001400cc19c f   libconcrt:SearchAlgorithms.obj
 0001:000cb208       ?GetRealizedChoreWithinGroup@WorkSearchContext@details@Concurrency@@AEAA_NPEAVWorkItem@23@PEAVScheduleGroupSegmentBase@23@_NW4SearchAffinity@123@2@Z 00000001400cc208 f   libconcrt:SearchAlgorithms.obj
 0001:000cb2d8       ?GetRunnableContext@WorkSearchContext@details@Concurrency@@AEAA_NPEAVWorkItem@23@PEAVScheduleGroupSegmentBase@23@@Z 00000001400cc2d8 f   libconcrt:SearchAlgorithms.obj
 0001:000cb31c       ?GetRunnableContextWithinGroup@WorkSearchContext@details@Concurrency@@AEAA_NPEAVWorkItem@23@PEAVScheduleGroupSegmentBase@23@W4SearchAffinity@123@_N@Z 00000001400cc31c f   libconcrt:SearchAlgorithms.obj
 0001:000cb3d8       ?GetUnrealizedChore@WorkSearchContext@details@Concurrency@@AEAA_NPEAVWorkItem@23@PEAVScheduleGroupSegmentBase@23@_N2@Z 00000001400cc3d8 f   libconcrt:SearchAlgorithms.obj
 0001:000cb44c       ?GetUnrealizedChoreWithinGroup@WorkSearchContext@details@Concurrency@@AEAA_NPEAVWorkItem@23@PEAVScheduleGroupSegmentBase@23@_NW4SearchAffinity@123@2@Z 00000001400cc44c f   libconcrt:SearchAlgorithms.obj
 0001:000cb524       ?Invoke@WorkItem@details@Concurrency@@QEAAXXZ 00000001400cc524 f   libconcrt:SearchAlgorithms.obj
 0001:000cb574       ?PreSearch@WorkSearchContext@details@Concurrency@@AEAA_NPEAVWorkItem@23@@Z 00000001400cc574 f   libconcrt:SearchAlgorithms.obj
 0001:000cb5b8       ?QuickSearch@WorkSearchContext@details@Concurrency@@AEAA_NPEAVScheduleGroupSegmentBase@23@PEAVWorkItem@23@_NK@Z 00000001400cc5b8 f   libconcrt:SearchAlgorithms.obj
 0001:000cb65c       ?QuickSearchYield@WorkSearchContext@details@Concurrency@@AEAA_NPEAVScheduleGroupSegmentBase@23@PEAVWorkItem@23@_NK@Z 00000001400cc65c f   libconcrt:SearchAlgorithms.obj
 0001:000cb6ec       ?Reset@WorkSearchContext@details@Concurrency@@QEAAXPEAVVirtualProcessor@23@W4Algorithm@123@@Z 00000001400cc6ec f   libconcrt:SearchAlgorithms.obj
 0001:000cb760       ?ResolveToken@WorkItem@details@Concurrency@@QEAA_NXZ 00000001400cc760 f   libconcrt:SearchAlgorithms.obj
 0001:000cb7f4       ?SearchCacheLocal@WorkSearchContext@details@Concurrency@@AEAA_NPEAVWorkItem@23@PEAVScheduleGroupSegmentBase@23@_NK@Z 00000001400cc7f4 f   libconcrt:SearchAlgorithms.obj
 0001:000cbc58       ?SearchCacheLocalYield@WorkSearchContext@details@Concurrency@@AEAA_NPEAVWorkItem@23@PEAVScheduleGroupSegmentBase@23@_NK@Z 00000001400ccc58 f   libconcrt:SearchAlgorithms.obj
 0001:000cbfd4       ?SearchCacheLocal_Realized@WorkSearchContext@details@Concurrency@@AEAA_NPEAVWorkItem@23@PEAVSchedulingRing@23@PEAVScheduleGroupSegmentBase@23@_NW4SearchAffinity@123@K3@Z 00000001400ccfd4 f   libconcrt:SearchAlgorithms.obj
 0001:000cc190       ?SearchCacheLocal_Runnables@WorkSearchContext@details@Concurrency@@AEAA_NPEAVWorkItem@23@PEAVSchedulingRing@23@PEAVScheduleGroupSegmentBase@23@_NW4SearchAffinity@123@K3@Z 00000001400cd190 f   libconcrt:SearchAlgorithms.obj
 0001:000cc370       ?SearchCacheLocal_Unrealized@WorkSearchContext@details@Concurrency@@AEAA_NPEAVWorkItem@23@PEAVSchedulingRing@23@PEAVScheduleGroupSegmentBase@23@_NW4SearchAffinity@123@K3@Z 00000001400cd370 f   libconcrt:SearchAlgorithms.obj
 0001:000cc544       ?SearchFair@WorkSearchContext@details@Concurrency@@AEAA_NPEAVWorkItem@23@PEAVScheduleGroupSegmentBase@23@_NK@Z 00000001400cd544 f   libconcrt:SearchAlgorithms.obj
 0001:000cc6a0       ?SearchFairYield@WorkSearchContext@details@Concurrency@@AEAA_NPEAVWorkItem@23@PEAVScheduleGroupSegmentBase@23@_NK@Z 00000001400cd6a0 f   libconcrt:SearchAlgorithms.obj
 0001:000cc7f0       ?SearchFair_Realized@WorkSearchContext@details@Concurrency@@AEAA_NPEAVWorkItem@23@PEAVSchedulingRing@23@_N@Z 00000001400cd7f0 f   libconcrt:SearchAlgorithms.obj
 0001:000cc8c0       ?SearchFair_Runnables@WorkSearchContext@details@Concurrency@@AEAA_NPEAVWorkItem@23@PEAVSchedulingRing@23@@Z 00000001400cd8c0 f   libconcrt:SearchAlgorithms.obj
 0001:000cc968       ?SearchFair_Unrealized@WorkSearchContext@details@Concurrency@@AEAA_NPEAVWorkItem@23@PEAVSchedulingRing@23@_N@Z 00000001400cd968 f   libconcrt:SearchAlgorithms.obj
 0001:000cca3c       ?SkipSegmentSearch@WorkSearchContext@details@Concurrency@@AEAA_NPEAVScheduleGroupSegmentBase@23@0W4SearchAffinity@123@_N@Z 00000001400cda3c f   libconcrt:SearchAlgorithms.obj
 0001:000ccb14       ?StealForeignLocalRunnable@WorkSearchContext@details@Concurrency@@AEAA_NPEAVWorkItem@23@PEAVSchedulingNode@23@@Z 00000001400cdb14 f   libconcrt:SearchAlgorithms.obj
 0001:000ccbdc       ?StealLocalRunnable@WorkSearchContext@details@Concurrency@@AEAA_NPEAVWorkItem@23@PEAVSchedulingNode@23@PEAVVirtualProcessor@23@@Z 00000001400cdbdc f   libconcrt:SearchAlgorithms.obj
 0001:000ccce8       ?TransferReferences@WorkItem@details@Concurrency@@QEAAXPEAVInternalContextBase@23@@Z 00000001400cdce8 f   libconcrt:SearchAlgorithms.obj
 0001:000ccd7c       ?Invoke@RealizedChore@details@Concurrency@@QEAAXXZ 00000001400cdd7c f   libconcrt:RealizedChore.obj
 0001:000ccd8c       ??0ThreadVirtualProcessor@details@Concurrency@@QEAA@PEAVSchedulingNode@12@PEAUIVirtualProcessorRoot@2@@Z 00000001400cdd8c f   libconcrt:ThreadVirtualProcessor.obj
 0001:000ccddc       ??_GThreadVirtualProcessor@details@Concurrency@@UEAAPEAXI@Z 00000001400cdddc f i libconcrt:ThreadVirtualProcessor.obj
 0001:000ccddc       ??_EThreadVirtualProcessor@details@Concurrency@@UEAAPEAXI@Z 00000001400cdddc f i libconcrt:ThreadVirtualProcessor.obj
 0001:000cce1c       ??$_CallSETranslator@V__FrameHandler3@@@@YAHPEAUEHExceptionRecord@@PEA_KPEAU_CONTEXT@@PEAU_xDISPATCHER_CONTEXT@@PEBU_s_FuncInfo@@K1@Z 00000001400cde1c f i libvcruntime:risctrnsctrl.obj
 0001:000cce70       ??$_CallSETranslator@V__FrameHandler4@@@@YAHPEAUEHExceptionRecord@@PEA_KPEAU_CONTEXT@@PEAU_xDISPATCHER_CONTEXT@@PEAUFuncInfo4@FH4@@K1@Z 00000001400cde70 f i libvcruntime:risctrnsctrl.obj
 0001:000ccec4       ?CatchTryBlock@__FrameHandler3@@SAPEBU_s_TryBlockMapEntry@@PEBU_s_FuncInfo@@H@Z 00000001400cdec4 f   libvcruntime:risctrnsctrl.obj
 0001:000ccf18       ?DecompFuncInfo@FH4@@YA_JPEAEAEAUFuncInfo4@1@_KH_N@Z 00000001400cdf18 f i libvcruntime:risctrnsctrl.obj
 0001:000cd03c       ?ExecutionInCatch@__FrameHandler3@@SA_NPEAU_xDISPATCHER_CONTEXT@@PEBU_s_FuncInfo@@@Z 00000001400ce03c f   libvcruntime:risctrnsctrl.obj
 0001:000cd068       ?ExecutionInCatch@__FrameHandler4@@SA_NPEAU_xDISPATCHER_CONTEXT@@PEAUFuncInfo4@FH4@@@Z 00000001400ce068 f   libvcruntime:risctrnsctrl.obj
 0001:000cd070       ?FrameUnwindToEmptyState@__FrameHandler3@@SAXPEA_KPEAU_xDISPATCHER_CONTEXT@@PEBU_s_FuncInfo@@@Z 00000001400ce070 f   libvcruntime:risctrnsctrl.obj
 0001:000cd0d4       ?FrameUnwindToEmptyState@__FrameHandler4@@SAXPEA_KPEAU_xDISPATCHER_CONTEXT@@PEAUFuncInfo4@FH4@@@Z 00000001400ce0d4 f   libvcruntime:risctrnsctrl.obj
 0001:000cd108       ?GetEstablisherFrame@__FrameHandler3@@SAPEA_KPEA_KPEAU_xDISPATCHER_CONTEXT@@PEBU_s_FuncInfo@@0@Z 00000001400ce108 f   libvcruntime:risctrnsctrl.obj
 0001:000cd1d4       ?GetEstablisherFrame@__FrameHandler4@@SAPEA_KPEA_KPEAU_xDISPATCHER_CONTEXT@@PEAUFuncInfo4@FH4@@0@Z 00000001400ce1d4 f   libvcruntime:risctrnsctrl.obj
 0001:000cd1f8       ?GetRangeOfTrysToCheck@__FrameHandler3@@SA?AU?$pair@Viterator@TryBlockMap@__FrameHandler3@@V123@@std@@AEAVTryBlockMap@1@HPEAU_xDISPATCHER_CONTEXT@@PEBU_s_FuncInfo@@H@Z 00000001400ce1f8 f   libvcruntime:risctrnsctrl.obj
 0001:000cd338       ?GetRangeOfTrysToCheck@__FrameHandler4@@SA?AU?$pair@Viterator@TryBlockMap4@FH4@@V123@@std@@AEAVTryBlockMap4@FH4@@HPEAU_xDISPATCHER_CONTEXT@@PEAUFuncInfo4@5@H@Z 00000001400ce338 f   libvcruntime:risctrnsctrl.obj
 0001:000cd494       ?UnwindNestedFrames@__FrameHandler3@@SAXPEA_KPEAUEHExceptionRecord@@PEAU_CONTEXT@@0PEAXPEBU_s_FuncInfo@@HHPEBU_s_HandlerType@@PEAU_xDISPATCHER_CONTEXT@@E@Z 00000001400ce494 f   libvcruntime:risctrnsctrl.obj
 0001:000cd598       ?UnwindNestedFrames@__FrameHandler4@@SAXPEA_KPEAUEHExceptionRecord@@PEAU_CONTEXT@@0PEAXPEAUFuncInfo4@FH4@@HHPEAUHandlerType4@5@PEAU_xDISPATCHER_CONTEXT@@E@Z 00000001400ce598 f   libvcruntime:risctrnsctrl.obj
 0001:000cd6b8       ?setBuffer@TryBlockMap4@FH4@@QEAAXViterator@12@@Z 00000001400ce6b8 f i libvcruntime:risctrnsctrl.obj
 0001:000cd87c       _CreateFrameInfo           00000001400ce87c f   libvcruntime:risctrnsctrl.obj
 0001:000cd8b8       _FindAndUnlinkFrame        00000001400ce8b8 f   libvcruntime:risctrnsctrl.obj
 0001:000cd90c       _GetImageBase              00000001400ce90c f   libvcruntime:risctrnsctrl.obj
 0001:000cd920       _GetThrowImageBase         00000001400ce920 f   libvcruntime:risctrnsctrl.obj
 0001:000cd934       _SetImageBase              00000001400ce934 f   libvcruntime:risctrnsctrl.obj
 0001:000cd94c       _SetThrowImageBase         00000001400ce94c f   libvcruntime:risctrnsctrl.obj
 0001:000cd964       __CxxFrameHandler3         00000001400ce964 f   libvcruntime:risctrnsctrl.obj
 0001:000cd9ec       __CxxFrameHandler4         00000001400ce9ec f   libvcruntime:risctrnsctrl.obj
 0001:000cdaac       __std_exception_copy       00000001400ceaac f   libvcruntime:std_exception.obj
 0001:000cdb3c       __std_exception_destroy    00000001400ceb3c f   libvcruntime:std_exception.obj
 0001:000cdb64       _get_purecall_handler      00000001400ceb64 f   libvcruntime:purevirt.obj
 0001:000cdb6c       _purecall                  00000001400ceb6c f   libvcruntime:purevirt.obj
 0001:000cdb88       __DestructExceptionObject  00000001400ceb88 f   libvcruntime:ehhelpers.obj
 0001:000cdbf8       _IsExceptionObjectToBeDestroyed 00000001400cebf8 f   libvcruntime:ehhelpers.obj
 0001:000cdc28       __AdjustPointer            00000001400cec28 f   libvcruntime:ehhelpers.obj
 0001:000cdc4c       __FrameUnwindFilter        00000001400cec4c f   libvcruntime:ehhelpers.obj
 0001:000cdcb4       __current_exception        00000001400cecb4 f   libvcruntime:ehhelpers.obj
 0001:000cdcc8       __current_exception_context 00000001400cecc8 f   libvcruntime:ehhelpers.obj
 0001:000cdcdc       __std_terminate            00000001400cecdc f   libvcruntime:ehhelpers.obj
 0001:000cdce8       __std_type_info_compare    00000001400cece8 f   libvcruntime:std_type_info.obj
 0001:000cdd10       strstr                     00000001400ced10 f   libvcruntime:strstr.obj
 0001:000cdf0c       strchr                     00000001400cef0c f   libvcruntime:strchr.obj
 0001:000cdfa0       memcpy_repmovs             00000001400cefa0 f   libvcruntime:memcpy.obj
 0001:000cdfc0       memcpy                     00000001400cefc0 f   libvcruntime:memcpy.obj
 0001:000cdfc0       memmove                    00000001400cefc0 f   libvcruntime:memcpy.obj
 0001:000ce398       longjmp                    00000001400cf398 f   libvcruntime:longjmpc.obj
 0001:000ce3d0       memcmp                     00000001400cf3d0 f   libvcruntime:memcmp.obj
 0001:000ce4b0       memchr                     00000001400cf4b0 f   libvcruntime:memchr.obj
 0001:000ce520       strrchr                    00000001400cf520 f   libvcruntime:strrchr.obj
 0001:000ce660       memset_repmovs             00000001400cf660 f   libvcruntime:memset.obj
 0001:000ce680       memset                     00000001400cf680 f   libvcruntime:memset.obj
 0001:000ce810       _CxxThrowException         00000001400cf810 f   libvcruntime:throw.obj
 0001:000ce8b0       __uncaught_exception       00000001400cf8b0 f   libvcruntime:uncaught_exception.obj
 0001:000ce8d0       __vcrt_initialize          00000001400cf8d0 f   libvcruntime:initialization.obj
 0001:000ce8f8       __vcrt_uninitialize        00000001400cf8f8 f   libvcruntime:initialization.obj
 0001:000ce914       __C_specific_handler       00000001400cf914 f   libvcruntime:riscchandler.obj
 0001:000ceb20       ??0__non_rtti_object@std@@QEAA@AEBV01@@Z 00000001400cfb20 f i libvcruntime:rtti.obj
 0001:000ceb5c       ??0bad_typeid@std@@QEAA@AEBV01@@Z 00000001400cfb5c f i libvcruntime:rtti.obj
 0001:000cf074       ?__construct_from_string_literal@__non_rtti_object@std@@SA?AV12@QEBD@Z 00000001400d0074 f i libvcruntime:rtti.obj
 0001:000cf08c       ?__construct_from_string_literal@bad_cast@std@@SA?AV12@QEBD@Z 00000001400d008c f i libvcruntime:rtti.obj
 0001:000cf0a4       __RTDynamicCast            00000001400d00a4 f   libvcruntime:rtti.obj
 0001:000cf20c       __vcrt_freefls             00000001400d020c f   libvcruntime:per_thread_data.obj
 0001:000cf22c       __vcrt_getptd              00000001400d022c f   libvcruntime:per_thread_data.obj
 0001:000cf248       __vcrt_getptd_noexit       00000001400d0248 f   libvcruntime:per_thread_data.obj
 0001:000cf308       __vcrt_getptd_noinit       00000001400d0308 f   libvcruntime:per_thread_data.obj
 0001:000cf358       __vcrt_initialize_ptd      00000001400d0358 f   libvcruntime:per_thread_data.obj
 0001:000cf3a0       __vcrt_uninitialize_ptd    00000001400d03a0 f   libvcruntime:per_thread_data.obj
 0001:000cf3c4       ?GetCurrentState@__FrameHandler3@@SAHPEA_KPEAU_xDISPATCHER_CONTEXT@@PEBU_s_FuncInfo@@@Z 00000001400d03c4 f   libvcruntime:ehstate.obj
 0001:000cf3ec       ?GetUnwindTryBlock@__FrameHandler3@@SAHPEA_KPEAU_xDISPATCHER_CONTEXT@@PEBU_s_FuncInfo@@@Z 00000001400d03ec f   libvcruntime:ehstate.obj
 0001:000cf418       ?SetState@__FrameHandler3@@SAXPEA_KPEBU_s_FuncInfo@@H@Z 00000001400d0418 f   libvcruntime:ehstate.obj
 0001:000cf424       ?SetUnwindTryBlock@__FrameHandler3@@SAXPEA_KPEAU_xDISPATCHER_CONTEXT@@PEBU_s_FuncInfo@@H@Z 00000001400d0424 f   libvcruntime:ehstate.obj
 0001:000cf460       ?StateFromControlPc@__FrameHandler3@@SAHPEBU_s_FuncInfo@@PEAU_xDISPATCHER_CONTEXT@@@Z 00000001400d0460 f   libvcruntime:ehstate.obj
 0001:000cf468       ?StateFromControlPc@__FrameHandler4@@SAHPEAUFuncInfo4@FH4@@PEAU_xDISPATCHER_CONTEXT@@@Z 00000001400d0468 f   libvcruntime:ehstate.obj
 0001:000cf470       ?StateFromIp@__FrameHandler3@@SAHPEBU_s_FuncInfo@@PEAU_xDISPATCHER_CONTEXT@@_K@Z 00000001400d0470 f   libvcruntime:ehstate.obj
 0001:000cf4d8       ?StateFromIp@__FrameHandler4@@SAHPEAUFuncInfo4@FH4@@PEAU_xDISPATCHER_CONTEXT@@_K@Z 00000001400d04d8 f   libvcruntime:ehstate.obj
 0001:000d0bd8       ??$TypeMatchHelper@V__FrameHandler3@@@@YAHPEBU_s_HandlerType@@PEBU_s_CatchableType@@PEBU_s_ThrowInfo@@@Z 00000001400d1bd8 f i libvcruntime:frame.obj
 0001:000d0d18       ??$TypeMatchHelper@V__FrameHandler4@@@@YAHPEAUHandlerType4@FH4@@PEBU_s_CatchableType@@PEBU_s_ThrowInfo@@@Z 00000001400d1d18 f i libvcruntime:frame.obj
 0001:000d0e5c       ??$__InternalCxxFrameHandler@V__FrameHandler3@@@@YA?AW4_EXCEPTION_DISPOSITION@@PEAUEHExceptionRecord@@PEA_KPEAU_CONTEXT@@PEAU_xDISPATCHER_CONTEXT@@PEBU_s_FuncInfo@@H1E@Z 00000001400d1e5c f i libvcruntime:frame.obj
 0001:000d1094       ??$__InternalCxxFrameHandler@V__FrameHandler4@@@@YA?AW4_EXCEPTION_DISPOSITION@@PEAUEHExceptionRecord@@PEA_KPEAU_CONTEXT@@PEAU_xDISPATCHER_CONTEXT@@PEAUFuncInfo4@FH4@@H1E@Z 00000001400d2094 f i libvcruntime:frame.obj
 0001:000d1328       ??0HandlerMap4@FH4@@QEAA@PEBUTryBlockMapEntry4@1@_KH@Z 00000001400d2328 f i libvcruntime:frame.obj
 0001:000d13a4       ??0TryBlockMap4@FH4@@QEAA@PEBUFuncInfo4@1@_K@Z 00000001400d23a4 f i libvcruntime:frame.obj
 0001:000d147c       ?CxxCallCatchBlock@__FrameHandler3@@SAPEAXPEAU_EXCEPTION_RECORD@@@Z 00000001400d247c f   libvcruntime:frame.obj
 0001:000d1668       ?CxxCallCatchBlock@__FrameHandler4@@SAPEAXPEAU_EXCEPTION_RECORD@@@Z 00000001400d2668 f   libvcruntime:frame.obj
 0001:000d18b8       ?DecompHandler@HandlerMap4@FH4@@AEAAXXZ 00000001400d28b8 f i libvcruntime:frame.obj
 0001:000d1af8       ?FrameUnwindToState@__FrameHandler3@@SAXPEA_KPEAU_xDISPATCHER_CONTEXT@@PEBU_s_FuncInfo@@H@Z 00000001400d2af8 f   libvcruntime:frame.obj
 0001:000d1c7c       ?FrameUnwindToState@__FrameHandler4@@SAXPEA_KPEAU_xDISPATCHER_CONTEXT@@PEAUFuncInfo4@FH4@@H@Z 00000001400d2c7c f   libvcruntime:frame.obj
 0001:000d1f50       ?GetHandlerSearchState@__FrameHandler3@@SAHPEA_KPEAU_xDISPATCHER_CONTEXT@@PEBU_s_FuncInfo@@@Z 00000001400d2f50 f i libvcruntime:frame.obj
 0001:000d215c       ?ReadEntry@UWMap4@FH4@@AEAAXPEAPEAE@Z 00000001400d315c f i libvcruntime:frame.obj
 0001:000d21fc       ?getStartStop@UWMap4@FH4@@QEAAXHHAEAViterator@12@0@Z 00000001400d31fc f i libvcruntime:frame.obj
 0001:000d22cc       ?getStateFromIterators@UWMap4@FH4@@SAHAEBViterator@12@H0H0@Z 00000001400d32cc f i libvcruntime:frame.obj
 0001:000d23a0       __except_validate_context_record 00000001400d33a0 f   libvcruntime:jbcxrval.obj
 0001:000d23d8       __except_validate_jump_buffer 00000001400d33d8 f   libvcruntime:jbcxrval.obj
 0001:000d2418       __vcrt_initialize_locks    00000001400d3418 f   libvcruntime:locks.obj
 0001:000d244c       __vcrt_uninitialize_locks  00000001400d344c f   libvcruntime:locks.obj
 0001:000d24a0       _NLG_Notify                00000001400d34a0 f   libvcruntime:notify.obj
 0001:000d24c0       __NLG_Dispatch2            00000001400d34c0 f   libvcruntime:notify.obj
 0001:000d24d0       __NLG_Return2              00000001400d34d0 f   libvcruntime:notify.obj
 0001:000d2620       __vcrt_FlsAlloc            00000001400d3620 f   libvcruntime:winapi_downlevel.obj
 0001:000d2668       __vcrt_FlsFree             00000001400d3668 f   libvcruntime:winapi_downlevel.obj
 0001:000d26b0       __vcrt_FlsGetValue         00000001400d36b0 f   libvcruntime:winapi_downlevel.obj
 0001:000d26f8       __vcrt_FlsSetValue         00000001400d36f8 f   libvcruntime:winapi_downlevel.obj
 0001:000d274c       __vcrt_InitializeCriticalSectionEx 00000001400d374c f   libvcruntime:winapi_downlevel.obj
 0001:000d27c0       _CallSettingFrame          00000001400d37c0 f   libvcruntime:handlers.obj
 0001:000d2810       _CallSettingFrame_LookupContinuationIndex 00000001400d3810 f   libvcruntime:handlers.obj
 0001:000d2840       _CallSettingFrame_NotifyContinuationAddr 00000001400d3840 f   libvcruntime:handlers.obj
 0001:000d2870       _CallSettingFrameEncoded   00000001400d3870 f   libvcruntime:handlers.obj
 0001:000d28b8       calloc                     00000001400d38b8 f   libucrt:calloc.obj
 0001:000d2960       strcspn                    00000001400d3960 f   libucrt:strcspn.obj
 0001:000d3310       ??$ensure_buffer_is_big_enough@D@formatting_buffer@__crt_stdio_output@@QEAA_N_K@Z 00000001400d4310 f i libucrt:output.obj
 0001:000d33b8       ??$ensure_buffer_is_big_enough@_W@formatting_buffer@__crt_stdio_output@@QEAA_N_K@Z 00000001400d43b8 f i libucrt:output.obj
 0001:000d3464       ??$is_wide_character_specifier@_W@__crt_stdio_output@@YA_N_K_WW4length_modifier@0@@Z 00000001400d4464 f i libucrt:output.obj
 0001:000d34a4       ??$type_case_integer_parse_into_buffer@I@?$output_processor@DV?$string_output_adapter@D@__crt_stdio_output@@V?$standard_base@DV?$string_output_adapter@D@__crt_stdio_output@@@2@@__crt_stdio_output@@AEAAXII_N@Z 00000001400d44a4 f i libucrt:output.obj
 0001:000d34a4       ??$type_case_integer_parse_into_buffer@I@?$output_processor@DV?$string_output_adapter@D@__crt_stdio_output@@V?$format_validation_base@DV?$string_output_adapter@D@__crt_stdio_output@@@2@@__crt_stdio_output@@AEAAXII_N@Z 00000001400d44a4 f i libucrt:output.obj
 0001:000d34a4       ??$type_case_integer_parse_into_buffer@I@?$output_processor@DV?$stream_output_adapter@D@__crt_stdio_output@@V?$standard_base@DV?$stream_output_adapter@D@__crt_stdio_output@@@2@@__crt_stdio_output@@AEAAXII_N@Z 00000001400d44a4 f i libucrt:output.obj
 0001:000d352c       ??$type_case_integer_parse_into_buffer@I@?$output_processor@_WV?$string_output_adapter@_W@__crt_stdio_output@@V?$standard_base@_WV?$string_output_adapter@_W@__crt_stdio_output@@@2@@__crt_stdio_output@@AEAAXII_N@Z 00000001400d452c f i libucrt:output.obj
 0001:000d352c       ??$type_case_integer_parse_into_buffer@I@?$output_processor@_WV?$stream_output_adapter@_W@__crt_stdio_output@@V?$standard_base@_WV?$stream_output_adapter@_W@__crt_stdio_output@@@2@@__crt_stdio_output@@AEAAXII_N@Z 00000001400d452c f i libucrt:output.obj
 0001:000d35d0       ??$type_case_integer_parse_into_buffer@_K@?$output_processor@DV?$stream_output_adapter@D@__crt_stdio_output@@V?$standard_base@DV?$stream_output_adapter@D@__crt_stdio_output@@@2@@__crt_stdio_output@@AEAAX_KI_N@Z 00000001400d45d0 f i libucrt:output.obj
 0001:000d35d0       ??$type_case_integer_parse_into_buffer@_K@?$output_processor@DV?$string_output_adapter@D@__crt_stdio_output@@V?$standard_base@DV?$string_output_adapter@D@__crt_stdio_output@@@2@@__crt_stdio_output@@AEAAX_KI_N@Z 00000001400d45d0 f i libucrt:output.obj
 0001:000d35d0       ??$type_case_integer_parse_into_buffer@_K@?$output_processor@DV?$string_output_adapter@D@__crt_stdio_output@@V?$format_validation_base@DV?$string_output_adapter@D@__crt_stdio_output@@@2@@__crt_stdio_output@@AEAAX_KI_N@Z 00000001400d45d0 f i libucrt:output.obj
 0001:000d3660       ??$type_case_integer_parse_into_buffer@_K@?$output_processor@_WV?$string_output_adapter@_W@__crt_stdio_output@@V?$standard_base@_WV?$string_output_adapter@_W@__crt_stdio_output@@@2@@__crt_stdio_output@@AEAAX_KI_N@Z 00000001400d4660 f i libucrt:output.obj
 0001:000d3660       ??$type_case_integer_parse_into_buffer@_K@?$output_processor@_WV?$stream_output_adapter@_W@__crt_stdio_output@@V?$standard_base@_WV?$stream_output_adapter@_W@__crt_stdio_output@@@2@@__crt_stdio_output@@AEAAX_KI_N@Z 00000001400d4660 f i libucrt:output.obj
 0001:000d3704       ??$write_multiple_characters@V?$stream_output_adapter@D@__crt_stdio_output@@D@__crt_stdio_output@@YAXAEBV?$stream_output_adapter@D@0@DHQEAH@Z 00000001400d4704 f i libucrt:output.obj
 0001:000d3790       ??$write_multiple_characters@V?$stream_output_adapter@_W@__crt_stdio_output@@D@__crt_stdio_output@@YAXAEBV?$stream_output_adapter@_W@0@DHQEAH@Z 00000001400d4790 f i libucrt:output.obj
 0001:000d3824       ??$write_multiple_characters@V?$string_output_adapter@D@__crt_stdio_output@@D@__crt_stdio_output@@YAXAEBV?$string_output_adapter@D@0@DHQEAH@Z 00000001400d4824 f i libucrt:output.obj
 0001:000d389c       ??$write_multiple_characters@V?$string_output_adapter@_W@__crt_stdio_output@@D@__crt_stdio_output@@YAXAEBV?$string_output_adapter@_W@0@DHQEAH@Z 00000001400d489c f i libucrt:output.obj
 0001:000d3918       ??0_LocaleUpdate@@QEAA@QEAU__crt_locale_pointers@@@Z 00000001400d4918 f i libucrt:output.obj
 0001:000d39b4       ??1_LocaleUpdate@@QEAA@XZ  00000001400d49b4 f i libucrt:output.obj
 0001:000d3c2c       ?crop_zeroes@__crt_stdio_output@@YAXPEADQEAU__crt_locale_pointers@@@Z 00000001400d4c2c f i libucrt:output.obj
 0001:000d3c98       ?parse_int_from_format_string@?$output_processor@DV?$string_output_adapter@D@__crt_stdio_output@@V?$standard_base@DV?$string_output_adapter@D@__crt_stdio_output@@@2@@__crt_stdio_output@@AEAA_NQEAH@Z 00000001400d4c98 f i libucrt:output.obj
 0001:000d3c98       ?parse_int_from_format_string@?$output_processor@DV?$stream_output_adapter@D@__crt_stdio_output@@V?$standard_base@DV?$stream_output_adapter@D@__crt_stdio_output@@@2@@__crt_stdio_output@@AEAA_NQEAH@Z 00000001400d4c98 f i libucrt:output.obj
 0001:000d3c98       ?parse_int_from_format_string@?$output_processor@DV?$string_output_adapter@D@__crt_stdio_output@@V?$format_validation_base@DV?$string_output_adapter@D@__crt_stdio_output@@@2@@__crt_stdio_output@@AEAA_NQEAH@Z 00000001400d4c98 f i libucrt:output.obj
 0001:000d3d3c       ?parse_int_from_format_string@?$output_processor@_WV?$stream_output_adapter@_W@__crt_stdio_output@@V?$standard_base@_WV?$stream_output_adapter@_W@__crt_stdio_output@@@2@@__crt_stdio_output@@AEAA_NQEAH@Z 00000001400d4d3c f i libucrt:output.obj
 0001:000d3d3c       ?parse_int_from_format_string@?$output_processor@_WV?$string_output_adapter@_W@__crt_stdio_output@@V?$standard_base@_WV?$string_output_adapter@_W@__crt_stdio_output@@@2@@__crt_stdio_output@@AEAA_NQEAH@Z 00000001400d4d3c f i libucrt:output.obj
 0001:000d3de0       ?process@?$output_processor@DV?$stream_output_adapter@D@__crt_stdio_output@@V?$standard_base@DV?$stream_output_adapter@D@__crt_stdio_output@@@2@@__crt_stdio_output@@QEAAHXZ 00000001400d4de0 f i libucrt:output.obj
 0001:000d3ff8       ?process@?$output_processor@DV?$string_output_adapter@D@__crt_stdio_output@@V?$format_validation_base@DV?$string_output_adapter@D@__crt_stdio_output@@@2@@__crt_stdio_output@@QEAAHXZ 00000001400d4ff8 f i libucrt:output.obj
 0001:000d4210       ?process@?$output_processor@DV?$string_output_adapter@D@__crt_stdio_output@@V?$standard_base@DV?$string_output_adapter@D@__crt_stdio_output@@@2@@__crt_stdio_output@@QEAAHXZ 00000001400d5210 f i libucrt:output.obj
 0001:000d441c       ?process@?$output_processor@_WV?$stream_output_adapter@_W@__crt_stdio_output@@V?$standard_base@_WV?$stream_output_adapter@_W@__crt_stdio_output@@@2@@__crt_stdio_output@@QEAAHXZ 00000001400d541c f i libucrt:output.obj
 0001:000d4688       ?process@?$output_processor@_WV?$string_output_adapter@_W@__crt_stdio_output@@V?$standard_base@_WV?$string_output_adapter@_W@__crt_stdio_output@@@2@@__crt_stdio_output@@QEAAHXZ 00000001400d5688 f i libucrt:output.obj
 0001:000d4904       ?state_case_normal@?$output_processor@DV?$stream_output_adapter@D@__crt_stdio_output@@V?$standard_base@DV?$stream_output_adapter@D@__crt_stdio_output@@@2@@__crt_stdio_output@@AEAA_NXZ 00000001400d5904 f i libucrt:output.obj
 0001:000d4974       ?state_case_normal@?$output_processor@DV?$string_output_adapter@D@__crt_stdio_output@@V?$format_validation_base@DV?$string_output_adapter@D@__crt_stdio_output@@@2@@__crt_stdio_output@@AEAA_NXZ 00000001400d5974 f i libucrt:output.obj
 0001:000d4974       ?state_case_normal@?$output_processor@DV?$string_output_adapter@D@__crt_stdio_output@@V?$standard_base@DV?$string_output_adapter@D@__crt_stdio_output@@@2@@__crt_stdio_output@@AEAA_NXZ 00000001400d5974 f i libucrt:output.obj
 0001:000d49e8       ?state_case_normal_tchar@?$output_processor@DV?$stream_output_adapter@D@__crt_stdio_output@@V?$standard_base@DV?$stream_output_adapter@D@__crt_stdio_output@@@2@@__crt_stdio_output@@AEAA_ND@Z 00000001400d59e8 f i libucrt:output.obj
 0001:000d4a8c       ?state_case_normal_tchar@?$output_processor@DV?$string_output_adapter@D@__crt_stdio_output@@V?$standard_base@DV?$string_output_adapter@D@__crt_stdio_output@@@2@@__crt_stdio_output@@AEAA_ND@Z 00000001400d5a8c f i libucrt:output.obj
 0001:000d4a8c       ?state_case_normal_tchar@?$output_processor@DV?$string_output_adapter@D@__crt_stdio_output@@V?$format_validation_base@DV?$string_output_adapter@D@__crt_stdio_output@@@2@@__crt_stdio_output@@AEAA_ND@Z 00000001400d5a8c f i libucrt:output.obj
 0001:000d4b34       ?state_case_size@?$output_processor@DV?$stream_output_adapter@D@__crt_stdio_output@@V?$standard_base@DV?$stream_output_adapter@D@__crt_stdio_output@@@2@@__crt_stdio_output@@AEAA_NXZ 00000001400d5b34 f i libucrt:output.obj
 0001:000d4ca8       ?state_case_size@?$output_processor@DV?$string_output_adapter@D@__crt_stdio_output@@V?$format_validation_base@DV?$string_output_adapter@D@__crt_stdio_output@@@2@@__crt_stdio_output@@AEAA_NXZ 00000001400d5ca8 f i libucrt:output.obj
 0001:000d4ca8       ?state_case_size@?$output_processor@DV?$string_output_adapter@D@__crt_stdio_output@@V?$standard_base@DV?$string_output_adapter@D@__crt_stdio_output@@@2@@__crt_stdio_output@@AEAA_NXZ 00000001400d5ca8 f i libucrt:output.obj
 0001:000d4e1c       ?state_case_size@?$output_processor@_WV?$stream_output_adapter@_W@__crt_stdio_output@@V?$standard_base@_WV?$stream_output_adapter@_W@__crt_stdio_output@@@2@@__crt_stdio_output@@AEAA_NXZ 00000001400d5e1c f i libucrt:output.obj
 0001:000d4fb4       ?state_case_size@?$output_processor@_WV?$string_output_adapter@_W@__crt_stdio_output@@V?$standard_base@_WV?$string_output_adapter@_W@__crt_stdio_output@@@2@@__crt_stdio_output@@AEAA_NXZ 00000001400d5fb4 f i libucrt:output.obj
 0001:000d514c       ?state_case_type@?$output_processor@DV?$stream_output_adapter@D@__crt_stdio_output@@V?$standard_base@DV?$stream_output_adapter@D@__crt_stdio_output@@@2@@__crt_stdio_output@@AEAA_NXZ 00000001400d614c f i libucrt:output.obj
 0001:000d53d0       ?state_case_type@?$output_processor@DV?$string_output_adapter@D@__crt_stdio_output@@V?$standard_base@DV?$string_output_adapter@D@__crt_stdio_output@@@2@@__crt_stdio_output@@AEAA_NXZ 00000001400d63d0 f i libucrt:output.obj
 0001:000d53d0       ?state_case_type@?$output_processor@DV?$string_output_adapter@D@__crt_stdio_output@@V?$format_validation_base@DV?$string_output_adapter@D@__crt_stdio_output@@@2@@__crt_stdio_output@@AEAA_NXZ 00000001400d63d0 f i libucrt:output.obj
 0001:000d5638       ?state_case_type@?$output_processor@_WV?$stream_output_adapter@_W@__crt_stdio_output@@V?$standard_base@_WV?$stream_output_adapter@_W@__crt_stdio_output@@@2@@__crt_stdio_output@@AEAA_NXZ 00000001400d6638 f i libucrt:output.obj
 0001:000d5918       ?state_case_type@?$output_processor@_WV?$string_output_adapter@_W@__crt_stdio_output@@V?$standard_base@_WV?$string_output_adapter@_W@__crt_stdio_output@@@2@@__crt_stdio_output@@AEAA_NXZ 00000001400d6918 f i libucrt:output.obj
 0001:000d5be4       ?type_case_Z@?$output_processor@DV?$stream_output_adapter@D@__crt_stdio_output@@V?$standard_base@DV?$stream_output_adapter@D@__crt_stdio_output@@@2@@__crt_stdio_output@@AEAA_NXZ 00000001400d6be4 f i libucrt:output.obj
 0001:000d5be4       ?type_case_Z@?$output_processor@DV?$string_output_adapter@D@__crt_stdio_output@@V?$format_validation_base@DV?$string_output_adapter@D@__crt_stdio_output@@@2@@__crt_stdio_output@@AEAA_NXZ 00000001400d6be4 f i libucrt:output.obj
 0001:000d5be4       ?type_case_Z@?$output_processor@DV?$string_output_adapter@D@__crt_stdio_output@@V?$standard_base@DV?$string_output_adapter@D@__crt_stdio_output@@@2@@__crt_stdio_output@@AEAA_NXZ 00000001400d6be4 f i libucrt:output.obj
 0001:000d5c58       ?type_case_Z@?$output_processor@_WV?$stream_output_adapter@_W@__crt_stdio_output@@V?$standard_base@_WV?$stream_output_adapter@_W@__crt_stdio_output@@@2@@__crt_stdio_output@@AEAA_NXZ 00000001400d6c58 f i libucrt:output.obj
 0001:000d5c58       ?type_case_Z@?$output_processor@_WV?$string_output_adapter@_W@__crt_stdio_output@@V?$standard_base@_WV?$string_output_adapter@_W@__crt_stdio_output@@@2@@__crt_stdio_output@@AEAA_NXZ 00000001400d6c58 f i libucrt:output.obj
 0001:000d5cd4       ?type_case_a@?$output_processor@DV?$string_output_adapter@D@__crt_stdio_output@@V?$format_validation_base@DV?$string_output_adapter@D@__crt_stdio_output@@@2@@__crt_stdio_output@@AEAA_NXZ 00000001400d6cd4 f i libucrt:output.obj
 0001:000d5cd4       ?type_case_a@?$output_processor@DV?$stream_output_adapter@D@__crt_stdio_output@@V?$standard_base@DV?$stream_output_adapter@D@__crt_stdio_output@@@2@@__crt_stdio_output@@AEAA_NXZ 00000001400d6cd4 f i libucrt:output.obj
 0001:000d5cd4       ?type_case_a@?$output_processor@DV?$string_output_adapter@D@__crt_stdio_output@@V?$standard_base@DV?$string_output_adapter@D@__crt_stdio_output@@@2@@__crt_stdio_output@@AEAA_NXZ 00000001400d6cd4 f i libucrt:output.obj
 0001:000d5eec       ?type_case_a@?$output_processor@_WV?$string_output_adapter@_W@__crt_stdio_output@@V?$standard_base@_WV?$string_output_adapter@_W@__crt_stdio_output@@@2@@__crt_stdio_output@@AEAA_NXZ 00000001400d6eec f i libucrt:output.obj
 0001:000d5eec       ?type_case_a@?$output_processor@_WV?$stream_output_adapter@_W@__crt_stdio_output@@V?$standard_base@_WV?$stream_output_adapter@_W@__crt_stdio_output@@@2@@__crt_stdio_output@@AEAA_NXZ 00000001400d6eec f i libucrt:output.obj
 0001:000d6128       ?type_case_c_tchar@?$output_processor@DV?$string_output_adapter@D@__crt_stdio_output@@V?$format_validation_base@DV?$string_output_adapter@D@__crt_stdio_output@@@2@@__crt_stdio_output@@AEAA_ND@Z 00000001400d7128 f i libucrt:output.obj
 0001:000d6128       ?type_case_c_tchar@?$output_processor@DV?$stream_output_adapter@D@__crt_stdio_output@@V?$standard_base@DV?$stream_output_adapter@D@__crt_stdio_output@@@2@@__crt_stdio_output@@AEAA_ND@Z 00000001400d7128 f i libucrt:output.obj
 0001:000d6128       ?type_case_c_tchar@?$output_processor@DV?$string_output_adapter@D@__crt_stdio_output@@V?$standard_base@DV?$string_output_adapter@D@__crt_stdio_output@@@2@@__crt_stdio_output@@AEAA_ND@Z 00000001400d7128 f i libucrt:output.obj
 0001:000d61e4       ?type_case_c_tchar@?$output_processor@_WV?$string_output_adapter@_W@__crt_stdio_output@@V?$standard_base@_WV?$string_output_adapter@_W@__crt_stdio_output@@@2@@__crt_stdio_output@@AEAA_N_W@Z 00000001400d71e4 f i libucrt:output.obj
 0001:000d61e4       ?type_case_c_tchar@?$output_processor@_WV?$stream_output_adapter@_W@__crt_stdio_output@@V?$standard_base@_WV?$stream_output_adapter@_W@__crt_stdio_output@@@2@@__crt_stdio_output@@AEAA_N_W@Z 00000001400d71e4 f i libucrt:output.obj
 0001:000d628c       ?type_case_integer@?$output_processor@DV?$string_output_adapter@D@__crt_stdio_output@@V?$standard_base@DV?$string_output_adapter@D@__crt_stdio_output@@@2@@__crt_stdio_output@@AEAA_NI_N@Z 00000001400d728c f i libucrt:output.obj
 0001:000d628c       ?type_case_integer@?$output_processor@DV?$string_output_adapter@D@__crt_stdio_output@@V?$format_validation_base@DV?$string_output_adapter@D@__crt_stdio_output@@@2@@__crt_stdio_output@@AEAA_NI_N@Z 00000001400d728c f i libucrt:output.obj
 0001:000d628c       ?type_case_integer@?$output_processor@DV?$stream_output_adapter@D@__crt_stdio_output@@V?$standard_base@DV?$stream_output_adapter@D@__crt_stdio_output@@@2@@__crt_stdio_output@@AEAA_NI_N@Z 00000001400d728c f i libucrt:output.obj
 0001:000d6454       ?type_case_integer@?$output_processor@_WV?$stream_output_adapter@_W@__crt_stdio_output@@V?$standard_base@_WV?$stream_output_adapter@_W@__crt_stdio_output@@@2@@__crt_stdio_output@@AEAA_NI_N@Z 00000001400d7454 f i libucrt:output.obj
 0001:000d6454       ?type_case_integer@?$output_processor@_WV?$string_output_adapter@_W@__crt_stdio_output@@V?$standard_base@_WV?$string_output_adapter@_W@__crt_stdio_output@@@2@@__crt_stdio_output@@AEAA_NI_N@Z 00000001400d7454 f i libucrt:output.obj
 0001:000d6620       ?type_case_n@?$output_processor@_WV?$string_output_adapter@_W@__crt_stdio_output@@V?$standard_base@_WV?$string_output_adapter@_W@__crt_stdio_output@@@2@@__crt_stdio_output@@AEAA_NXZ 00000001400d7620 f i libucrt:output.obj
 0001:000d6620       ?type_case_n@?$output_processor@DV?$string_output_adapter@D@__crt_stdio_output@@V?$format_validation_base@DV?$string_output_adapter@D@__crt_stdio_output@@@2@@__crt_stdio_output@@AEAA_NXZ 00000001400d7620 f i libucrt:output.obj
 0001:000d6620       ?type_case_n@?$output_processor@DV?$string_output_adapter@D@__crt_stdio_output@@V?$standard_base@DV?$string_output_adapter@D@__crt_stdio_output@@@2@@__crt_stdio_output@@AEAA_NXZ 00000001400d7620 f i libucrt:output.obj
 0001:000d6620       ?type_case_n@?$output_processor@_WV?$stream_output_adapter@_W@__crt_stdio_output@@V?$standard_base@_WV?$stream_output_adapter@_W@__crt_stdio_output@@@2@@__crt_stdio_output@@AEAA_NXZ 00000001400d7620 f i libucrt:output.obj
 0001:000d6620       ?type_case_n@?$output_processor@DV?$stream_output_adapter@D@__crt_stdio_output@@V?$standard_base@DV?$stream_output_adapter@D@__crt_stdio_output@@@2@@__crt_stdio_output@@AEAA_NXZ 00000001400d7620 f i libucrt:output.obj
 0001:000d66fc       ?type_case_s@?$output_processor@DV?$string_output_adapter@D@__crt_stdio_output@@V?$format_validation_base@DV?$string_output_adapter@D@__crt_stdio_output@@@2@@__crt_stdio_output@@AEAA_NXZ 00000001400d76fc f i libucrt:output.obj
 0001:000d66fc       ?type_case_s@?$output_processor@DV?$string_output_adapter@D@__crt_stdio_output@@V?$standard_base@DV?$string_output_adapter@D@__crt_stdio_output@@@2@@__crt_stdio_output@@AEAA_NXZ 00000001400d76fc f i libucrt:output.obj
 0001:000d66fc       ?type_case_s@?$output_processor@DV?$stream_output_adapter@D@__crt_stdio_output@@V?$standard_base@DV?$stream_output_adapter@D@__crt_stdio_output@@@2@@__crt_stdio_output@@AEAA_NXZ 00000001400d76fc f i libucrt:output.obj
 0001:000d6794       ?type_case_s@?$output_processor@_WV?$stream_output_adapter@_W@__crt_stdio_output@@V?$standard_base@_WV?$stream_output_adapter@_W@__crt_stdio_output@@@2@@__crt_stdio_output@@AEAA_NXZ 00000001400d7794 f i libucrt:output.obj
 0001:000d6794       ?type_case_s@?$output_processor@_WV?$string_output_adapter@_W@__crt_stdio_output@@V?$standard_base@_WV?$string_output_adapter@_W@__crt_stdio_output@@@2@@__crt_stdio_output@@AEAA_NXZ 00000001400d7794 f i libucrt:output.obj
 0001:000d685c       ?validate_stream_is_ansi_if_required@?$__acrt_stdio_char_traits@D@@SA_NQEAU_iobuf@@@Z 00000001400d785c f i libucrt:output.obj
 0001:000d68f8       ?write_stored_string_tchar@?$output_processor@DV?$stream_output_adapter@D@__crt_stdio_output@@V?$standard_base@DV?$stream_output_adapter@D@__crt_stdio_output@@@2@@__crt_stdio_output@@AEAA_ND@Z 00000001400d78f8 f i libucrt:output.obj
 0001:000d6a1c       ?write_stored_string_tchar@?$output_processor@DV?$string_output_adapter@D@__crt_stdio_output@@V?$format_validation_base@DV?$string_output_adapter@D@__crt_stdio_output@@@2@@__crt_stdio_output@@AEAA_ND@Z 00000001400d7a1c f i libucrt:output.obj
 0001:000d6a1c       ?write_stored_string_tchar@?$output_processor@DV?$string_output_adapter@D@__crt_stdio_output@@V?$standard_base@DV?$string_output_adapter@D@__crt_stdio_output@@@2@@__crt_stdio_output@@AEAA_ND@Z 00000001400d7a1c f i libucrt:output.obj
 0001:000d6af4       ?write_stored_string_tchar@?$output_processor@_WV?$stream_output_adapter@_W@__crt_stdio_output@@V?$standard_base@_WV?$stream_output_adapter@_W@__crt_stdio_output@@@2@@__crt_stdio_output@@AEAA_N_W@Z 00000001400d7af4 f i libucrt:output.obj
 0001:000d6bfc       ?write_stored_string_tchar@?$output_processor@_WV?$string_output_adapter@_W@__crt_stdio_output@@V?$standard_base@_WV?$string_output_adapter@_W@__crt_stdio_output@@@2@@__crt_stdio_output@@AEAA_N_W@Z 00000001400d7bfc f i libucrt:output.obj
 0001:000d6ce8       ?write_string@?$string_output_adapter@D@__crt_stdio_output@@QEBAXQEBDHQEAHAEAV__crt_deferred_errno_cache@@@Z 00000001400d7ce8 f i libucrt:output.obj
 0001:000d6d8c       ?write_string@?$string_output_adapter@_W@__crt_stdio_output@@QEBAXQEB_WHQEAHAEAV__crt_deferred_errno_cache@@@Z 00000001400d7d8c f i libucrt:output.obj
 0001:000d6e34       ?write_string_impl@?$output_adapter_common@DV?$stream_output_adapter@D@__crt_stdio_output@@@__crt_stdio_output@@IEBAXQEBDHQEAHAEAV__crt_deferred_errno_cache@@@Z 00000001400d7e34 f i libucrt:output.obj
 0001:000d6f2c       ?write_string_impl@?$output_adapter_common@_WV?$stream_output_adapter@_W@__crt_stdio_output@@@__crt_stdio_output@@IEBAXQEB_WHQEAHAEAV__crt_deferred_errno_cache@@@Z 00000001400d7f2c f i libucrt:output.obj
 0001:000d7030       __stdio_common_vfprintf    00000001400d8030 f   libucrt:output.obj
 0001:000d70bc       __stdio_common_vfwprintf   00000001400d80bc f   libucrt:output.obj
 0001:000d7148       __stdio_common_vsprintf    00000001400d8148 f   libucrt:output.obj
 0001:000d7150       __stdio_common_vsprintf_s  00000001400d8150 f   libucrt:output.obj
 0001:000d71b4       __stdio_common_vswprintf   00000001400d81b4 f   libucrt:output.obj
 0001:000d71bc       terminate                  00000001400d81bc f   libucrt:terminate.obj
 0001:000d71dc       localeconv                 00000001400d81dc f   libucrt:localeconv.obj
 0001:000d7210       free                       00000001400d8210 f   libucrt:free.obj
 0001:000d7224       frexp                      00000001400d8224 f   libucrt:frexp.obj
 0001:000d731c       __acrt_call_reportfault    00000001400d831c f   libucrt:invalid_parameter.obj
 0001:000d7478       __acrt_initialize_invalid_parameter_handler 00000001400d8478 f   libucrt:invalid_parameter.obj
 0001:000d7480       _invalid_parameter         00000001400d8480 f   libucrt:invalid_parameter.obj
 0001:000d7530       _invalid_parameter_noinfo  00000001400d8530 f   libucrt:invalid_parameter.obj
 0001:000d7550       _invalid_parameter_noinfo_noreturn 00000001400d8550 f   libucrt:invalid_parameter.obj
 0001:000d7580       _invoke_watson             00000001400d8580 f   libucrt:invalid_parameter.obj
 0001:000d7ce0       ??$ftprintf@PEAU_iobuf@@PEB_WAEBQEB_WAEBQEB_WAEBI@?$__crt_char_traits@_W@@SAH$$QEAPEAU_iobuf@@$$QEAPEB_WAEBQEB_W2AEBI@Z 00000001400d8ce0 f i libucrt:assert.obj
 0001:000d7d08       _wassert                   00000001400d8d08 f   libucrt:assert.obj
 0001:000d7d7c       swprintf                   00000001400d8d7c f i libucrt:assert.obj
 0001:000d7dd0       __acrt_initialize_stdio    00000001400d8dd0 f   libucrt:_file.obj
 0001:000d7ef0       __acrt_iob_func            00000001400d8ef0 f   libucrt:_file.obj
 0001:000d7f04       __acrt_uninitialize_stdio  00000001400d8f04 f   libucrt:_file.obj
 0001:000d7f60       _get_stream_buffer_pointers 00000001400d8f60 f   libucrt:_file.obj
 0001:000d7fa8       _lock_file                 00000001400d8fa8 f   libucrt:_file.obj
 0001:000d7fb4       _unlock_file               00000001400d8fb4 f   libucrt:_file.obj
 0001:000d7fc0       malloc                     00000001400d8fc0 f   libucrt:malloc.obj
 0001:000d8234       __acrt_initialize_thread_local_exit_callback 00000001400d9234 f   libucrt:exit.obj
 0001:000d823c       _c_exit                    00000001400d923c f   libucrt:exit.obj
 0001:000d824c       _cexit                     00000001400d924c f   libucrt:exit.obj
 0001:000d825c       _exit                      00000001400d925c f   libucrt:exit.obj
 0001:000d8268       _register_thread_local_exe_atexit_callback 00000001400d9268 f   libucrt:exit.obj
 0001:000d82a4       exit                       00000001400d92a4 f   libucrt:exit.obj
 0001:000d82b0       roundf                     00000001400d92b0 f   libucrt:roundf.obj
 0001:000d8318       rand                       00000001400d9318 f   libucrt:rand.obj
 0001:000d8344       srand                      00000001400d9344 f   libucrt:rand.obj
 0001:000d889c       _ftelli64                  00000001400d989c f   libucrt:ftell.obj
 0001:000d88a4       _ftelli64_nolock           00000001400d98a4 f   libucrt:ftell.obj
 0001:000d88ac       ftell                      00000001400d98ac f   libucrt:ftell.obj
 0001:000d88b4       _tolower_l                 00000001400d98b4 f   libucrt:tolower_toupper.obj
 0001:000d89f0       _toupper_l                 00000001400d99f0 f   libucrt:tolower_toupper.obj
 0001:000d8b2c       tolower                    00000001400d9b2c f   libucrt:tolower_toupper.obj
 0001:000d8b58       toupper                    00000001400d9b58 f   libucrt:tolower_toupper.obj
 0001:000d8da0       __acrt_stdio_flush_nolock  00000001400d9da0 f   libucrt:fflush.obj
 0001:000d8e1c       _fflush_nolock             00000001400d9e1c f   libucrt:fflush.obj
 0001:000d8e68       _flushall                  00000001400d9e68 f   libucrt:fflush.obj
 0001:000d8e70       fflush                     00000001400d9e70 f   libucrt:fflush.obj
 0001:000d8ed8       _fclose_nolock             00000001400d9ed8 f   libucrt:fclose.obj
 0001:000d8f5c       fclose                     00000001400d9f5c f   libucrt:fclose.obj
 0001:000d91c8       _fseeki64                  00000001400da1c8 f   libucrt:fseek.obj
 0001:000d91d0       fseek                      00000001400da1d0 f   libucrt:fseek.obj
 0001:000d91e0       qsort                      00000001400da1e0 f   libucrt:qsort.obj
 0001:000d95a0       strncpy                    00000001400da5a0 f   libucrt:strncpy.obj
 0001:000d97a8       _fwrite_nolock             00000001400da7a8 f   libucrt:fwrite.obj
 0001:000d9954       fwrite                     00000001400da954 f   libucrt:fwrite.obj
 0001:000d9b60       _fsopen                    00000001400dab60 f   libucrt:fopen.obj
 0001:000d9b68       _wfopen                    00000001400dab68 f   libucrt:fopen.obj
 0001:000d9b74       fopen                      00000001400dab74 f   libucrt:fopen.obj
 0001:000d9b80       _fread_nolock_s            00000001400dab80 f   libucrt:fread.obj
 0001:000d9e10       fread                      00000001400dae10 f   libucrt:fread.obj
 0001:000d9e30       fread_s                    00000001400dae30 f   libucrt:fread.obj
 0001:000d9f18       ??$is_overflow_condition@_K@__crt_strtox@@YA_NI_K@Z 00000001400daf18 f i libucrt:input.obj
 0001:000d9f48       ??$parse_floating_point@V?$input_adapter_character_source@V?$stream_input_adapter@D@__crt_stdio_input@@@__crt_strtox@@M@__crt_strtox@@YA?AW4SLD_STATUS@@QEAU__crt_locale_pointers@@V?$input_adapter_character_source@V?$stream_input_adapter@D@__crt_stdio_input@@@0@QEAM@Z 00000001400daf48 f i libucrt:input.obj
 0001:000d9ff0       ??$parse_floating_point@V?$input_adapter_character_source@V?$stream_input_adapter@D@__crt_stdio_input@@@__crt_strtox@@N@__crt_strtox@@YA?AW4SLD_STATUS@@QEAU__crt_locale_pointers@@V?$input_adapter_character_source@V?$stream_input_adapter@D@__crt_stdio_input@@@0@QEAN@Z 00000001400daff0 f i libucrt:input.obj
 0001:000da098       ??$parse_floating_point@V?$input_adapter_character_source@V?$string_input_adapter@D@__crt_stdio_input@@@__crt_strtox@@M@__crt_strtox@@YA?AW4SLD_STATUS@@QEAU__crt_locale_pointers@@V?$input_adapter_character_source@V?$string_input_adapter@D@__crt_stdio_input@@@0@QEAM@Z 00000001400db098 f i libucrt:input.obj
 0001:000da140       ??$parse_floating_point@V?$input_adapter_character_source@V?$string_input_adapter@D@__crt_stdio_input@@@__crt_strtox@@N@__crt_strtox@@YA?AW4SLD_STATUS@@QEAU__crt_locale_pointers@@V?$input_adapter_character_source@V?$string_input_adapter@D@__crt_stdio_input@@@0@QEAN@Z 00000001400db140 f i libucrt:input.obj
 0001:000da1e8       ??$parse_floating_point_from_source@V?$input_adapter_character_source@V?$stream_input_adapter@D@__crt_stdio_input@@@__crt_strtox@@@__crt_strtox@@YA?AW4floating_point_parse_result@0@QEAU__crt_locale_pointers@@AEAV?$input_adapter_character_source@V?$stream_input_adapter@D@__crt_stdio_input@@@0@AEAUfloating_point_string@0@@Z 00000001400db1e8 f i libucrt:input.obj
 0001:000daa50       ??$parse_floating_point_from_source@V?$input_adapter_character_source@V?$string_input_adapter@D@__crt_stdio_input@@@__crt_strtox@@@__crt_strtox@@YA?AW4floating_point_parse_result@0@QEAU__crt_locale_pointers@@AEAV?$input_adapter_character_source@V?$string_input_adapter@D@__crt_stdio_input@@@0@AEAUfloating_point_string@0@@Z 00000001400dba50 f i libucrt:input.obj
 0001:000db28c       ??$parse_floating_point_possible_infinity@DV?$input_adapter_character_source@V?$stream_input_adapter@D@__crt_stdio_input@@@__crt_strtox@@_K@__crt_strtox@@YA?AW4floating_point_parse_result@0@AEADAEAV?$input_adapter_character_source@V?$stream_input_adapter@D@__crt_stdio_input@@@0@_K@Z 00000001400dc28c f i libucrt:input.obj
 0001:000db4fc       ??$parse_floating_point_possible_infinity@DV?$input_adapter_character_source@V?$string_input_adapter@D@__crt_stdio_input@@@__crt_strtox@@_K@__crt_strtox@@YA?AW4floating_point_parse_result@0@AEADAEAV?$input_adapter_character_source@V?$string_input_adapter@D@__crt_stdio_input@@@0@_K@Z 00000001400dc4fc f i libucrt:input.obj
 0001:000db734       ??$parse_floating_point_possible_nan@DV?$input_adapter_character_source@V?$stream_input_adapter@D@__crt_stdio_input@@@__crt_strtox@@_K@__crt_strtox@@YA?AW4floating_point_parse_result@0@AEADAEAV?$input_adapter_character_source@V?$stream_input_adapter@D@__crt_stdio_input@@@0@_K@Z 00000001400dc734 f i libucrt:input.obj
 0001:000db9d0       ??$parse_floating_point_possible_nan@DV?$input_adapter_character_source@V?$string_input_adapter@D@__crt_stdio_input@@@__crt_strtox@@_K@__crt_strtox@@YA?AW4floating_point_parse_result@0@AEADAEAV?$input_adapter_character_source@V?$string_input_adapter@D@__crt_stdio_input@@@0@_K@Z 00000001400dc9d0 f i libucrt:input.obj
 0001:000dbcf0       ??$parse_floating_point_possible_nan_is_ind@DV?$input_adapter_character_source@V?$stream_input_adapter@D@__crt_stdio_input@@@__crt_strtox@@@__crt_strtox@@YA_NAEADAEAV?$input_adapter_character_source@V?$stream_input_adapter@D@__crt_stdio_input@@@0@@Z 00000001400dccf0 f i libucrt:input.obj
 0001:000dbd88       ??$parse_floating_point_possible_nan_is_ind@DV?$input_adapter_character_source@V?$string_input_adapter@D@__crt_stdio_input@@@__crt_strtox@@@__crt_strtox@@YA_NAEADAEAV?$input_adapter_character_source@V?$string_input_adapter@D@__crt_stdio_input@@@0@@Z 00000001400dcd88 f i libucrt:input.obj
 0001:000dbe00       ??$parse_floating_point_possible_nan_is_snan@DV?$input_adapter_character_source@V?$stream_input_adapter@D@__crt_stdio_input@@@__crt_strtox@@@__crt_strtox@@YA_NAEADAEAV?$input_adapter_character_source@V?$stream_input_adapter@D@__crt_stdio_input@@@0@@Z 00000001400dce00 f i libucrt:input.obj
 0001:000dbe98       ??$parse_floating_point_possible_nan_is_snan@DV?$input_adapter_character_source@V?$string_input_adapter@D@__crt_stdio_input@@@__crt_strtox@@@__crt_strtox@@YA_NAEADAEAV?$input_adapter_character_source@V?$string_input_adapter@D@__crt_stdio_input@@@0@@Z 00000001400dce98 f i libucrt:input.obj
 0001:000dbf10       ??$parse_floating_point_write_result@M@__crt_strtox@@YA?AW4SLD_STATUS@@W4floating_point_parse_result@0@AEBUfloating_point_string@0@QEAM@Z 00000001400dcf10 f i libucrt:input.obj
 0001:000dc080       ??$parse_floating_point_write_result@N@__crt_strtox@@YA?AW4SLD_STATUS@@W4floating_point_parse_result@0@AEBUfloating_point_string@0@QEAN@Z 00000001400dd080 f i libucrt:input.obj
 0001:000dc260       ??$parse_integer@_KV?$input_adapter_character_source@V?$stream_input_adapter@D@__crt_stdio_input@@@__crt_strtox@@@__crt_strtox@@YA_KQEAU__crt_locale_pointers@@V?$input_adapter_character_source@V?$stream_input_adapter@D@__crt_stdio_input@@@0@H_N@Z 00000001400dd260 f i libucrt:input.obj
 0001:000dc6cc       ??$parse_integer@_KV?$input_adapter_character_source@V?$string_input_adapter@D@__crt_stdio_input@@@__crt_strtox@@@__crt_strtox@@YA_KQEAU__crt_locale_pointers@@V?$input_adapter_character_source@V?$string_input_adapter@D@__crt_stdio_input@@@0@H_N@Z 00000001400dd6cc f i libucrt:input.obj
 0001:000dcad8       ??$process_floating_point_specifier_t@M@?$input_processor@DV?$stream_input_adapter@D@__crt_stdio_input@@@__crt_stdio_input@@AEAA_NXZ 00000001400ddad8 f i libucrt:input.obj
 0001:000dcb78       ??$process_floating_point_specifier_t@M@?$input_processor@DV?$string_input_adapter@D@__crt_stdio_input@@@__crt_stdio_input@@AEAA_NXZ 00000001400ddb78 f i libucrt:input.obj
 0001:000dcc1c       ??$process_floating_point_specifier_t@N@?$input_processor@DV?$stream_input_adapter@D@__crt_stdio_input@@@__crt_stdio_input@@AEAA_NXZ 00000001400ddc1c f i libucrt:input.obj
 0001:000dccbc       ??$process_floating_point_specifier_t@N@?$input_processor@DV?$string_input_adapter@D@__crt_stdio_input@@@__crt_stdio_input@@AEAA_NXZ 00000001400ddcbc f i libucrt:input.obj
 0001:000dcd64       ??$process_string_specifier_tchar@D@?$input_processor@DV?$stream_input_adapter@D@__crt_stdio_input@@@__crt_stdio_input@@AEAA_NW4conversion_mode@1@D@Z 00000001400ddd64 f i libucrt:input.obj
 0001:000dcf00       ??$process_string_specifier_tchar@D@?$input_processor@DV?$string_input_adapter@D@__crt_stdio_input@@@__crt_stdio_input@@AEAA_NW4conversion_mode@1@D@Z 00000001400ddf00 f i libucrt:input.obj
 0001:000dd0bc       ??$process_string_specifier_tchar@_W@?$input_processor@DV?$stream_input_adapter@D@__crt_stdio_input@@@__crt_stdio_input@@AEAA_NW4conversion_mode@1@_W@Z 00000001400de0bc f i libucrt:input.obj
 0001:000dd290       ??$process_string_specifier_tchar@_W@?$input_processor@DV?$string_input_adapter@D@__crt_stdio_input@@@__crt_stdio_input@@AEAA_NW4conversion_mode@1@_W@Z 00000001400de290 f i libucrt:input.obj
 0001:000dd47c       ??$skip_whitespace@Vstream_input_adapter@__crt_stdio_input@@D@__crt_stdio_input@@YAHAEAV?$stream_input_adapter@D@0@QEAU__crt_locale_pointers@@@Z 00000001400de47c f i libucrt:input.obj
 0001:000dd4cc       ??$skip_whitespace@Vstring_input_adapter@__crt_stdio_input@@D@__crt_stdio_input@@YAHAEAV?$string_input_adapter@D@0@QEAU__crt_locale_pointers@@@Z 00000001400de4cc f i libucrt:input.obj
 0001:000dd68c       ?advance@?$format_string_parser@D@__crt_stdio_input@@QEAA_NXZ 00000001400de68c f i libucrt:input.obj
 0001:000dd854       ?as_double@floating_point_value@__crt_strtox@@QEBAAEANXZ 00000001400de854 f i libucrt:input.obj
 0001:000dd890       ?as_float@floating_point_value@__crt_strtox@@QEBAAEAMXZ 00000001400de890 f i libucrt:input.obj
 0001:000dd8cc       ?assemble_floating_point_value@__crt_strtox@@YA?AW4SLD_STATUS@@_KH_N1AEBVfloating_point_value@1@@Z 00000001400de8cc f i libucrt:input.obj
 0001:000ddc74       ?assemble_floating_point_value_from_big_integer@__crt_strtox@@YA?AW4SLD_STATUS@@AEBUbig_integer@1@I_N1AEBVfloating_point_value@1@@Z 00000001400dec74 f i libucrt:input.obj
 0001:000dddd8       ?convert_decimal_string_to_floating_type_common@__crt_strtox@@YA?AW4SLD_STATUS@@AEBUfloating_point_string@1@AEBVfloating_point_value@1@@Z 00000001400dedd8 f i libucrt:input.obj
 0001:000dfb5c       ?convert_hexadecimal_string_to_floating_type_common@__crt_strtox@@YA?AW4SLD_STATUS@@AEBUfloating_point_string@1@AEBVfloating_point_value@1@@Z 00000001400e0b5c f i libucrt:input.obj
 0001:000dfc10       ?divide@__crt_strtox@@YA_KAEAUbig_integer@1@AEBU21@@Z 00000001400e0c10 f i libucrt:input.obj
 0001:000e003c       ?length@?$format_string_parser@D@__crt_stdio_input@@QEBA_KXZ 00000001400e103c f i libucrt:input.obj
 0001:000e00d8       ?process@?$input_processor@DV?$stream_input_adapter@D@__crt_stdio_input@@@__crt_stdio_input@@QEAAHXZ 00000001400e10d8 f i libucrt:input.obj
 0001:000e0198       ?process@?$input_processor@DV?$string_input_adapter@D@__crt_stdio_input@@@__crt_stdio_input@@QEAAHXZ 00000001400e1198 f i libucrt:input.obj
 0001:000e0284       ?process_conversion_specifier@?$input_processor@DV?$stream_input_adapter@D@__crt_stdio_input@@@__crt_stdio_input@@AEAA_NXZ 00000001400e1284 f i libucrt:input.obj
 0001:000e03a0       ?process_conversion_specifier@?$input_processor@DV?$string_input_adapter@D@__crt_stdio_input@@@__crt_stdio_input@@AEAA_NXZ 00000001400e13a0 f i libucrt:input.obj
 0001:000e04c0       ?process_floating_point_specifier@?$input_processor@DV?$stream_input_adapter@D@__crt_stdio_input@@@__crt_stdio_input@@AEAA_NXZ 00000001400e14c0 f i libucrt:input.obj
 0001:000e0524       ?process_floating_point_specifier@?$input_processor@DV?$string_input_adapter@D@__crt_stdio_input@@@__crt_stdio_input@@AEAA_NXZ 00000001400e1524 f i libucrt:input.obj
 0001:000e0594       ?process_integer_specifier@?$input_processor@DV?$stream_input_adapter@D@__crt_stdio_input@@@__crt_stdio_input@@AEAA_NI_N@Z 00000001400e1594 f i libucrt:input.obj
 0001:000e0640       ?process_integer_specifier@?$input_processor@DV?$string_input_adapter@D@__crt_stdio_input@@@__crt_stdio_input@@AEAA_NI_N@Z 00000001400e1640 f i libucrt:input.obj
 0001:000e06f8       ?process_literal_character_tchar@?$input_processor@DV?$stream_input_adapter@D@__crt_stdio_input@@@__crt_stdio_input@@AEAA_ND@Z 00000001400e16f8 f i libucrt:input.obj
 0001:000e076c       ?process_literal_character_tchar@?$input_processor@DV?$string_input_adapter@D@__crt_stdio_input@@@__crt_stdio_input@@AEAA_ND@Z 00000001400e176c f i libucrt:input.obj
 0001:000e07f0       ?process_state@?$input_processor@DV?$stream_input_adapter@D@__crt_stdio_input@@@__crt_stdio_input@@AEAA_NXZ 00000001400e17f0 f i libucrt:input.obj
 0001:000e08ac       ?process_state@?$input_processor@DV?$string_input_adapter@D@__crt_stdio_input@@@__crt_stdio_input@@AEAA_NXZ 00000001400e18ac f i libucrt:input.obj
 0001:000e0964       ?process_string_specifier@?$input_processor@DV?$stream_input_adapter@D@__crt_stdio_input@@@__crt_stdio_input@@AEAA_NW4conversion_mode@2@@Z 00000001400e1964 f i libucrt:input.obj
 0001:000e09e4       ?process_string_specifier@?$input_processor@DV?$string_input_adapter@D@__crt_stdio_input@@@__crt_stdio_input@@AEAA_NW4conversion_mode@2@@Z 00000001400e19e4 f i libucrt:input.obj
 0001:000e0a70       ?scan_conversion_specifier@?$format_string_parser@D@__crt_stdio_input@@AEAA_NXZ 00000001400e1a70 f i libucrt:input.obj
 0001:000e0c14       ?scan_optional_field_width@?$format_string_parser@D@__crt_stdio_input@@AEAA_NXZ 00000001400e1c14 f i libucrt:input.obj
 0001:000e0cbc       ?scan_optional_length_modifier@?$format_string_parser@D@__crt_stdio_input@@AEAAXXZ 00000001400e1cbc f i libucrt:input.obj
 0001:000e0df4       ?scan_scanset_range@?$format_string_parser@D@__crt_stdio_input@@AEAA_NXZ 00000001400e1df4 f i libucrt:input.obj
 0001:000e0fa8       ?write_character@?$input_processor@DV?$stream_input_adapter@D@__crt_stdio_input@@@__crt_stdio_input@@AEAA_NQEFA_W_KAEAPEFA_WAEA_KD@Z 00000001400e1fa8 f i libucrt:input.obj
 0001:000e103c       ?write_character@?$input_processor@DV?$string_input_adapter@D@__crt_stdio_input@@@__crt_stdio_input@@AEAA_NQEFA_W_KAEAPEFA_WAEA_KD@Z 00000001400e203c f i libucrt:input.obj
 0001:000e10d4       ?write_integer@?$input_processor@DV?$stream_input_adapter@D@__crt_stdio_input@@@__crt_stdio_input@@AEAA_N_K@Z 00000001400e20d4 f i libucrt:input.obj
 0001:000e1148       ?write_integer@?$input_processor@DV?$string_input_adapter@D@__crt_stdio_input@@@__crt_stdio_input@@AEAA_N_K@Z 00000001400e2148 f i libucrt:input.obj
 0001:000e11c0       __stdio_common_vfscanf     00000001400e21c0 f   libucrt:input.obj
 0001:000e124c       __stdio_common_vsscanf     00000001400e224c f   libucrt:input.obj
 0001:000e1374       _ischartype_l              00000001400e2374 f i libucrt:input.obj
 0001:000e1490       strncmp                    00000001400e2490 f   libucrt:strncmp.obj
 0001:000e1584       ??$parse_floating_point@V?$c_string_character_source@D@__crt_strtox@@N@__crt_strtox@@YA?AW4SLD_STATUS@@QEAU__crt_locale_pointers@@V?$c_string_character_source@D@0@QEAN@Z 00000001400e2584 f i libucrt:atof.obj
 0001:000e1624       ??$parse_floating_point_from_source@V?$c_string_character_source@D@__crt_strtox@@@__crt_strtox@@YA?AW4floating_point_parse_result@0@QEAU__crt_locale_pointers@@AEAV?$c_string_character_source@D@0@AEAUfloating_point_string@0@@Z 00000001400e2624 f i libucrt:atof.obj
 0001:000e1afc       ??$parse_floating_point_possible_infinity@DV?$c_string_character_source@D@__crt_strtox@@PEBD@__crt_strtox@@YA?AW4floating_point_parse_result@0@AEADAEAV?$c_string_character_source@D@0@PEBD@Z 00000001400e2afc f i libucrt:atof.obj
 0001:000e1c58       ??$parse_floating_point_possible_nan@DV?$c_string_character_source@D@__crt_strtox@@PEBD@__crt_strtox@@YA?AW4floating_point_parse_result@0@AEADAEAV?$c_string_character_source@D@0@PEBD@Z 00000001400e2c58 f i libucrt:atof.obj
 0001:000e1e44       ??$parse_floating_point_possible_nan_is_ind@DV?$c_string_character_source@D@__crt_strtox@@@__crt_strtox@@YA_NAEADAEAV?$c_string_character_source@D@0@@Z 00000001400e2e44 f i libucrt:atof.obj
 0001:000e1e88       ??$parse_floating_point_possible_nan_is_snan@DV?$c_string_character_source@D@__crt_strtox@@@__crt_strtox@@YA_NAEADAEAV?$c_string_character_source@D@0@@Z 00000001400e2e88 f i libucrt:atof.obj
 0001:000e1ecc       atof                       00000001400e2ecc f   libucrt:atof.obj
 0001:000e1ed4       _fputc_nolock              00000001400e2ed4 f   libucrt:fputc.obj
 0001:000e1eec       fputc                      00000001400e2eec f   libucrt:fputc.obj
 0001:000e2010       _fgetc_nolock              00000001400e3010 f   libucrt:fgetc.obj
 0001:000e2054       _getc_nolock               00000001400e3054 f   libucrt:fgetc.obj
 0001:000e205c       fgetc                      00000001400e305c f   libucrt:fgetc.obj
 0001:000e2164       getc                       00000001400e3164 f   libucrt:fgetc.obj
 0001:000e216c       fgetpos                    00000001400e316c f   libucrt:fgetpos.obj
 0001:000e22d8       setvbuf                    00000001400e32d8 f   libucrt:setvbuf.obj
 0001:000e2374       ??$parse_integer@KV?$c_string_character_source@D@__crt_strtox@@@__crt_strtox@@YAKQEAU__crt_locale_pointers@@V?$c_string_character_source@D@0@H_N@Z 00000001400e3374 f i libucrt:atox.obj
 0001:000e267c       ??$parse_integer@KV?$c_string_character_source@_W@__crt_strtox@@@__crt_strtox@@YAKQEAU__crt_locale_pointers@@V?$c_string_character_source@_W@0@H_N@Z 00000001400e367c f i libucrt:atox.obj
 0001:000e2d24       ??$parse_integer@_KV?$c_string_character_source@D@__crt_strtox@@@__crt_strtox@@YA_KQEAU__crt_locale_pointers@@V?$c_string_character_source@D@0@H_N@Z 00000001400e3d24 f i libucrt:atox.obj
 0001:000e3014       _wtol                      00000001400e4014 f   libucrt:atox.obj
 0001:000e3040       atol                       00000001400e4040 f   libucrt:atox.obj
 0001:000e3040       atoi                       00000001400e4040 f   libucrt:atox.obj
 0001:000e306c       _ungetc_nolock             00000001400e406c f   libucrt:ungetc.obj
 0001:000e3194       ungetc                     00000001400e4194 f   libucrt:ungetc.obj
 0001:000e31ec       fsetpos                    00000001400e41ec f   libucrt:fsetpos.obj
 0001:000e3224       realloc                    00000001400e4224 f   libucrt:realloc.obj
 0001:000e322c       strtol                     00000001400e422c f   libucrt:strtox.obj
 0001:000e3258       strtoull                   00000001400e4258 f   libucrt:strtox.obj
 0001:000e3284       wcstol                     00000001400e4284 f   libucrt:strtox.obj
 0001:000e32b0       ldexp                      00000001400e42b0 f   libucrt:ldexp.obj
 0001:000e3420       feof                       00000001400e4420 f   libucrt:feoferr.obj
 0001:000e344c       ferror                     00000001400e444c f   libucrt:feoferr.obj
 0001:000e3478       sqrtf                      00000001400e4478 f   libucrt:sqrtf.obj
 0001:000e3530       cosf                       00000001400e4530 f   libucrt:cosf.obj
 0001:000e3a30       sinf                       00000001400e4a30 f   libucrt:sinf.obj
 0001:000e4128       acosf                      00000001400e5128 f   libucrt:acosf.obj
 0001:000e4374       __acrt_errno_from_os_error 00000001400e5374 f   libucrt:errno.obj
 0001:000e43bc       __acrt_errno_map_os_error  00000001400e53bc f   libucrt:errno.obj
 0001:000e440c       __doserrno                 00000001400e540c f   libucrt:errno.obj
 0001:000e442c       _errno                     00000001400e542c f   libucrt:errno.obj
 0001:000e4540       freopen                    00000001400e5540 f   libucrt:freopen.obj
 0001:000e4570       strerror                   00000001400e5570 f   libucrt:strerror.obj
 0001:000e46c0       strtod                     00000001400e56c0 f   libucrt:strtod.obj
 0001:000e4770       strpbrk                    00000001400e5770 f   libucrt:strpbrk.obj
 0001:000e4b50       floor                      00000001400e5b50 f   libucrt:floor.obj
 0001:000e4c00       pow                        00000001400e5c00 f   libucrt:pow.obj
 0001:000e6328       _time64                    00000001400e7328 f   libucrt:time.obj
 0001:000e6368       abort                      00000001400e7368 f   libucrt:abort.obj
 0001:000e63c0       _strcoll_l                 00000001400e73c0 f   libucrt:strcoll.obj
 0001:000e6488       strcoll                    00000001400e7488 f   libucrt:strcoll.obj
 0001:000e6490       isalnum                    00000001400e7490 f i libucrt:_ctype.obj
 0001:000e6500       isalpha                    00000001400e7500 f i libucrt:_ctype.obj
 0001:000e6570       iscntrl                    00000001400e7570 f i libucrt:_ctype.obj
 0001:000e65dc       isdigit                    00000001400e75dc f i libucrt:_ctype.obj
 0001:000e6648       isgraph                    00000001400e7648 f i libucrt:_ctype.obj
 0001:000e66b8       islower                    00000001400e76b8 f i libucrt:_ctype.obj
 0001:000e6724       ispunct                    00000001400e7724 f i libucrt:_ctype.obj
 0001:000e6790       isspace                    00000001400e7790 f i libucrt:_ctype.obj
 0001:000e67fc       isupper                    00000001400e77fc f i libucrt:_ctype.obj
 0001:000e6868       isxdigit                   00000001400e7868 f i libucrt:_ctype.obj
 0001:000e69a0       strspn                     00000001400e79a0 f   libucrt:strspn.obj
 0001:000e6d64       clearerr                   00000001400e7d64 f   libucrt:clearerr.obj
 0001:000e6d6c       clearerr_s                 00000001400e7d6c f   libucrt:clearerr.obj
 0001:000e6ee0       fgets                      00000001400e7ee0 f   libucrt:fgets.obj
 0001:000e75bc       _pclose                    00000001400e85bc f   libucrt:popen.obj
 0001:000e7694       _popen                     00000001400e8694 f   libucrt:popen.obj
 0001:000e7c14       __acrt_stdio_free_tmpfile_name_buffers_nolock 00000001400e8c14 f   libucrt:tmpfile.obj
 0001:000e7c9c       tmpfile                    00000001400e8c9c f   libucrt:tmpfile.obj
 0001:000e7cc0       tmpnam                     00000001400e8cc0 f   libucrt:tmpfile.obj
 0001:000e7fc8       setlocale                  00000001400e8fc8 f   libucrt:setlocale.obj
 0001:000e82ec       _dupenv_s                  00000001400e92ec f   libucrt:getenv.obj
 0001:000e830c       getenv                     00000001400e930c f   libucrt:getenv.obj
 0001:000e8314       getenv_s                   00000001400e9314 f   libucrt:getenv.obj
 0001:000e831c       system                     00000001400e931c f   libucrt:system.obj
 0001:000e8454       __acrt_initialize_clock    00000001400e9454 f   libucrt:clock.obj
 0001:000e84a8       clock                      00000001400e94a8 f   libucrt:clock.obj
 0001:000e850c       _difftime64                00000001400e950c f   libucrt:difftime.obj
 0001:000e853c       ??$__crt_time_is_leap_year@H@@YA_NH@Z 00000001400e953c f i libucrt:gmtime.obj
 0001:000e8820       __getgmtimebuf             00000001400e9820 f   libucrt:gmtime.obj
 0001:000e886c       _gmtime64                  00000001400e986c f   libucrt:gmtime.obj
 0001:000e88b4       _gmtime64_s                00000001400e98b4 f   libucrt:gmtime.obj
 0001:000e8bb4       _localtime64               00000001400e9bb4 f   libucrt:localtime.obj
 0001:000e8bfc       _localtime64_s             00000001400e9bfc f   libucrt:localtime.obj
 0001:000e8c04       ??$__crt_time_is_leap_year@_J@@YA_N_J@Z 00000001400e9c04 f i libucrt:mktime.obj
 0001:000e8fd0       _mktime64                  00000001400e9fd0 f   libucrt:mktime.obj
 0001:000e8fd8       ??$__acrt_mbs_to_wcs_cp@U__crt_win32_buffer_internal_dynamic_resizing@@@@YAHQEBDAEAV?$__crt_win32_buffer@_WU__crt_win32_buffer_internal_dynamic_resizing@@@@I@Z 00000001400e9fd8 f i libucrt:strftime.obj
 0001:000e9150       ??$__acrt_wcs_to_mbs_cp@U__crt_win32_buffer_no_resizing@@@@YAHQEB_WAEAV?$__crt_win32_buffer@DU__crt_win32_buffer_no_resizing@@@@I@Z 00000001400ea150 f i libucrt:strftime.obj
 0001:000e9264       _Strftime_l                00000001400ea264 f   libucrt:strftime.obj
 0001:000e93c8       strftime                   00000001400ea3c8 f   libucrt:strftime.obj
 0001:000e93e4       remove                     00000001400ea3e4 f   libucrt:unlink.obj
 0001:000e94c4       rename                     00000001400ea4c4 f   libucrt:rename.obj
 0001:000e9604       modf                       00000001400ea604 f   libucrt:modf.obj
 0001:000e96e4       acos                       00000001400ea6e4 f   libucrt:acos.obj
 0001:000e9988       asin                       00000001400ea988 f   libucrt:asin.obj
 0001:000e9c14       atan                       00000001400eac14 f   libucrt:atan.obj
 0001:000e9e28       atan2                      00000001400eae28 f   libucrt:atan2.obj
 0001:000ea550       ceil                       00000001400eb550 f   libucrt:ceil.obj
 0001:000ea620       cos                        00000001400eb620 f   libucrt:cos.obj
 0001:000eab9c       cosh                       00000001400ebb9c f   libucrt:cosh.obj
 0001:000eb030       exp                        00000001400ec030 f   libucrt:exp.obj
 0001:000eb430       fmod                       00000001400ec430 f   libucrt:fmod.obj
 0001:000eb710       log                        00000001400ec710 f   libucrt:log.obj
 0001:000ebc40       log10                      00000001400ecc40 f   libucrt:log10.obj
 0001:000ec1f0       sin                        00000001400ed1f0 f   libucrt:sin.obj
 0001:000ec75c       sinh                       00000001400ed75c f   libucrt:sinh.obj
 0001:000ecc2c       sqrt                       00000001400edc2c f   libucrt:sqrt.obj
 0001:000ecd00       tan                        00000001400edd00 f   libucrt:tan.obj
 0001:000ed5bc       tanh                       00000001400ee5bc f   libucrt:tanh.obj
 0001:000ed81c       __acrt_initialize_locks    00000001400ee81c f   libucrt:locks.obj
 0001:000ed864       __acrt_lock                00000001400ee864 f   libucrt:locks.obj
 0001:000ed880       __acrt_uninitialize_locks  00000001400ee880 f   libucrt:locks.obj
 0001:000ed8b8       __acrt_unlock              00000001400ee8b8 f   libucrt:locks.obj
 0001:000ed8d4       _lock_locales              00000001400ee8d4 f   libucrt:locks.obj
 0001:000ed8f0       _unlock_locales            00000001400ee8f0 f   libucrt:locks.obj
 0001:000ed900       __pctype_func              00000001400ee900 f   libucrt:ctype.obj
 0001:000ed930       _wcsdup                    00000001400ee930 f   libucrt:wcsdup.obj
 0001:000ed9b4       ___lc_codepage_func        00000001400ee9b4 f   libucrt:initctype.obj
 0001:000ed9e4       ___lc_locale_name_func     00000001400ee9e4 f   libucrt:initctype.obj
 0001:000eda18       ___mb_cur_max_func         00000001400eea18 f   libucrt:initctype.obj
 0001:000eda48       __acrt_locale_initialize_ctype 00000001400eea48 f   libucrt:initctype.obj
 0001:000ee0ac       wcscpy_s                   00000001400ef0ac f   libucrt:wcscpy_s.obj
 0001:000ee114       ??$__acrt_get_full_path_name_wide@U__crt_win32_buffer_no_resizing@@@@YAHQEB_WAEAV?$__crt_win32_buffer@_WU__crt_win32_buffer_no_resizing@@@@@Z 00000001400ef114 f i libucrt:getcwd.obj
 0001:000ee188       ??$__acrt_get_full_path_name_wide@U__crt_win32_buffer_public_dynamic_resizing@@@@YAHQEB_WAEAV?$__crt_win32_buffer@_WU__crt_win32_buffer_public_dynamic_resizing@@@@@Z 00000001400ef188 f i libucrt:getcwd.obj
 0001:000ee3d4       ?detach@?$__crt_win32_buffer@_WU__crt_win32_buffer_public_dynamic_resizing@@@@QEAAPEA_WXZ 00000001400ef3d4 f i libucrt:getcwd.obj
 0001:000ee53c       _wgetcwd                   00000001400ef53c f   libucrt:getcwd.obj
 0001:000ee564       ??$__acrt_wcs_to_mbs_cp@U__crt_win32_buffer_internal_dynamic_resizing@@@@YAHQEB_WAEAV?$__crt_win32_buffer@DU__crt_win32_buffer_internal_dynamic_resizing@@@@I@Z 00000001400ef564 f i libucrt:chdir.obj
 0001:000ee6f0       _wremove                   00000001400ef6f0 f   libucrt:wunlink.obj
 0001:000ee718       _wrename                   00000001400ef718 f   libucrt:wrename.obj
 0001:000ee750       powf                       00000001400ef750 f   libucrt:powf.obj
 0001:000ef618       __strncnt                  00000001400f0618 f   libucrt:strncnt.obj
 0001:000f0cb4       _Wcsftime_l                00000001400f1cb4 f   libucrt:wcsftime.obj
 0001:000f0e60       strnlen                    00000001400f1e60 f   libucrt:strnlen.obj
 0001:000f0fb0       wcsnlen                    00000001400f1fb0 f   libucrt:strnlen.obj
 0001:000f1188       __acrt_initialize_new_handler 00000001400f2188 f   libucrt:new_handler.obj
 0001:000f1190       _callnewh                  00000001400f2190 f   libucrt:new_handler.obj
 0001:000f11c0       _query_new_handler         00000001400f21c0 f   libucrt:new_handler.obj
 0001:000f11f4       _seh_filter_exe            00000001400f21f4 f   libucrt:exception_filter.obj
 0001:000f153c       __acrt_allocate_buffer_for_argv 00000001400f253c f   libucrt:argv_parsing.obj
 0001:000f159c       _configure_narrow_argv     00000001400f259c f   libucrt:argv_parsing.obj
 0001:000f19e8       __dcrt_get_or_create_narrow_environment_nolock 00000001400f29e8 f   libucrt:environment_initialization.obj
 0001:000f1a24       __dcrt_uninitialize_environments_nolock 00000001400f2a24 f   libucrt:environment_initialization.obj
 0001:000f1a5c       _get_initial_narrow_environment 00000001400f2a5c f   libucrt:environment_initialization.obj
 0001:000f1aac       _initialize_narrow_environment 00000001400f2aac f   libucrt:environment_initialization.obj
 0001:000f1df4       _crt_atexit                00000001400f2df4 f   libucrt:onexit.obj
 0001:000f1e04       _execute_onexit_table      00000001400f2e04 f   libucrt:onexit.obj
 0001:000f1e40       _initialize_onexit_table   00000001400f2e40 f   libucrt:onexit.obj
 0001:000f1e68       _register_onexit_function  00000001400f2e68 f   libucrt:onexit.obj
 0001:000f1fdc       __acrt_initialize          00000001400f2fdc f   libucrt:initialization.obj
 0001:000f1ff0       __acrt_uninitialize        00000001400f2ff0 f   libucrt:initialization.obj
 0001:000f2028       _query_app_type            00000001400f3028 f   libucrt:report_runtime_error.obj
 0001:000f2030       _set_app_type              00000001400f3030 f   libucrt:report_runtime_error.obj
 0001:000f2038       __acrt_has_user_matherr    00000001400f3038 f   libucrt:matherr.obj
 0001:000f2058       __acrt_initialize_user_matherr 00000001400f3058 f   libucrt:matherr.obj
 0001:000f2060       __acrt_invoke_user_matherr 00000001400f3060 f   libucrt:matherr.obj
 0001:000f2090       __setusermatherr           00000001400f3090 f   libucrt:matherr.obj
 0001:000f20b8       _initterm                  00000001400f30b8 f   libucrt:initterm.obj
 0001:000f211c       _initterm_e                00000001400f311c f   libucrt:initterm.obj
 0001:000f215c       _get_fmode                 00000001400f315c f   libucrt:setmode.obj
 0001:000f218c       _set_fmode                 00000001400f318c f   libucrt:setmode.obj
 0001:000f21cc       _setmode_nolock            00000001400f31cc f   libucrt:setmode.obj
 0001:000f22ac       __acrt_initialize_command_line 00000001400f32ac f   libucrt:argv_data.obj
 0001:000f22d4       __p___argc                 00000001400f32d4 f   libucrt:argv_data.obj
 0001:000f22dc       __p___argv                 00000001400f32dc f   libucrt:argv_data.obj
 0001:000f254c       ?commit_locale_name@_expandlocale_locale_name_cache@@QEAAXQEB_W_K@Z 00000001400f354c f i libucrt:wsetlocale.obj
 0001:000f25c4       __acrt_copy_locale_name    00000001400f35c4 f   libucrt:wsetlocale.obj
 0001:000f2648       __acrt_set_locale_changed  00000001400f3648 f   libucrt:wsetlocale.obj
 0001:000f2654       __acrt_uninitialize_locale 00000001400f3654 f   libucrt:wsetlocale.obj
 0001:000f2684       __lc_lctowcs               00000001400f3684 f   libucrt:wsetlocale.obj
 0001:000f2728       __lc_wcstolc               00000001400f3728 f   libucrt:wsetlocale.obj
 0001:000f2890       _configthreadlocale        00000001400f3890 f   libucrt:wsetlocale.obj
 0001:000f2e3c       _wcscats                   00000001400f3e3c f   libucrt:wsetlocale.obj
 0001:000f2ea4       _wsetlocale                00000001400f3ea4 f   libucrt:wsetlocale.obj
 0001:000f3c04       _query_new_mode            00000001400f4c04 f   libucrt:new_mode.obj
 0001:000f3c0c       _set_new_mode              00000001400f4c0c f   libucrt:new_mode.obj
 0001:000f3c38       __p__commode               00000001400f4c38 f   libucrt:ncommode.obj
 0001:000f3c40       wcsncpy_s                  00000001400f4c40 f   libucrt:wcsncpy_s.obj
 0001:000f3d24       strcpy_s                   00000001400f4d24 f   libucrt:strcpy_s.obj
 0001:000f3d84       wcsncmp                    00000001400f4d84 f   libucrt:wcsncmp.obj
 0001:000f3db0       _calloc_base               00000001400f4db0 f   libucrt:calloc_base.obj
 0001:000f3e28       _free_base                 00000001400f4e28 f   libucrt:free_base.obj
 0001:000f3e68       _malloc_base               00000001400f4e68 f   libucrt:malloc_base.obj
 0001:000f3ec8       _mbtowc_l                  00000001400f4ec8 f   libucrt:mbtowc.obj
 0001:000f4048       mbtowc                     00000001400f5048 f   libucrt:mbtowc.obj
 0001:000f4050       _wctomb_s_l                00000001400f5050 f   libucrt:wctomb.obj
 0001:000f41ec       wctomb_s                   00000001400f51ec f   libucrt:wctomb.obj
 0001:000f4578       __acrt_getptd              00000001400f5578 f   libucrt:per_thread_data.obj
 0001:000f464c       __acrt_getptd_head         00000001400f564c f   libucrt:per_thread_data.obj
 0001:000f46f4       __acrt_getptd_noexit       00000001400f56f4 f   libucrt:per_thread_data.obj
 0001:000f47c0       __acrt_initialize_ptd      00000001400f57c0 f   libucrt:per_thread_data.obj
 0001:000f47fc       __acrt_uninitialize_ptd    00000001400f57fc f   libucrt:per_thread_data.obj
 0001:000f4820       __acrt_update_locale_info  00000001400f5820 f   libucrt:locale_update.obj
 0001:000f4854       __acrt_update_multibyte_info 00000001400f5854 f   libucrt:locale_update.obj
 0001:000f5120       __acrt_fp_format           00000001400f6120 f   libucrt:cvt.obj
 0001:000f5424       _fputwc_nolock             00000001400f6424 f   libucrt:fputwc.obj
 0001:000f55a0       _fileno                    00000001400f65a0 f   libucrt:fileno.obj
 0001:000f55c8       _get_printf_count_output   00000001400f65c8 f   libucrt:printf_count_output.obj
 0001:000f55e0       __acrt_stdio_begin_temporary_buffering_nolock 00000001400f65e0 f   libucrt:_sftbuf.obj
 0001:000f56b0       __acrt_stdio_end_temporary_buffering_nolock 00000001400f66b0 f   libucrt:_sftbuf.obj
 0001:000f58e8       __acrt_initialize_lowio    00000001400f68e8 f   libucrt:ioinit.obj
 0001:000f5924       __acrt_uninitialize_lowio  00000001400f6924 f   libucrt:ioinit.obj
 0001:000f5964       _dsign                     00000001400f6964 f   libucrt:nan.obj
 0001:000f597c       _errcode                   00000001400f697c f   libucrt:fpexcept.obj
 0001:000f59c0       _except1                   00000001400f69c0 f   libucrt:fpexcept.obj
 0001:000f5ab4       _except2                   00000001400f6ab4 f   libucrt:fpexcept.obj
 0001:000f5bbc       _handle_exc                00000001400f6bbc f   libucrt:fpexcept.obj
 0001:000f5e24       _handle_qnan2              00000001400f6e24 f   libucrt:fpexcept.obj
 0001:000f5e2c       _raise_exc                 00000001400f6e2c f   libucrt:fpexcept.obj
 0001:000f5e54       _raise_exc_ex              00000001400f6e54 f   libucrt:fpexcept.obj
 0001:000f6164       _raise_excf                00000001400f7164 f   libucrt:fpexcept.obj
 0001:000f6190       _set_errno_from_matherr    00000001400f7190 f   libucrt:fpexcept.obj
 0001:000f61c0       _umatherr                  00000001400f71c0 f   libucrt:fpexcept.obj
 0001:000f6294       _decomp                    00000001400f7294 f   libucrt:util.obj
 0001:000f63c4       _set_exp                   00000001400f73c4 f   libucrt:util.obj
 0001:000f63fc       _sptype                    00000001400f73fc f   libucrt:util.obj
 0001:000f6470       _clrfp                     00000001400f7470 f   libucrt:fpctrl.obj
 0001:000f6490       _ctrlfp                    00000001400f7490 f   libucrt:fpctrl.obj
 0001:000f650c       _set_statfp                00000001400f750c f   libucrt:fpctrl.obj
 0001:000f652c       _statfp                    00000001400f752c f   libucrt:fpctrl.obj
 0001:000f67b4       _itow_s                    00000001400f77b4 f   libucrt:xtoa.obj
 0001:000f67d4       _ui64toa_s                 00000001400f77d4 f   libucrt:xtoa.obj
 0001:000f67e8       _set_error_mode            00000001400f77e8 f   libucrt:set_error_mode.obj
 0001:000f6828       wcscat_s                   00000001400f7828 f   libucrt:wcscat_s.obj
 0001:000f68a8       wcsncat_s                  00000001400f78a8 f   libucrt:wcsncat_s.obj
 0001:000f69a8       strcat_s                   00000001400f79a8 f   libucrt:strcat_s.obj
 0001:000f6a20       __acrt_GetModuleFileNameA  00000001400f7a20 f   libucrt:getmodulefilenamea.obj
 0001:000f6b40       __acrt_show_wide_message_box 00000001400f7b40 f   libucrt:crtmbox.obj
 0001:000f6c2c       __acrt_get_sigabrt_handler 00000001400f7c2c f   libucrt:signal.obj
 0001:000f6c5c       __acrt_initialize_signal_handlers 00000001400f7c5c f   libucrt:signal.obj
 0001:000f6c7c       raise                      00000001400f7c7c f   libucrt:signal.obj
 0001:000f7164       __acrt_AppPolicyGetProcessTerminationMethodInternal 00000001400f8164 f   libucrt:winapi_thunks.obj
 0001:000f71b4       __acrt_AppPolicyGetShowDeveloperDiagnosticInternal 00000001400f81b4 f   libucrt:winapi_thunks.obj
 0001:000f7204       __acrt_AppPolicyGetWindowingModelInternal 00000001400f8204 f   libucrt:winapi_thunks.obj
 0001:000f7254       __acrt_AreFileApisANSI     00000001400f8254 f   libucrt:winapi_thunks.obj
 0001:000f7290       __acrt_CompareStringEx     00000001400f8290 f   libucrt:winapi_thunks.obj
 0001:000f736c       __acrt_EnumSystemLocalesEx 00000001400f836c f   libucrt:winapi_thunks.obj
 0001:000f7404       __acrt_FlsAlloc            00000001400f8404 f   libucrt:winapi_thunks.obj
 0001:000f744c       __acrt_FlsFree             00000001400f844c f   libucrt:winapi_thunks.obj
 0001:000f7494       __acrt_FlsGetValue         00000001400f8494 f   libucrt:winapi_thunks.obj
 0001:000f74dc       __acrt_FlsSetValue         00000001400f84dc f   libucrt:winapi_thunks.obj
 0001:000f7530       __acrt_GetDateFormatEx     00000001400f8530 f   libucrt:winapi_thunks.obj
 0001:000f75e8       __acrt_GetLocaleInfoEx     00000001400f85e8 f   libucrt:winapi_thunks.obj
 0001:000f766c       __acrt_GetSystemTimePreciseAsFileTime 00000001400f866c f   libucrt:winapi_thunks.obj
 0001:000f76b4       __acrt_GetTimeFormatEx     00000001400f86b4 f   libucrt:winapi_thunks.obj
 0001:000f7760       __acrt_GetUserDefaultLocaleName 00000001400f8760 f   libucrt:winapi_thunks.obj
 0001:000f77c4       __acrt_InitializeCriticalSectionEx 00000001400f87c4 f   libucrt:winapi_thunks.obj
 0001:000f7828       __acrt_IsValidLocaleName   00000001400f8828 f   libucrt:winapi_thunks.obj
 0001:000f7880       __acrt_LCIDToLocaleName    00000001400f8880 f   libucrt:winapi_thunks.obj
 0001:000f78f0       __acrt_LCMapStringEx       00000001400f88f0 f   libucrt:winapi_thunks.obj
 0001:000f79cc       __acrt_LocaleNameToLCID    00000001400f89cc f   libucrt:winapi_thunks.obj
 0001:000f7a1c       __acrt_MessageBoxW         00000001400f8a1c f   libucrt:winapi_thunks.obj
 0001:000f7a90       __acrt_can_show_message_box 00000001400f8a90 f   libucrt:winapi_thunks.obj
 0001:000f7b00       __acrt_can_use_vista_locale_apis 00000001400f8b00 f   libucrt:winapi_thunks.obj
 0001:000f7b30       __acrt_eagerly_load_locale_apis 00000001400f8b30 f   libucrt:winapi_thunks.obj
 0001:000f7c8c       __acrt_get_parent_window   00000001400f8c8c f   libucrt:winapi_thunks.obj
 0001:000f7d04       __acrt_initialize_winapi_thunks 00000001400f8d04 f   libucrt:winapi_thunks.obj
 0001:000f7d38       __acrt_is_interactive      00000001400f8d38 f   libucrt:winapi_thunks.obj
 0001:000f7e00       __acrt_uninitialize_winapi_thunks 00000001400f8e00 f   libucrt:winapi_thunks.obj
 0001:000f7e44       _fcloseall                 00000001400f8e44 f   libucrt:closeall.obj
 0001:000f7ef8       __acrt_stdio_free_buffer_nolock 00000001400f8ef8 f   libucrt:_freebuf.obj
 0001:000f7f38       __acrt_get_developer_information_policy 00000001400f8f38 f   libucrt:win_policies.obj
 0001:000f7f8c       __acrt_get_process_end_policy 00000001400f8f8c f   libucrt:win_policies.obj
 0001:000f7fc8       __acrt_get_windowing_model_policy 00000001400f8fc8 f   libucrt:win_policies.obj
 0001:000f8034       _fd_int                    00000001400f9034 f   libucrt:_test.obj
 0001:000f8298       _lseeki64                  00000001400f9298 f   libucrt:lseek.obj
 0001:000f82a0       _lseeki64_nolock           00000001400f92a0 f   libucrt:lseek.obj
 0001:000f8880       _read                      00000001400f9880 f   libucrt:read.obj
 0001:000f899c       _read_nolock               00000001400f999c f   libucrt:read.obj
 0001:000f8df4       _isleadbyte_l              00000001400f9df4 f i libucrt:_wctype.obj
 0001:000f9158       __acrt_LCMapStringA        00000001400fa158 f   libucrt:lcmapstringa.obj
 0001:000f927c       _commit                    00000001400fa27c f   libucrt:commit.obj
 0001:000f9b70       _write                     00000001400fab70 f   libucrt:write.obj
 0001:000f9c5c       _write_nolock              00000001400fac5c f   libucrt:write.obj
 0001:000f9fac       _close                     00000001400fafac f   libucrt:close.obj
 0001:000fa050       _close_nolock              00000001400fb050 f   libucrt:close.obj
 0001:000fa110       ?__acrt_stdio_allocate_stream@@YA?AV__crt_stdio_stream@@XZ 00000001400fb110 f   libucrt:stream.obj
 0001:000fa168       ?__acrt_stdio_free_stream@@YAXV__crt_stdio_stream@@@Z 00000001400fb168 f   libucrt:stream.obj
 0001:000fa4b8       __acrt_stdio_flush_and_write_narrow_nolock 00000001400fb4b8 f   libucrt:_flsbuf.obj
 0001:000fa5a4       __acrt_stdio_flush_and_write_wide_nolock 00000001400fb5a4 f   libucrt:_flsbuf.obj
 0001:000fa690       ??$__acrt_stdio_parse_mode@D@@YA?AU__acrt_stdio_stream_mode@@QEBD@Z 00000001400fb690 f i libucrt:openfile.obj
 0001:000fa950       ??$__acrt_stdio_parse_mode@_W@@YA?AU__acrt_stdio_stream_mode@@QEB_W@Z 00000001400fb950 f i libucrt:openfile.obj
 0001:000fac50       _openfile                  00000001400fbc50 f   libucrt:openfile.obj
 0001:000facec       _wopenfile                 00000001400fbcec f   libucrt:openfile.obj
 0001:000fad88       __acrt_stdio_refill_and_read_narrow_nolock 00000001400fbd88 f   libucrt:_filbuf.obj
 0001:000faef4       iswctype                   00000001400fbef4 f   libucrt:iswctype.obj
 0001:000faf64       _isctype_l                 00000001400fbf64 f   libucrt:isctype.obj
 0001:000fb06c       fegetround                 00000001400fc06c f   libucrt:fegetround.obj
 0001:000fb080       __acrt_stdio_allocate_buffer_nolock 00000001400fc080 f   libucrt:_getbuf.obj
 0001:000fb0e8       _realloc_base              00000001400fc0e8 f   libucrt:realloc_base.obj
 0001:000fb164       _copysign                  00000001400fc164 f   libucrt:_copysign.obj
 0001:000fb2bc       _handle_error              00000001400fc2bc f   libucrt:libm_error.obj
 0001:000fb3e4       _handle_errorf             00000001400fc3e4 f   libucrt:libm_error.obj
 0001:000fb518       _handle_nan                00000001400fc518 f   libucrt:libm_error.obj
 0001:000fb534       _handle_nanf               00000001400fc534 f   libucrt:libm_error.obj
 0001:000fb550       __remainder_piby2d2f_forAsm 00000001400fc550 f   libucrt:remainder_piby2f_forasm.obj
 0001:000fb6a0       __remainder_piby2_fma3     00000001400fc6a0 f   libucrt:remainder_piby2_forfma3.obj
 0001:000fb890       __remainder_piby2_fma3_bdl 00000001400fc890 f   libucrt:remainder_piby2_forfma3.obj
 0001:000fb908       _cos_special               00000001400fc908 f   libucrt:sincos_special.obj
 0001:000fb91c       _cosf_special              00000001400fc91c f   libucrt:sincos_special.obj
 0001:000fb930       _sin_special               00000001400fc930 f   libucrt:sincos_special.obj
 0001:000fba74       _sinf_special              00000001400fca74 f   libucrt:sincos_special.obj
 0001:000fba88       _tan_special               00000001400fca88 f   libucrt:sincos_special.obj
 0001:000fba9c       _tanf_special              00000001400fca9c f   libucrt:sincos_special.obj
 0001:000fbab0       __acrt_initialize_fma3     00000001400fcab0 f   libucrt:fma3_available.obj
 0001:000fbb20       __remainder_piby2d2f_forC  00000001400fcb20 f   libucrt:remainder_piby2f_forc.obj
 0001:000fbcac       __sys_errlist              00000001400fccac f   libucrt:syserr.obj
 0001:000fbcb4       __sys_nerr                 00000001400fccb4 f   libucrt:syserr.obj
 0001:000fbebc       _mbstowcs_s_l              00000001400fcebc f   libucrt:mbstowcs.obj
 0001:000fbff0       mbstowcs_s                 00000001400fcff0 f   libucrt:mbstowcs.obj
 0001:000fc010       strncpy_s                  00000001400fd010 f   libucrt:strncpy_s.obj
 0001:000fc0f0       _pow_special               00000001400fd0f0 f   libucrt:pow_special.obj
 0001:000fc214       _powf_special              00000001400fd214 f   libucrt:pow_special.obj
 0001:000fc700       __acrt_CompareStringA      00000001400fd700 f   libucrt:comparestringa.obj
 0001:000fc78c       _recalloc_base             00000001400fd78c f   libucrt:recalloc.obj
 0001:000fc824       _cwait                     00000001400fd824 f   libucrt:wait.obj
 0001:000fc8dc       __acrt_getpath             00000001400fd8dc f   libucrt:getpath.obj
 0001:000fc9a8       __acrt_CreateProcessA      00000001400fd9a8 f   libucrt:createprocessa.obj
 0001:000fcc48       _waccess_s                 00000001400fdc48 f   libucrt:waccess.obj
 0001:000fccf4       _access_s                  00000001400fdcf4 f   libucrt:access.obj
 0001:000fcde0       _pipe                      00000001400fdde0 f   libucrt:pipe.obj
 0001:000fd170       _fdopen                    00000001400fe170 f   libucrt:fdopen.obj
 0001:000fd178       _mbsrchr                   00000001400fe178 f   libucrt:mbsrchr.obj
 0001:000fd180       _mbsrchr_l                 00000001400fe180 f   libucrt:mbsrchr.obj
 0001:000fd240       _strdup                    00000001400fe240 f   libucrt:strdup.obj
 0001:000fd2b8       __acrt_GetTempPathA        00000001400fe2b8 f   libucrt:gettemppath.obj
 0001:000fda4c       _sopen_nolock              00000001400fea4c f   libucrt:open.obj
 0001:000fdb64       _sopen_s                   00000001400feb64 f   libucrt:open.obj
 0001:000fdb98       _wsopen_nolock             00000001400feb98 f   libucrt:open.obj
 0001:000fdf80       _wsopen_s                  00000001400fef80 f   libucrt:open.obj
 0001:000fdfb4       __acrt_uninitialize_tmpfile 00000001400fefb4 f   libucrt:rmtmp.obj
 0001:000fdfc8       _rmtmp                     00000001400fefc8 f   libucrt:rmtmp.obj
 0001:000fe3c4       _wcstombs_s_l              00000001400ff3c4 f   libucrt:wcstombs.obj
 0001:000fe4b0       _strnicoll                 00000001400ff4b0 f   libucrt:strnicol.obj
 0001:000fe4c8       _strnicoll_l               00000001400ff4c8 f   libucrt:strnicol.obj
 0001:000fed04       _spawnve                   00000001400ffd04 f   libucrt:spawnv.obj
 0001:000ff01c       _spawnvpe                  000000014010001c f   libucrt:spawnvp.obj
 0001:000ff024       __acrt_initialize_timeset  0000000140100024 f   libucrt:timeset.obj
 0001:000ff068       __daylight                 0000000140100068 f   libucrt:timeset.obj
 0001:000ff070       __dstbias                  0000000140100070 f   libucrt:timeset.obj
 0001:000ff078       __timezone                 0000000140100078 f   libucrt:timeset.obj
 0001:000ff080       __tzname                   0000000140100080 f   libucrt:timeset.obj
 0001:000ff088       _get_daylight              0000000140100088 f   libucrt:timeset.obj
 0001:000ff0b8       _get_dstbias               00000001401000b8 f   libucrt:timeset.obj
 0001:000ff0e8       _get_timezone              00000001401000e8 f   libucrt:timeset.obj
 0001:000ffabc       __tzset                    0000000140100abc f   libucrt:tzset.obj
 0001:000ffafc       _isindst                   0000000140100afc f   libucrt:tzset.obj
 0001:000ffb2c       __acrt_MultiByteToWideChar 0000000140100b2c f   libucrt:multibytetowidechar.obj
 0001:000ffb88       __acrt_WideCharToMultiByte 0000000140100b88 f   libucrt:widechartomultibyte.obj
 0001:000ffc20       __remainder_piby2_forAsm   0000000140100c20 f   libucrt:remainder_piby2_forasm.obj
 0001:000ffe30       __remainder_piby2_cw_forAsm 0000000140100e30 f   libucrt:remainder_piby2_forasm.obj
 0001:000fff70       _exp_special               0000000140100f70 f   libucrt:exp_special.obj
 0001:00100010       _log10_special             0000000140101010 f   libucrt:log_special.obj
 0001:00100030       _log_special               0000000140101030 f   libucrt:log_special.obj
 0001:0010026c       __acrt_GetLocaleInfoA      000000014010126c f   libucrt:getlocaleinfoa.obj
 0001:00100434       __acrt_GetStringTypeA      0000000140101434 f   libucrt:getstringtypea.obj
 0001:001005c4       _getdrive                  00000001401015c4 f   libucrt:drive.obj
 0001:001006bc       __acrt_SetEnvironmentVariableA 00000001401016bc f   libucrt:setenvironmentvariablea.obj
 0001:00100854       __ascii_wcsicmp            0000000140101854 f   libucrt:wcsicmp.obj
 0001:00100894       _wcsicmp                   0000000140101894 f   libucrt:wcsicmp.obj
 0001:001008dc       _wcsicmp_l                 00000001401018dc f   libucrt:wcsicmp.obj
 0001:001010bc       __acrt_expand_narrow_argv_wildcards 00000001401020bc f   libucrt:argv_wildcards.obj
 0001:001017f0       __acrt_initialize_multibyte 00000001401027f0 f   libucrt:mbctype.obj
 0001:00101850       __acrt_update_thread_multibyte_data 0000000140102850 f   libucrt:mbctype.obj
 0001:0010186c       _setmbcp_nolock            000000014010286c f   libucrt:mbctype.obj
 0001:00101ba0       _ismbblead                 0000000140102ba0 f   libucrt:ismbbyte.obj
 0001:00101bb4       __dcrt_get_narrow_environment_from_os 0000000140102bb4 f   libucrt:get_environment_from_os.obj
 0001:001020c0       __dcrt_set_variable_in_narrow_environment_nolock 00000001401030c0 f   libucrt:setenv.obj
 0001:001020c8       __acrt_initialize_heap     00000001401030c8 f   libucrt:heap_handle.obj
 0001:001020e4       __acrt_uninitialize_heap   00000001401030e4 f   libucrt:heap_handle.obj
 0001:001020f0       __acrt_execute_initializers 00000001401030f0 f   libucrt:shared_initialization.obj
 0001:00102170       __acrt_execute_uninitializers 0000000140103170 f   libucrt:shared_initialization.obj
 0001:001021ac       __acrt_lowio_create_handle_array 00000001401031ac f   libucrt:osfinfo.obj
 0001:00102254       __acrt_lowio_destroy_handle_array 0000000140103254 f   libucrt:osfinfo.obj
 0001:001022a4       __acrt_lowio_ensure_fh_exists 00000001401032a4 f   libucrt:osfinfo.obj
 0001:0010234c       __acrt_lowio_lock_fh       000000014010334c f   libucrt:osfinfo.obj
 0001:00102374       __acrt_lowio_set_os_handle 0000000140103374 f   libucrt:osfinfo.obj
 0001:00102434       __acrt_lowio_unlock_fh     0000000140103434 f   libucrt:osfinfo.obj
 0001:0010245c       _alloc_osfhnd              000000014010345c f   libucrt:osfinfo.obj
 0001:0010259c       _free_osfhnd               000000014010359c f   libucrt:osfinfo.obj
 0001:00102658       _get_osfhandle             0000000140103658 f   libucrt:osfinfo.obj
 0001:001026d0       __acrt_locale_free_monetary 00000001401036d0 f   libucrt:initmon.obj
 0001:001027dc       __acrt_locale_initialize_monetary 00000001401037dc f   libucrt:initmon.obj
 0001:00102d10       __acrt_locale_free_numeric 0000000140103d10 f   libucrt:initnum.obj
 0001:00102d7c       __acrt_locale_initialize_numeric 0000000140103d7c f   libucrt:initnum.obj
 0001:001033fc       __acrt_locale_free_time    00000001401043fc f   libucrt:inittime.obj
 0001:00103504       __acrt_locale_initialize_time 0000000140104504 f   libucrt:inittime.obj
 0001:001035a0       wcscspn                    00000001401045a0 f   libucrt:wcscspn.obj
 0001:001035e0       wcspbrk                    00000001401045e0 f   libucrt:wcspbrk.obj
 0001:00103614       __acrt_add_locale_ref      0000000140104614 f   libucrt:locale_refcounting.obj
 0001:001036a0       __acrt_free_locale         00000001401046a0 f   libucrt:locale_refcounting.obj
 0001:00103818       __acrt_locale_add_lc_time_reference 0000000140104818 f   libucrt:locale_refcounting.obj
 0001:00103840       __acrt_locale_free_lc_time_if_unreferenced 0000000140104840 f   libucrt:locale_refcounting.obj
 0001:00103878       __acrt_locale_release_lc_time_reference 0000000140104878 f   libucrt:locale_refcounting.obj
 0001:001038a0       __acrt_release_locale_ref  00000001401048a0 f   libucrt:locale_refcounting.obj
 0001:00103948       __acrt_update_thread_locale_data 0000000140104948 f   libucrt:locale_refcounting.obj
 0001:001039b4       _updatetlocinfoEx_nolock   00000001401049b4 f   libucrt:locale_refcounting.obj
 0001:001041d0       __acrt_get_qualified_locale 00000001401051d0 f   libucrt:get_qualified_locale.obj
 0001:00104c04       __acrt_get_qualified_locale_downlevel 0000000140105c04 f   libucrt:getqloc_downlevel.obj
 0001:00104e84       ?__mbrtowc_utf8@__crt_mbstring@@YA_KPEA_WPEBD_KPEAU_Mbstatet@@@Z 0000000140105e84 f   libucrt:mbrtowc.obj
 0001:00104ec0       ?__mbsrtowcs_utf8@__crt_mbstring@@YA_KPEA_WPEAPEBD_KPEAU_Mbstatet@@@Z 0000000140105ec0 f   libucrt:mbrtowc.obj
 0001:00105038       ?__c32rtomb_utf8@__crt_mbstring@@YA_KPEAD_UPEAU_Mbstatet@@@Z 0000000140106038 f   libucrt:c32rtomb.obj
 0001:001050ec       c32rtomb                   00000001401060ec f   libucrt:c32rtomb.obj
 0001:001050f4       __acrt_fp_strflt_to_string 00000001401060f4 f   libucrt:_fptostr.obj
 0001:001051d8       __acrt_fltout              00000001401061d8 f   libucrt:cfout.obj
 0001:0010640c       _isatty                    000000014010740c f   libucrt:isatty.obj
 0001:00106480       _get_fpsr                  0000000140107480 f   libucrt:fpsr.obj
 0001:00106490       _set_fpsr                  0000000140107490 f   libucrt:fpsr.obj
 0001:0010649a       _fclrf                     000000014010749a f   libucrt:fpsr.obj
 0001:001064ae       _frnd                      00000001401074ae f   libucrt:fpsr.obj
 0001:001064d0       __acrt_DownlevelLCIDToLocaleName 00000001401074d0 f   libucrt:lcidtoname_downlevel.obj
 0001:001065c4       __acrt_DownlevelLocaleNameToLCID 00000001401075c4 f   libucrt:lcidtoname_downlevel.obj
 0001:00106674       __acrt_fenv_get_common_round_control 0000000140107674 f   libucrt:_fenvutils.obj
 0001:00106680       __acrt_fenv_get_control    0000000140107680 f   libucrt:_fenvutils.obj
 0001:00106774       __acrt_fenv_get_status     0000000140107774 f   libucrt:_fenvutils.obj
 0001:001067c8       __acrt_fenv_set_control    00000001401077c8 f   libucrt:_fenvutils.obj
 0001:00106910       __acrt_fenv_set_status     0000000140107910 f   libucrt:_fenvutils.obj
 0001:00106994       _putwch_nolock             0000000140107994 f   libucrt:putwch.obj
 0001:001069d0       __ascii_wcsnicmp           00000001401079d0 f   libucrt:wcsnicmp.obj
 0001:00106a1c       _wcsnicmp                  0000000140107a1c f   libucrt:wcsnicmp.obj
 0001:00106a64       _wcsnicmp_l                0000000140107a64 f   libucrt:wcsnicmp.obj
 0001:00106bb4       __ascii_strnicmp           0000000140107bb4 f   libucrt:strnicmp.obj
 0001:00106c00       _strnicmp                  0000000140107c00 f   libucrt:strnicmp.obj
 0001:00106c50       _strnicmp_l                0000000140107c50 f   libucrt:strnicmp.obj
 0001:00106d00       __acrt_GetStringTypeW      0000000140107d00 f   libucrt:getstringtypew.obj
 0001:00106d08       _msize_base                0000000140107d08 f   libucrt:msize.obj
 0001:00106d44       _chsize_nolock             0000000140107d44 f   libucrt:chsize.obj
 0001:00106eb0       ?__wcsrtombs_utf8@__crt_mbstring@@YA_KPEADPEAPEB_W_KPEAU_Mbstatet@@@Z 0000000140107eb0 f   libucrt:wcrtomb.obj
 0001:001072bc       __acrt_pack_narrow_command_line_and_environment 00000001401082bc f   libucrt:cenvarg.obj
 0001:0010742c       _towlower_l                000000014010842c f   libucrt:towlower.obj
 0001:001074e8       _mbsdec                    00000001401084e8 f   libucrt:mbsdec.obj
 0001:001074f0       _mbsdec_l                  00000001401084f0 f   libucrt:mbsdec.obj
 0001:0010759c       wcscmp                     000000014010859c f   libucrt:wcscmp.obj
 0001:001075d4       ?__mbrtoc32_utf8@__crt_mbstring@@YA_KPEA_UPEBD_KPEAU_Mbstatet@@@Z 00000001401085d4 f   libucrt:mbrtoc32.obj
 0001:001077b0       fegetenv                   00000001401087b0 f   libucrt:fegetenv.obj
 0001:001077d0       fesetenv                   00000001401087d0 f   libucrt:fesetenv.obj
 0001:0010781c       feholdexcept               000000014010881c f   libucrt:feholdexcept.obj
 0001:0010786c       __dcrt_lowio_ensure_console_output_initialized 000000014010886c f   libucrt:initcon.obj
 0001:001078c0       __dcrt_terminate_console_output 00000001401088c0 f   libucrt:initcon.obj
 0001:001078dc       __dcrt_write_console       00000001401088dc f   libucrt:initcon.obj
 0001:0010799c       ?__c16rtomb_utf8@__crt_mbstring@@YA_KPEAD_SPEAU_Mbstatet@@@Z 000000014010899c f   libucrt:c16rtomb.obj
 0001:00107a44       __acrt_LCMapStringW        0000000140108a44 f   libucrt:lcmapstringw.obj
 0001:00107acc       _clearfp                   0000000140108acc f   libucrt:ieee.obj
 0001:00107b40       _FindPESection             0000000140108b40 f   LIBCMT:pesect.obj
 0001:00107b90       _IsNonwritableInCurrentImage 0000000140108b90 f   LIBCMT:pesect.obj
 0001:00107be0       _ValidateImageBase         0000000140108be0 f   LIBCMT:pesect.obj
 0001:00107c10       __GSHandlerCheck_SEH       0000000140108c10 f   LIBCMT:gshandlerseh.obj
 0001:00107c98       __GSHandlerCheck_EH        0000000140108c98 f   LIBCMT:gshandlereh.obj
 0001:00107d17       RtlUnwind                  0000000140108d17 f   kernel32:KERNEL32.dll
 0001:00107d20       _local_unwind              0000000140108d20 f   libvcruntime:jmpuwind.obj
 0001:00107d4c       wcschr                     0000000140108d4c f   libvcruntime:wcschr.obj
 0001:00107dd0       __vdecl_sin2               0000000140108dd0 f   LIBCMT:svml_dsin2_dispatch.obj
 0001:00107df0       __libm_sse2_sincos_        0000000140108df0 f   LIBCMT:svml_dsin2_dispatch.obj
